(dp1
S'output'
p2
S"<type 'exceptions.KeyError'> 'select'"
p3
sS'layer'
p4
S'/home/alfem/alfem/prog/telefam/server/web2py/applications/telefam/controllers/api.py'
p5
sS'code'
p6
S'# coding: utf8\n\nimport datetime\n\ndef call():\n    """\n    Returns status of changes to a Telefam device\n    """\n    session.forget()\n    return service()\n\ndef get_telefam_by_key(key):\n    telefams=db(db.telefams.key==key).select()\n    if len(telefams) != 1:\n      return False\n    else:\n      return telefams[0]\n\n@service.json\ndef update_last_connection(key):\n    now=datetime.datetime.now()\n    db(db.telefams.key==key).update(last_connection=now)\n    return now\n\n@service.json\ndef get_status(key):\n# if provided key is invalid then return nothing (note: choose a long key to avoid brute force attacks)\n    telefam=get_telefam_by_key(key)\n    if not telefam:\n        return \n\n    status={}\n\n    status[\'messages\']=db((db.messages.telefam_id==telefam.id) & (db.messages.updated_on > telefam.last_connection)).count()\n\n    status[\'galleries\']=db((db.galleries.telefam_id==telefam.id) & (db.galleries.updated_on > telefam.last_connection)).count()\n\n    return status\n\n# Returns a list of available messages since last conection\n@service.json\ndef get_message_list(key):\n    telefam=get_telefam_by_key(key)\n    if not telefam:\n        return \n\n    messages_since_last_connection=db((db.messages.telefam_id==telefam.id) & (db.messages.updated_on >= telefam.last_connection)).select(db.messages.id, orderby=db.messages.updated_on)\n\n    return messages_since_last_connection\n\n# Returns a message\n@service.json\ndef get_message(key, id):\n    telefam=get_telefam_by_key(key)\n    if not telefam:\n        return \n\n    message=db.messages(id).select(db.messages.id,db.messages.text)\n\n    message_dict={}\n    for key,value in message.iteritems():\n        message_dict[key]=value\n\n    return message_dict\n\n\nresponse._vars=response._caller(call)\n'
p7
sS'snapshot'
p8
(dp9
S'exception'
p10
(dp11
S'__hash__'
p12
S"<method-wrapper '__hash__' of exceptions.KeyError object>"
p13
sS'__setattr__'
p14
S"<method-wrapper '__setattr__' of exceptions.KeyError object>"
p15
sS'__reduce_ex__'
p16
S'<built-in method __reduce_ex__ of exceptions.KeyError object>'
p17
sS'__getslice__'
p18
S"<method-wrapper '__getslice__' of exceptions.KeyError object>"
p19
sS'__getitem__'
p20
S"<method-wrapper '__getitem__' of exceptions.KeyError object>"
p21
sS'__setstate__'
p22
S'<built-in method __setstate__ of exceptions.KeyError object>'
p23
sS'__reduce__'
p24
S'<built-in method __reduce__ of exceptions.KeyError object>'
p25
sS'__str__'
p26
S"<method-wrapper '__str__' of exceptions.KeyError object>"
p27
sS'__format__'
p28
S'<built-in method __format__ of exceptions.KeyError object>'
p29
sS'__getattribute__'
p30
S"<method-wrapper '__getattribute__' of exceptions.KeyError object>"
p31
sS'__class__'
p32
S"<type 'exceptions.KeyError'>"
p33
sS'__unicode__'
p34
S'<built-in method __unicode__ of exceptions.KeyError object>'
p35
sS'__delattr__'
p36
S"<method-wrapper '__delattr__' of exceptions.KeyError object>"
p37
sS'__subclasshook__'
p38
S'<built-in method __subclasshook__ of type object>'
p39
sS'__repr__'
p40
S"<method-wrapper '__repr__' of exceptions.KeyError object>"
p41
sS'args'
p42
S"('select',)"
p43
sS'__dict__'
p44
S'{}'
p45
sS'__sizeof__'
p46
S'<built-in method __sizeof__ of exceptions.KeyError object>'
p47
sS'__doc__'
p48
S"'Mapping key not found.'"
p49
sS'__init__'
p50
S"<method-wrapper '__init__' of exceptions.KeyError object>"
p51
sS'__new__'
p52
S'<built-in method __new__ of type object>'
p53
ssS'evalue'
p54
S"'select'"
p55
sS'request'
p56
ccopy_reg
_reconstructor
p57
(cgluon.html
BEAUTIFY
p58
c__builtin__
object
p59
NtRp60
(dp61
S'attributes'
p62
(dp63
sS'components'
p64
(lp65
g57
(cgluon.html
TABLE
p66
g59
NtRp67
(dp68
g62
(dp69
S'level'
p70
I5
ssS'parent'
p71
Nsg64
(lp72
g57
(cgluon.html
TR
p73
g59
NtRp74
(dp75
g62
(dp76
sg71
g67
sg64
(lp77
g57
(cgluon.html
TD
p78
g59
NtRp79
(dp80
g62
(dp81
S'_style'
p82
S'font-weight:bold;vertical-align:top'
p83
ssg71
g74
sg64
(lp84
S'ajax'
p85
asbag57
(g78
g59
NtRp86
(dp87
g62
(dp88
S'_valign'
p89
S'top'
p90
ssg71
g74
sg64
(lp91
S':'
asbag57
(g78
g59
NtRp92
(dp93
g62
(dp94
sg71
g74
sg64
(lp95
g57
(g58
g59
NtRp96
(dp97
g62
(dp98
g70
I5
ssg71
g92
sg64
(lp99
S'False'
p100
asbasbasbag57
(g73
g59
NtRp101
(dp102
g62
(dp103
sg71
g67
sg64
(lp104
g57
(g78
g59
NtRp105
(dp106
g62
(dp107
g82
g83
ssg71
g101
sg64
(lp108
S'application'
p109
asbag57
(g78
g59
NtRp110
(dp111
g62
(dp112
g89
g90
ssg71
g101
sg64
(lp113
S':'
asbag57
(g78
g59
NtRp114
(dp115
g62
(dp116
sg71
g101
sg64
(lp117
g57
(g58
g59
NtRp118
(dp119
g62
(dp120
g70
I5
ssg71
g114
sg64
(lp121
S'telefam'
p122
asbasbasbag57
(g73
g59
NtRp123
(dp124
g62
(dp125
sg71
g67
sg64
(lp126
g57
(g78
g59
NtRp127
(dp128
g62
(dp129
g82
g83
ssg71
g123
sg64
(lp130
g42
asbag57
(g78
g59
NtRp131
(dp132
g62
(dp133
g89
g90
ssg71
g123
sg64
(lp134
S':'
asbag57
(g78
g59
NtRp135
(dp136
g62
(dp137
sg71
g123
sg64
(lp138
g57
(g58
g59
NtRp139
(dp140
g62
(dp141
g70
I5
ssg71
g135
sg64
(lp142
g57
(g66
g59
NtRp143
(dp144
g62
(dp145
g70
I4
ssg71
Nsg64
(lp146
g57
(g73
g59
NtRp147
(dp148
g62
(dp149
sg71
g143
sg64
(lp150
g57
(g78
g59
NtRp151
(dp152
g62
(dp153
sg71
g147
sg64
(lp154
g57
(g58
g59
NtRp155
(dp156
g62
(dp157
g70
I4
ssg71
g151
sg64
(lp158
S'json'
p159
asbasbasbag57
(g73
g59
NtRp160
(dp161
g62
(dp162
sg71
g143
sg64
(lp163
g57
(g78
g59
NtRp164
(dp165
g62
(dp166
sg71
g160
sg64
(lp167
g57
(g58
g59
NtRp168
(dp169
g62
(dp170
g70
I4
ssg71
g164
sg64
(lp171
S'get_message'
p172
asbasbasbasbasbasbasbag57
(g73
g59
NtRp173
(dp174
g62
(dp175
sg71
g67
sg64
(lp176
g57
(g78
g59
NtRp177
(dp178
g62
(dp179
g82
g83
ssg71
g173
sg64
(lp180
S'body'
p181
asbag57
(g78
g59
NtRp182
(dp183
g62
(dp184
g89
g90
ssg71
g173
sg64
(lp185
S':'
asbag57
(g78
g59
NtRp186
(dp187
g62
(dp188
sg71
g173
sg64
(lp189
g57
(g58
g59
NtRp190
(dp191
g62
(dp192
g70
I5
ssg71
g186
sg64
(lp193
S'<cStringIO.StringO object at 0xbea9900>'
p194
asbasbasbag57
(g73
g59
NtRp195
(dp196
g62
(dp197
sg71
g67
sg64
(lp198
g57
(g78
g59
NtRp199
(dp200
g62
(dp201
g82
g83
ssg71
g195
sg64
(lp202
S'client'
p203
asbag57
(g78
g59
NtRp204
(dp205
g62
(dp206
g89
g90
ssg71
g195
sg64
(lp207
S':'
asbag57
(g78
g59
NtRp208
(dp209
g62
(dp210
sg71
g195
sg64
(lp211
g57
(g58
g59
NtRp212
(dp213
g62
(dp214
g70
I5
ssg71
g208
sg64
(lp215
S'127.0.0.1'
p216
asbasbasbag57
(g73
g59
NtRp217
(dp218
g62
(dp219
sg71
g67
sg64
(lp220
g57
(g78
g59
NtRp221
(dp222
g62
(dp223
g82
g83
ssg71
g217
sg64
(lp224
S'controller'
p225
asbag57
(g78
g59
NtRp226
(dp227
g62
(dp228
g89
g90
ssg71
g217
sg64
(lp229
S':'
asbag57
(g78
g59
NtRp230
(dp231
g62
(dp232
sg71
g217
sg64
(lp233
g57
(g58
g59
NtRp234
(dp235
g62
(dp236
g70
I5
ssg71
g230
sg64
(lp237
S'api'
p238
asbasbasbag57
(g73
g59
NtRp239
(dp240
g62
(dp241
sg71
g67
sg64
(lp242
g57
(g78
g59
NtRp243
(dp244
g62
(dp245
g82
g83
ssg71
g239
sg64
(lp246
S'cookies'
p247
asbag57
(g78
g59
NtRp248
(dp249
g62
(dp250
g89
g90
ssg71
g239
sg64
(lp251
S':'
asbag57
(g78
g59
NtRp252
(dp253
g62
(dp254
sg71
g239
sg64
(lp255
g57
(g58
g59
NtRp256
(dp257
g62
(dp258
g70
I5
ssg71
g252
sg64
(lp259
g57
(g66
g59
NtRp260
(dp261
g62
(dp262
g70
I4
ssg71
Nsg64
(lp263
g57
(g73
g59
NtRp264
(dp265
g62
(dp266
sg71
g260
sg64
(lp267
g57
(g78
g59
NtRp268
(dp269
g62
(dp270
g82
g83
ssg71
g264
sg64
(lp271
S'session_id_admin'
p272
asbag57
(g78
g59
NtRp273
(dp274
g62
(dp275
g89
g90
ssg71
g264
sg64
(lp276
S':'
asbag57
(g78
g59
NtRp277
(dp278
g62
(dp279
sg71
g264
sg64
(lp280
g57
(g58
g59
NtRp281
(dp282
g62
(dp283
g70
I4
ssg71
g277
sg64
(lp284
g57
(g66
g59
NtRp285
(dp286
g62
(dp287
g70
I3
ssg71
Nsg64
(lp288
g57
(g73
g59
NtRp289
(dp290
g62
(dp291
sg71
g285
sg64
(lp292
g57
(g78
g59
NtRp293
(dp294
g62
(dp295
g82
g83
ssg71
g289
sg64
(lp296
S'comment'
p297
asbag57
(g78
g59
NtRp298
(dp299
g62
(dp300
g89
g90
ssg71
g289
sg64
(lp301
S':'
asbag57
(g78
g59
NtRp302
(dp303
g62
(dp304
sg71
g289
sg64
(lp305
g57
(g58
g59
NtRp306
(dp307
g62
(dp308
g70
I3
ssg71
g302
sg64
(lp309
S''
asbasbasbag57
(g73
g59
NtRp310
(dp311
g62
(dp312
sg71
g285
sg64
(lp313
g57
(g78
g59
NtRp314
(dp315
g62
(dp316
g82
g83
ssg71
g310
sg64
(lp317
S'domain'
p318
asbag57
(g78
g59
NtRp319
(dp320
g62
(dp321
g89
g90
ssg71
g310
sg64
(lp322
S':'
asbag57
(g78
g59
NtRp323
(dp324
g62
(dp325
sg71
g310
sg64
(lp326
g57
(g58
g59
NtRp327
(dp328
g62
(dp329
g70
I3
ssg71
g323
sg64
(lp330
S''
asbasbasbag57
(g73
g59
NtRp331
(dp332
g62
(dp333
sg71
g285
sg64
(lp334
g57
(g78
g59
NtRp335
(dp336
g62
(dp337
g82
g83
ssg71
g331
sg64
(lp338
S'expires'
p339
asbag57
(g78
g59
NtRp340
(dp341
g62
(dp342
g89
g90
ssg71
g331
sg64
(lp343
S':'
asbag57
(g78
g59
NtRp344
(dp345
g62
(dp346
sg71
g331
sg64
(lp347
g57
(g58
g59
NtRp348
(dp349
g62
(dp350
g70
I3
ssg71
g344
sg64
(lp351
S''
asbasbasbag57
(g73
g59
NtRp352
(dp353
g62
(dp354
sg71
g285
sg64
(lp355
g57
(g78
g59
NtRp356
(dp357
g62
(dp358
g82
g83
ssg71
g352
sg64
(lp359
S'httponly'
p360
asbag57
(g78
g59
NtRp361
(dp362
g62
(dp363
g89
g90
ssg71
g352
sg64
(lp364
S':'
asbag57
(g78
g59
NtRp365
(dp366
g62
(dp367
sg71
g352
sg64
(lp368
g57
(g58
g59
NtRp369
(dp370
g62
(dp371
g70
I3
ssg71
g365
sg64
(lp372
S''
asbasbasbag57
(g73
g59
NtRp373
(dp374
g62
(dp375
sg71
g285
sg64
(lp376
g57
(g78
g59
NtRp377
(dp378
g62
(dp379
g82
g83
ssg71
g373
sg64
(lp380
S'max-age'
p381
asbag57
(g78
g59
NtRp382
(dp383
g62
(dp384
g89
g90
ssg71
g373
sg64
(lp385
S':'
asbag57
(g78
g59
NtRp386
(dp387
g62
(dp388
sg71
g373
sg64
(lp389
g57
(g58
g59
NtRp390
(dp391
g62
(dp392
g70
I3
ssg71
g386
sg64
(lp393
S''
asbasbasbag57
(g73
g59
NtRp394
(dp395
g62
(dp396
sg71
g285
sg64
(lp397
g57
(g78
g59
NtRp398
(dp399
g62
(dp400
g82
g83
ssg71
g394
sg64
(lp401
S'path'
p402
asbag57
(g78
g59
NtRp403
(dp404
g62
(dp405
g89
g90
ssg71
g394
sg64
(lp406
S':'
asbag57
(g78
g59
NtRp407
(dp408
g62
(dp409
sg71
g394
sg64
(lp410
g57
(g58
g59
NtRp411
(dp412
g62
(dp413
g70
I3
ssg71
g407
sg64
(lp414
S''
asbasbasbag57
(g73
g59
NtRp415
(dp416
g62
(dp417
sg71
g285
sg64
(lp418
g57
(g78
g59
NtRp419
(dp420
g62
(dp421
g82
g83
ssg71
g415
sg64
(lp422
S'secure'
p423
asbag57
(g78
g59
NtRp424
(dp425
g62
(dp426
g89
g90
ssg71
g415
sg64
(lp427
S':'
asbag57
(g78
g59
NtRp428
(dp429
g62
(dp430
sg71
g415
sg64
(lp431
g57
(g58
g59
NtRp432
(dp433
g62
(dp434
g70
I3
ssg71
g428
sg64
(lp435
S''
asbasbasbag57
(g73
g59
NtRp436
(dp437
g62
(dp438
sg71
g285
sg64
(lp439
g57
(g78
g59
NtRp440
(dp441
g62
(dp442
g82
g83
ssg71
g436
sg64
(lp443
S'version'
p444
asbag57
(g78
g59
NtRp445
(dp446
g62
(dp447
g89
g90
ssg71
g436
sg64
(lp448
S':'
asbag57
(g78
g59
NtRp449
(dp450
g62
(dp451
sg71
g436
sg64
(lp452
g57
(g58
g59
NtRp453
(dp454
g62
(dp455
g70
I3
ssg71
g449
sg64
(lp456
S''
asbasbasbasbasbasbasbag57
(g73
g59
NtRp457
(dp458
g62
(dp459
sg71
g260
sg64
(lp460
g57
(g78
g59
NtRp461
(dp462
g62
(dp463
g82
g83
ssg71
g457
sg64
(lp464
S'session_id_telefam'
p465
asbag57
(g78
g59
NtRp466
(dp467
g62
(dp468
g89
g90
ssg71
g457
sg64
(lp469
S':'
asbag57
(g78
g59
NtRp470
(dp471
g62
(dp472
sg71
g457
sg64
(lp473
g57
(g58
g59
NtRp474
(dp475
g62
(dp476
g70
I4
ssg71
g470
sg64
(lp477
g57
(g66
g59
NtRp478
(dp479
g62
(dp480
g70
I3
ssg71
Nsg64
(lp481
g57
(g73
g59
NtRp482
(dp483
g62
(dp484
sg71
g478
sg64
(lp485
g57
(g78
g59
NtRp486
(dp487
g62
(dp488
g82
g83
ssg71
g482
sg64
(lp489
g297
asbag57
(g78
g59
NtRp490
(dp491
g62
(dp492
g89
g90
ssg71
g482
sg64
(lp493
S':'
asbag57
(g78
g59
NtRp494
(dp495
g62
(dp496
sg71
g482
sg64
(lp497
g57
(g58
g59
NtRp498
(dp499
g62
(dp500
g70
I3
ssg71
g494
sg64
(lp501
S''
asbasbasbag57
(g73
g59
NtRp502
(dp503
g62
(dp504
sg71
g478
sg64
(lp505
g57
(g78
g59
NtRp506
(dp507
g62
(dp508
g82
g83
ssg71
g502
sg64
(lp509
g318
asbag57
(g78
g59
NtRp510
(dp511
g62
(dp512
g89
g90
ssg71
g502
sg64
(lp513
S':'
asbag57
(g78
g59
NtRp514
(dp515
g62
(dp516
sg71
g502
sg64
(lp517
g57
(g58
g59
NtRp518
(dp519
g62
(dp520
g70
I3
ssg71
g514
sg64
(lp521
S''
asbasbasbag57
(g73
g59
NtRp522
(dp523
g62
(dp524
sg71
g478
sg64
(lp525
g57
(g78
g59
NtRp526
(dp527
g62
(dp528
g82
g83
ssg71
g522
sg64
(lp529
g339
asbag57
(g78
g59
NtRp530
(dp531
g62
(dp532
g89
g90
ssg71
g522
sg64
(lp533
S':'
asbag57
(g78
g59
NtRp534
(dp535
g62
(dp536
sg71
g522
sg64
(lp537
g57
(g58
g59
NtRp538
(dp539
g62
(dp540
g70
I3
ssg71
g534
sg64
(lp541
S''
asbasbasbag57
(g73
g59
NtRp542
(dp543
g62
(dp544
sg71
g478
sg64
(lp545
g57
(g78
g59
NtRp546
(dp547
g62
(dp548
g82
g83
ssg71
g542
sg64
(lp549
g360
asbag57
(g78
g59
NtRp550
(dp551
g62
(dp552
g89
g90
ssg71
g542
sg64
(lp553
S':'
asbag57
(g78
g59
NtRp554
(dp555
g62
(dp556
sg71
g542
sg64
(lp557
g57
(g58
g59
NtRp558
(dp559
g62
(dp560
g70
I3
ssg71
g554
sg64
(lp561
S''
asbasbasbag57
(g73
g59
NtRp562
(dp563
g62
(dp564
sg71
g478
sg64
(lp565
g57
(g78
g59
NtRp566
(dp567
g62
(dp568
g82
g83
ssg71
g562
sg64
(lp569
g381
asbag57
(g78
g59
NtRp570
(dp571
g62
(dp572
g89
g90
ssg71
g562
sg64
(lp573
S':'
asbag57
(g78
g59
NtRp574
(dp575
g62
(dp576
sg71
g562
sg64
(lp577
g57
(g58
g59
NtRp578
(dp579
g62
(dp580
g70
I3
ssg71
g574
sg64
(lp581
S''
asbasbasbag57
(g73
g59
NtRp582
(dp583
g62
(dp584
sg71
g478
sg64
(lp585
g57
(g78
g59
NtRp586
(dp587
g62
(dp588
g82
g83
ssg71
g582
sg64
(lp589
g402
asbag57
(g78
g59
NtRp590
(dp591
g62
(dp592
g89
g90
ssg71
g582
sg64
(lp593
S':'
asbag57
(g78
g59
NtRp594
(dp595
g62
(dp596
sg71
g582
sg64
(lp597
g57
(g58
g59
NtRp598
(dp599
g62
(dp600
g70
I3
ssg71
g594
sg64
(lp601
S''
asbasbasbag57
(g73
g59
NtRp602
(dp603
g62
(dp604
sg71
g478
sg64
(lp605
g57
(g78
g59
NtRp606
(dp607
g62
(dp608
g82
g83
ssg71
g602
sg64
(lp609
g423
asbag57
(g78
g59
NtRp610
(dp611
g62
(dp612
g89
g90
ssg71
g602
sg64
(lp613
S':'
asbag57
(g78
g59
NtRp614
(dp615
g62
(dp616
sg71
g602
sg64
(lp617
g57
(g58
g59
NtRp618
(dp619
g62
(dp620
g70
I3
ssg71
g614
sg64
(lp621
S''
asbasbasbag57
(g73
g59
NtRp622
(dp623
g62
(dp624
sg71
g478
sg64
(lp625
g57
(g78
g59
NtRp626
(dp627
g62
(dp628
g82
g83
ssg71
g622
sg64
(lp629
g444
asbag57
(g78
g59
NtRp630
(dp631
g62
(dp632
g89
g90
ssg71
g622
sg64
(lp633
S':'
asbag57
(g78
g59
NtRp634
(dp635
g62
(dp636
sg71
g622
sg64
(lp637
g57
(g58
g59
NtRp638
(dp639
g62
(dp640
g70
I3
ssg71
g634
sg64
(lp641
S''
asbasbasbasbasbasbasbasbasbasbasbag57
(g73
g59
NtRp642
(dp643
g62
(dp644
sg71
g67
sg64
(lp645
g57
(g78
g59
NtRp646
(dp647
g62
(dp648
g82
g83
ssg71
g642
sg64
(lp649
S'env'
p650
asbag57
(g78
g59
NtRp651
(dp652
g62
(dp653
g89
g90
ssg71
g642
sg64
(lp654
S':'
asbag57
(g78
g59
NtRp655
(dp656
g62
(dp657
sg71
g642
sg64
(lp658
g57
(g58
g59
NtRp659
(dp660
g62
(dp661
g70
I5
ssg71
g655
sg64
(lp662
g57
(g66
g59
NtRp663
(dp664
g62
(dp665
g70
I4
ssg71
Nsg64
(lp666
g57
(g73
g59
NtRp667
(dp668
g62
(dp669
sg71
g663
sg64
(lp670
g57
(g78
g59
NtRp671
(dp672
g62
(dp673
g82
g83
ssg71
g667
sg64
(lp674
S'app_folders'
p675
asbag57
(g78
g59
NtRp676
(dp677
g62
(dp678
g89
g90
ssg71
g667
sg64
(lp679
S':'
asbag57
(g78
g59
NtRp680
(dp681
g62
(dp682
sg71
g667
sg64
(lp683
g57
(g58
g59
NtRp684
(dp685
g62
(dp686
g70
I4
ssg71
g680
sg64
(lp687
S"set(['/home/alfem/alfem/prog/telefam/server/web2py/applications/examples/', '/home/alfem/alfem/prog/telefam/server/web2py/applications/admin/', '/home/alfem/alfem/prog/telefam/server/web2py/applications/welcome/', '/home/alfem/alfem/prog/telefam/server/web2py/applications/telefam/'])"
p688
asbasbasbag57
(g73
g59
NtRp689
(dp690
g62
(dp691
sg71
g663
sg64
(lp692
g57
(g78
g59
NtRp693
(dp694
g62
(dp695
g82
g83
ssg71
g689
sg64
(lp696
S'applications_parent'
p697
asbag57
(g78
g59
NtRp698
(dp699
g62
(dp700
g89
g90
ssg71
g689
sg64
(lp701
S':'
asbag57
(g78
g59
NtRp702
(dp703
g62
(dp704
sg71
g689
sg64
(lp705
g57
(g58
g59
NtRp706
(dp707
g62
(dp708
g70
I4
ssg71
g702
sg64
(lp709
S'/home/alfem/alfem/prog/telefam/server/web2py'
p710
asbasbasbag57
(g73
g59
NtRp711
(dp712
g62
(dp713
sg71
g663
sg64
(lp714
g57
(g78
g59
NtRp715
(dp716
g62
(dp717
g82
g83
ssg71
g711
sg64
(lp718
S'cmd_args'
p719
asbag57
(g78
g59
NtRp720
(dp721
g62
(dp722
g89
g90
ssg71
g711
sg64
(lp723
S':'
asbag57
(g78
g59
NtRp724
(dp725
g62
(dp726
sg71
g711
sg64
(lp727
g57
(g58
g59
NtRp728
(dp729
g62
(dp730
g70
I4
ssg71
g724
sg64
(lp731
g57
(g66
g59
NtRp732
(dp733
g62
(dp734
g70
I3
ssg71
Nsg64
(lp735
sbasbasbasbag57
(g73
g59
NtRp736
(dp737
g62
(dp738
sg71
g663
sg64
(lp739
g57
(g78
g59
NtRp740
(dp741
g62
(dp742
g82
g83
ssg71
g736
sg64
(lp743
S'cmd_options'
p744
asbag57
(g78
g59
NtRp745
(dp746
g62
(dp747
g89
g90
ssg71
g736
sg64
(lp748
S':'
asbag57
(g78
g59
NtRp749
(dp750
g62
(dp751
sg71
g736
sg64
(lp752
g57
(g58
g59
NtRp753
(dp754
g62
(dp755
g70
I4
ssg71
g749
sg64
(lp756
S"<Values at 0x946c20c: {'verbose': False, 'ip': '127.0.0.1', 'shutdown_timeout': 5, 'taskbar': False, 'nocron': False, 'pid_filename': 'httpserver.pid', 'maxthreads': None, 'softcron': False, 'server_name': 'acala', 'bpython': False, 'nogui': False, 'port': 8000, 'extcron': False, 'debuglevel': 30, 'test': None, 'folder': '/home/alfem/alfem/prog/telefam/server/web2py', 'config': '', 'import_models': False, 'winservice': '', 'shell': None, 'run': '', 'log_filename': 'httpserver.log', 'args': [''], 'socket_timeout': 5, 'ssl_ca_certificate': None, 'scheduler': None, 'profiler_filename': None, 'ssl_private_key': '', 'password': '1234', 'request_queue_size': 5, 'ssl_certificate': '', 'cronjob': False, 'numthreads': None, 'quiet': False, 'interfaces': None, 'minthreads': None, 'timeout': 10, 'plain': False, 'nobanner': False}>"
p757
asbasbasbag57
(g73
g59
NtRp758
(dp759
g62
(dp760
sg71
g663
sg64
(lp761
g57
(g78
g59
NtRp762
(dp763
g62
(dp764
g82
g83
ssg71
g758
sg64
(lp765
S'db_sessions'
p766
asbag57
(g78
g59
NtRp767
(dp768
g62
(dp769
g89
g90
ssg71
g758
sg64
(lp770
S':'
asbag57
(g78
g59
NtRp771
(dp772
g62
(dp773
sg71
g758
sg64
(lp774
g57
(g58
g59
NtRp775
(dp776
g62
(dp777
g70
I4
ssg71
g771
sg64
(lp778
S'set([])'
p779
asbasbasbag57
(g73
g59
NtRp780
(dp781
g62
(dp782
sg71
g663
sg64
(lp783
g57
(g78
g59
NtRp784
(dp785
g62
(dp786
g82
g83
ssg71
g780
sg64
(lp787
S'debugging'
p788
asbag57
(g78
g59
NtRp789
(dp790
g62
(dp791
g89
g90
ssg71
g780
sg64
(lp792
S':'
asbag57
(g78
g59
NtRp793
(dp794
g62
(dp795
sg71
g780
sg64
(lp796
g57
(g58
g59
NtRp797
(dp798
g62
(dp799
g70
I4
ssg71
g793
sg64
(lp800
g100
asbasbasbag57
(g73
g59
NtRp801
(dp802
g62
(dp803
sg71
g663
sg64
(lp804
g57
(g78
g59
NtRp805
(dp806
g62
(dp807
g82
g83
ssg71
g801
sg64
(lp808
S'gluon_parent'
p809
asbag57
(g78
g59
NtRp810
(dp811
g62
(dp812
g89
g90
ssg71
g801
sg64
(lp813
S':'
asbag57
(g78
g59
NtRp814
(dp815
g62
(dp816
sg71
g801
sg64
(lp817
g57
(g58
g59
NtRp818
(dp819
g62
(dp820
g70
I4
ssg71
g814
sg64
(lp821
S'/home/alfem/alfem/prog/telefam/server/web2py'
p822
asbasbasbag57
(g73
g59
NtRp823
(dp824
g62
(dp825
sg71
g663
sg64
(lp826
g57
(g78
g59
NtRp827
(dp828
g62
(dp829
g82
g83
ssg71
g823
sg64
(lp830
S'http_accept'
p831
asbag57
(g78
g59
NtRp832
(dp833
g62
(dp834
g89
g90
ssg71
g823
sg64
(lp835
S':'
asbag57
(g78
g59
NtRp836
(dp837
g62
(dp838
sg71
g823
sg64
(lp839
g57
(g58
g59
NtRp840
(dp841
g62
(dp842
g70
I4
ssg71
g836
sg64
(lp843
S'text/html,application/xhtml+xml,application/xml;q=0.9,*/*;q=0.8'
p844
asbasbasbag57
(g73
g59
NtRp845
(dp846
g62
(dp847
sg71
g663
sg64
(lp848
g57
(g78
g59
NtRp849
(dp850
g62
(dp851
g82
g83
ssg71
g845
sg64
(lp852
S'http_accept_charset'
p853
asbag57
(g78
g59
NtRp854
(dp855
g62
(dp856
g89
g90
ssg71
g845
sg64
(lp857
S':'
asbag57
(g78
g59
NtRp858
(dp859
g62
(dp860
sg71
g845
sg64
(lp861
g57
(g58
g59
NtRp862
(dp863
g62
(dp864
g70
I4
ssg71
g858
sg64
(lp865
S'ISO-8859-1,utf-8;q=0.7,*;q=0.7'
p866
asbasbasbag57
(g73
g59
NtRp867
(dp868
g62
(dp869
sg71
g663
sg64
(lp870
g57
(g78
g59
NtRp871
(dp872
g62
(dp873
g82
g83
ssg71
g867
sg64
(lp874
S'http_accept_encoding'
p875
asbag57
(g78
g59
NtRp876
(dp877
g62
(dp878
g89
g90
ssg71
g867
sg64
(lp879
S':'
asbag57
(g78
g59
NtRp880
(dp881
g62
(dp882
sg71
g867
sg64
(lp883
g57
(g58
g59
NtRp884
(dp885
g62
(dp886
g70
I4
ssg71
g880
sg64
(lp887
S'gzip, deflate'
p888
asbasbasbag57
(g73
g59
NtRp889
(dp890
g62
(dp891
sg71
g663
sg64
(lp892
g57
(g78
g59
NtRp893
(dp894
g62
(dp895
g82
g83
ssg71
g889
sg64
(lp896
S'http_accept_language'
p897
asbag57
(g78
g59
NtRp898
(dp899
g62
(dp900
g89
g90
ssg71
g889
sg64
(lp901
S':'
asbag57
(g78
g59
NtRp902
(dp903
g62
(dp904
sg71
g889
sg64
(lp905
g57
(g58
g59
NtRp906
(dp907
g62
(dp908
g70
I4
ssg71
g902
sg64
(lp909
S'es-es,es;q=0.8,en-us;q=0.5,en;q=0.3'
p910
asbasbasbag57
(g73
g59
NtRp911
(dp912
g62
(dp913
sg71
g663
sg64
(lp914
g57
(g78
g59
NtRp915
(dp916
g62
(dp917
g82
g83
ssg71
g911
sg64
(lp918
S'http_cache_control'
p919
asbag57
(g78
g59
NtRp920
(dp921
g62
(dp922
g89
g90
ssg71
g911
sg64
(lp923
S':'
asbag57
(g78
g59
NtRp924
(dp925
g62
(dp926
sg71
g911
sg64
(lp927
g57
(g58
g59
NtRp928
(dp929
g62
(dp930
g70
I4
ssg71
g924
sg64
(lp931
S'max-age=0'
p932
asbasbasbag57
(g73
g59
NtRp933
(dp934
g62
(dp935
sg71
g663
sg64
(lp936
g57
(g78
g59
NtRp937
(dp938
g62
(dp939
g82
g83
ssg71
g933
sg64
(lp940
S'http_connection'
p941
asbag57
(g78
g59
NtRp942
(dp943
g62
(dp944
g89
g90
ssg71
g933
sg64
(lp945
S':'
asbag57
(g78
g59
NtRp946
(dp947
g62
(dp948
sg71
g933
sg64
(lp949
g57
(g58
g59
NtRp950
(dp951
g62
(dp952
g70
I4
ssg71
g946
sg64
(lp953
S'keep-alive'
p954
asbasbasbag57
(g73
g59
NtRp955
(dp956
g62
(dp957
sg71
g663
sg64
(lp958
g57
(g78
g59
NtRp959
(dp960
g62
(dp961
g82
g83
ssg71
g955
sg64
(lp962
S'http_cookie'
p963
asbag57
(g78
g59
NtRp964
(dp965
g62
(dp966
g89
g90
ssg71
g955
sg64
(lp967
S':'
asbag57
(g78
g59
NtRp968
(dp969
g62
(dp970
sg71
g955
sg64
(lp971
g57
(g58
g59
NtRp972
(dp973
g62
(dp974
g70
I4
ssg71
g968
sg64
(lp975
S'session_id_telefam=127.0.0.1-f7f620a6-fd63-4f72-b11a-b8325669ccbf; session_id_admin=127.0.0.1-5206745e-be3c-42d6-877d-ed8e8286d258'
p976
asbasbasbag57
(g73
g59
NtRp977
(dp978
g62
(dp979
sg71
g663
sg64
(lp980
g57
(g78
g59
NtRp981
(dp982
g62
(dp983
g82
g83
ssg71
g977
sg64
(lp984
S'http_host'
p985
asbag57
(g78
g59
NtRp986
(dp987
g62
(dp988
g89
g90
ssg71
g977
sg64
(lp989
S':'
asbag57
(g78
g59
NtRp990
(dp991
g62
(dp992
sg71
g977
sg64
(lp993
g57
(g58
g59
NtRp994
(dp995
g62
(dp996
g70
I4
ssg71
g990
sg64
(lp997
S'127.0.0.1:8000'
p998
asbasbasbag57
(g73
g59
NtRp999
(dp1000
g62
(dp1001
sg71
g663
sg64
(lp1002
g57
(g78
g59
NtRp1003
(dp1004
g62
(dp1005
g82
g83
ssg71
g999
sg64
(lp1006
S'http_user_agent'
p1007
asbag57
(g78
g59
NtRp1008
(dp1009
g62
(dp1010
g89
g90
ssg71
g999
sg64
(lp1011
S':'
asbag57
(g78
g59
NtRp1012
(dp1013
g62
(dp1014
sg71
g999
sg64
(lp1015
g57
(g58
g59
NtRp1016
(dp1017
g62
(dp1018
g70
I4
ssg71
g1012
sg64
(lp1019
S'Mozilla/5.0 (Ubuntu; X11; Linux i686; rv:8.0) Gecko/20100101 Firefox/8.0'
p1020
asbasbasbag57
(g73
g59
NtRp1021
(dp1022
g62
(dp1023
sg71
g663
sg64
(lp1024
g57
(g78
g59
NtRp1025
(dp1026
g62
(dp1027
g82
g83
ssg71
g1021
sg64
(lp1028
S'is_jython'
p1029
asbag57
(g78
g59
NtRp1030
(dp1031
g62
(dp1032
g89
g90
ssg71
g1021
sg64
(lp1033
S':'
asbag57
(g78
g59
NtRp1034
(dp1035
g62
(dp1036
sg71
g1021
sg64
(lp1037
g57
(g58
g59
NtRp1038
(dp1039
g62
(dp1040
g70
I4
ssg71
g1034
sg64
(lp1041
g100
asbasbasbag57
(g73
g59
NtRp1042
(dp1043
g62
(dp1044
sg71
g663
sg64
(lp1045
g57
(g78
g59
NtRp1046
(dp1047
g62
(dp1048
g82
g83
ssg71
g1042
sg64
(lp1049
S'is_pypy'
p1050
asbag57
(g78
g59
NtRp1051
(dp1052
g62
(dp1053
g89
g90
ssg71
g1042
sg64
(lp1054
S':'
asbag57
(g78
g59
NtRp1055
(dp1056
g62
(dp1057
sg71
g1042
sg64
(lp1058
g57
(g58
g59
NtRp1059
(dp1060
g62
(dp1061
g70
I4
ssg71
g1055
sg64
(lp1062
g100
asbasbasbag57
(g73
g59
NtRp1063
(dp1064
g62
(dp1065
sg71
g663
sg64
(lp1066
g57
(g78
g59
NtRp1067
(dp1068
g62
(dp1069
g82
g83
ssg71
g1063
sg64
(lp1070
S'path_info'
p1071
asbag57
(g78
g59
NtRp1072
(dp1073
g62
(dp1074
g89
g90
ssg71
g1063
sg64
(lp1075
S':'
asbag57
(g78
g59
NtRp1076
(dp1077
g62
(dp1078
sg71
g1063
sg64
(lp1079
g57
(g58
g59
NtRp1080
(dp1081
g62
(dp1082
g70
I4
ssg71
g1076
sg64
(lp1083
S'/telefam/api/call/json/get_message'
p1084
asbasbasbag57
(g73
g59
NtRp1085
(dp1086
g62
(dp1087
sg71
g663
sg64
(lp1088
g57
(g78
g59
NtRp1089
(dp1090
g62
(dp1091
g82
g83
ssg71
g1085
sg64
(lp1092
S'query_string'
p1093
asbag57
(g78
g59
NtRp1094
(dp1095
g62
(dp1096
g89
g90
ssg71
g1085
sg64
(lp1097
S':'
asbag57
(g78
g59
NtRp1098
(dp1099
g62
(dp1100
sg71
g1085
sg64
(lp1101
g57
(g58
g59
NtRp1102
(dp1103
g62
(dp1104
g70
I4
ssg71
g1098
sg64
(lp1105
S'key=raspberry314&id=3'
p1106
asbasbasbag57
(g73
g59
NtRp1107
(dp1108
g62
(dp1109
sg71
g663
sg64
(lp1110
g57
(g78
g59
NtRp1111
(dp1112
g62
(dp1113
g82
g83
ssg71
g1107
sg64
(lp1114
S'remote_addr'
p1115
asbag57
(g78
g59
NtRp1116
(dp1117
g62
(dp1118
g89
g90
ssg71
g1107
sg64
(lp1119
S':'
asbag57
(g78
g59
NtRp1120
(dp1121
g62
(dp1122
sg71
g1107
sg64
(lp1123
g57
(g58
g59
NtRp1124
(dp1125
g62
(dp1126
g70
I4
ssg71
g1120
sg64
(lp1127
g216
asbasbasbag57
(g73
g59
NtRp1128
(dp1129
g62
(dp1130
sg71
g663
sg64
(lp1131
g57
(g78
g59
NtRp1132
(dp1133
g62
(dp1134
g82
g83
ssg71
g1128
sg64
(lp1135
S'remote_port'
p1136
asbag57
(g78
g59
NtRp1137
(dp1138
g62
(dp1139
g89
g90
ssg71
g1128
sg64
(lp1140
S':'
asbag57
(g78
g59
NtRp1141
(dp1142
g62
(dp1143
sg71
g1128
sg64
(lp1144
g57
(g58
g59
NtRp1145
(dp1146
g62
(dp1147
g70
I4
ssg71
g1141
sg64
(lp1148
S'35693'
p1149
asbasbasbag57
(g73
g59
NtRp1150
(dp1151
g62
(dp1152
sg71
g663
sg64
(lp1153
g57
(g78
g59
NtRp1154
(dp1155
g62
(dp1156
g82
g83
ssg71
g1150
sg64
(lp1157
S'request_method'
p1158
asbag57
(g78
g59
NtRp1159
(dp1160
g62
(dp1161
g89
g90
ssg71
g1150
sg64
(lp1162
S':'
asbag57
(g78
g59
NtRp1163
(dp1164
g62
(dp1165
sg71
g1150
sg64
(lp1166
g57
(g58
g59
NtRp1167
(dp1168
g62
(dp1169
g70
I4
ssg71
g1163
sg64
(lp1170
S'GET'
p1171
asbasbasbag57
(g73
g59
NtRp1172
(dp1173
g62
(dp1174
sg71
g663
sg64
(lp1175
g57
(g78
g59
NtRp1176
(dp1177
g62
(dp1178
g82
g83
ssg71
g1172
sg64
(lp1179
S'script_name'
p1180
asbag57
(g78
g59
NtRp1181
(dp1182
g62
(dp1183
g89
g90
ssg71
g1172
sg64
(lp1184
S':'
asbag57
(g78
g59
NtRp1185
(dp1186
g62
(dp1187
sg71
g1172
sg64
(lp1188
g57
(g58
g59
NtRp1189
(dp1190
g62
(dp1191
g70
I4
ssg71
g1185
sg64
(lp1192
S''
asbasbasbag57
(g73
g59
NtRp1193
(dp1194
g62
(dp1195
sg71
g663
sg64
(lp1196
g57
(g78
g59
NtRp1197
(dp1198
g62
(dp1199
g82
g83
ssg71
g1193
sg64
(lp1200
S'server_name'
p1201
asbag57
(g78
g59
NtRp1202
(dp1203
g62
(dp1204
g89
g90
ssg71
g1193
sg64
(lp1205
S':'
asbag57
(g78
g59
NtRp1206
(dp1207
g62
(dp1208
sg71
g1193
sg64
(lp1209
g57
(g58
g59
NtRp1210
(dp1211
g62
(dp1212
g70
I4
ssg71
g1206
sg64
(lp1213
S'acala'
p1214
asbasbasbag57
(g73
g59
NtRp1215
(dp1216
g62
(dp1217
sg71
g663
sg64
(lp1218
g57
(g78
g59
NtRp1219
(dp1220
g62
(dp1221
g82
g83
ssg71
g1215
sg64
(lp1222
S'server_port'
p1223
asbag57
(g78
g59
NtRp1224
(dp1225
g62
(dp1226
g89
g90
ssg71
g1215
sg64
(lp1227
S':'
asbag57
(g78
g59
NtRp1228
(dp1229
g62
(dp1230
sg71
g1215
sg64
(lp1231
g57
(g58
g59
NtRp1232
(dp1233
g62
(dp1234
g70
I4
ssg71
g1228
sg64
(lp1235
S'8000'
p1236
asbasbasbag57
(g73
g59
NtRp1237
(dp1238
g62
(dp1239
sg71
g663
sg64
(lp1240
g57
(g78
g59
NtRp1241
(dp1242
g62
(dp1243
g82
g83
ssg71
g1237
sg64
(lp1244
S'server_protocol'
p1245
asbag57
(g78
g59
NtRp1246
(dp1247
g62
(dp1248
g89
g90
ssg71
g1237
sg64
(lp1249
S':'
asbag57
(g78
g59
NtRp1250
(dp1251
g62
(dp1252
sg71
g1237
sg64
(lp1253
g57
(g58
g59
NtRp1254
(dp1255
g62
(dp1256
g70
I4
ssg71
g1250
sg64
(lp1257
S'HTTP/1.1'
p1258
asbasbasbag57
(g73
g59
NtRp1259
(dp1260
g62
(dp1261
sg71
g663
sg64
(lp1262
g57
(g78
g59
NtRp1263
(dp1264
g62
(dp1265
g82
g83
ssg71
g1259
sg64
(lp1266
S'server_software'
p1267
asbag57
(g78
g59
NtRp1268
(dp1269
g62
(dp1270
g89
g90
ssg71
g1259
sg64
(lp1271
S':'
asbag57
(g78
g59
NtRp1272
(dp1273
g62
(dp1274
sg71
g1259
sg64
(lp1275
g57
(g58
g59
NtRp1276
(dp1277
g62
(dp1278
g70
I4
ssg71
g1272
sg64
(lp1279
S'Rocket 1.2.4'
p1280
asbasbasbag57
(g73
g59
NtRp1281
(dp1282
g62
(dp1283
sg71
g663
sg64
(lp1284
g57
(g78
g59
NtRp1285
(dp1286
g62
(dp1287
g82
g83
ssg71
g1281
sg64
(lp1288
S'web2py_crontype'
p1289
asbag57
(g78
g59
NtRp1290
(dp1291
g62
(dp1292
g89
g90
ssg71
g1281
sg64
(lp1293
S':'
asbag57
(g78
g59
NtRp1294
(dp1295
g62
(dp1296
sg71
g1281
sg64
(lp1297
g57
(g58
g59
NtRp1298
(dp1299
g62
(dp1300
g70
I4
ssg71
g1294
sg64
(lp1301
S'hard'
p1302
asbasbasbag57
(g73
g59
NtRp1303
(dp1304
g62
(dp1305
sg71
g663
sg64
(lp1306
g57
(g78
g59
NtRp1307
(dp1308
g62
(dp1309
g82
g83
ssg71
g1303
sg64
(lp1310
S'web2py_path'
p1311
asbag57
(g78
g59
NtRp1312
(dp1313
g62
(dp1314
g89
g90
ssg71
g1303
sg64
(lp1315
S':'
asbag57
(g78
g59
NtRp1316
(dp1317
g62
(dp1318
sg71
g1303
sg64
(lp1319
g57
(g58
g59
NtRp1320
(dp1321
g62
(dp1322
g70
I4
ssg71
g1316
sg64
(lp1323
g710
asbasbasbag57
(g73
g59
NtRp1324
(dp1325
g62
(dp1326
sg71
g663
sg64
(lp1327
g57
(g78
g59
NtRp1328
(dp1329
g62
(dp1330
g82
g83
ssg71
g1324
sg64
(lp1331
S'web2py_version'
p1332
asbag57
(g78
g59
NtRp1333
(dp1334
g62
(dp1335
g89
g90
ssg71
g1324
sg64
(lp1336
S':'
asbag57
(g78
g59
NtRp1337
(dp1338
g62
(dp1339
sg71
g1324
sg64
(lp1340
g57
(g58
g59
NtRp1341
(dp1342
g62
(dp1343
g70
I4
ssg71
g1337
sg64
(lp1344
g57
(g66
g59
NtRp1345
(dp1346
g62
(dp1347
g70
I3
ssg71
Nsg64
(lp1348
g57
(g73
g59
NtRp1349
(dp1350
g62
(dp1351
sg71
g1345
sg64
(lp1352
g57
(g78
g59
NtRp1353
(dp1354
g62
(dp1355
sg71
g1349
sg64
(lp1356
g57
(g58
g59
NtRp1357
(dp1358
g62
(dp1359
g70
I3
ssg71
g1353
sg64
(lp1360
S'1'
asbasbasbag57
(g73
g59
NtRp1361
(dp1362
g62
(dp1363
sg71
g1345
sg64
(lp1364
g57
(g78
g59
NtRp1365
(dp1366
g62
(dp1367
sg71
g1361
sg64
(lp1368
g57
(g58
g59
NtRp1369
(dp1370
g62
(dp1371
g70
I3
ssg71
g1365
sg64
(lp1372
S'99'
p1373
asbasbasbag57
(g73
g59
NtRp1374
(dp1375
g62
(dp1376
sg71
g1345
sg64
(lp1377
g57
(g78
g59
NtRp1378
(dp1379
g62
(dp1380
sg71
g1374
sg64
(lp1381
g57
(g58
g59
NtRp1382
(dp1383
g62
(dp1384
g70
I3
ssg71
g1378
sg64
(lp1385
S'7'
asbasbasbag57
(g73
g59
NtRp1386
(dp1387
g62
(dp1388
sg71
g1345
sg64
(lp1389
g57
(g78
g59
NtRp1390
(dp1391
g62
(dp1392
sg71
g1386
sg64
(lp1393
g57
(g58
g59
NtRp1394
(dp1395
g62
(dp1396
g70
I3
ssg71
g1390
sg64
(lp1397
S'datetime.datetime(2012, 3, 4, 22, 12, 8)'
p1398
asbasbasbag57
(g73
g59
NtRp1399
(dp1400
g62
(dp1401
sg71
g1345
sg64
(lp1402
g57
(g78
g59
NtRp1403
(dp1404
g62
(dp1405
sg71
g1399
sg64
(lp1406
g57
(g58
g59
NtRp1407
(dp1408
g62
(dp1409
g70
I3
ssg71
g1403
sg64
(lp1410
S'stable'
p1411
asbasbasbasbasbasbasbag57
(g73
g59
NtRp1412
(dp1413
g62
(dp1414
sg71
g663
sg64
(lp1415
g57
(g78
g59
NtRp1416
(dp1417
g62
(dp1418
g82
g83
ssg71
g1412
sg64
(lp1419
S'wsgi_errors'
p1420
asbag57
(g78
g59
NtRp1421
(dp1422
g62
(dp1423
g89
g90
ssg71
g1412
sg64
(lp1424
S':'
asbag57
(g78
g59
NtRp1425
(dp1426
g62
(dp1427
sg71
g1412
sg64
(lp1428
g57
(g58
g59
NtRp1429
(dp1430
g62
(dp1431
g70
I4
ssg71
g1425
sg64
(lp1432
S"<open file '<stderr>', mode 'w' at 0xb770a0d0>"
p1433
asbasbasbag57
(g73
g59
NtRp1434
(dp1435
g62
(dp1436
sg71
g663
sg64
(lp1437
g57
(g78
g59
NtRp1438
(dp1439
g62
(dp1440
g82
g83
ssg71
g1434
sg64
(lp1441
S'wsgi_file_wrapper'
p1442
asbag57
(g78
g59
NtRp1443
(dp1444
g62
(dp1445
g89
g90
ssg71
g1434
sg64
(lp1446
S':'
asbag57
(g78
g59
NtRp1447
(dp1448
g62
(dp1449
sg71
g1434
sg64
(lp1450
g57
(g58
g59
NtRp1451
(dp1452
g62
(dp1453
g70
I4
ssg71
g1447
sg64
(lp1454
S'<class wsgiref.util.FileWrapper at 0x943be6c>'
p1455
asbasbasbag57
(g73
g59
NtRp1456
(dp1457
g62
(dp1458
sg71
g663
sg64
(lp1459
g57
(g78
g59
NtRp1460
(dp1461
g62
(dp1462
g82
g83
ssg71
g1456
sg64
(lp1463
S'wsgi_input'
p1464
asbag57
(g78
g59
NtRp1465
(dp1466
g62
(dp1467
g89
g90
ssg71
g1456
sg64
(lp1468
S':'
asbag57
(g78
g59
NtRp1469
(dp1470
g62
(dp1471
sg71
g1456
sg64
(lp1472
g57
(g58
g59
NtRp1473
(dp1474
g62
(dp1475
g70
I4
ssg71
g1469
sg64
(lp1476
S'<socket._fileobject object at 0xbe87a6c>'
p1477
asbasbasbag57
(g73
g59
NtRp1478
(dp1479
g62
(dp1480
sg71
g663
sg64
(lp1481
g57
(g78
g59
NtRp1482
(dp1483
g62
(dp1484
g82
g83
ssg71
g1478
sg64
(lp1485
S'wsgi_multiprocess'
p1486
asbag57
(g78
g59
NtRp1487
(dp1488
g62
(dp1489
g89
g90
ssg71
g1478
sg64
(lp1490
S':'
asbag57
(g78
g59
NtRp1491
(dp1492
g62
(dp1493
sg71
g1478
sg64
(lp1494
g57
(g58
g59
NtRp1495
(dp1496
g62
(dp1497
g70
I4
ssg71
g1491
sg64
(lp1498
g100
asbasbasbag57
(g73
g59
NtRp1499
(dp1500
g62
(dp1501
sg71
g663
sg64
(lp1502
g57
(g78
g59
NtRp1503
(dp1504
g62
(dp1505
g82
g83
ssg71
g1499
sg64
(lp1506
S'wsgi_multithread'
p1507
asbag57
(g78
g59
NtRp1508
(dp1509
g62
(dp1510
g89
g90
ssg71
g1499
sg64
(lp1511
S':'
asbag57
(g78
g59
NtRp1512
(dp1513
g62
(dp1514
sg71
g1499
sg64
(lp1515
g57
(g58
g59
NtRp1516
(dp1517
g62
(dp1518
g70
I4
ssg71
g1512
sg64
(lp1519
S'True'
p1520
asbasbasbag57
(g73
g59
NtRp1521
(dp1522
g62
(dp1523
sg71
g663
sg64
(lp1524
g57
(g78
g59
NtRp1525
(dp1526
g62
(dp1527
g82
g83
ssg71
g1521
sg64
(lp1528
S'wsgi_run_once'
p1529
asbag57
(g78
g59
NtRp1530
(dp1531
g62
(dp1532
g89
g90
ssg71
g1521
sg64
(lp1533
S':'
asbag57
(g78
g59
NtRp1534
(dp1535
g62
(dp1536
sg71
g1521
sg64
(lp1537
g57
(g58
g59
NtRp1538
(dp1539
g62
(dp1540
g70
I4
ssg71
g1534
sg64
(lp1541
g100
asbasbasbag57
(g73
g59
NtRp1542
(dp1543
g62
(dp1544
sg71
g663
sg64
(lp1545
g57
(g78
g59
NtRp1546
(dp1547
g62
(dp1548
g82
g83
ssg71
g1542
sg64
(lp1549
S'wsgi_url_scheme'
p1550
asbag57
(g78
g59
NtRp1551
(dp1552
g62
(dp1553
g89
g90
ssg71
g1542
sg64
(lp1554
S':'
asbag57
(g78
g59
NtRp1555
(dp1556
g62
(dp1557
sg71
g1542
sg64
(lp1558
g57
(g58
g59
NtRp1559
(dp1560
g62
(dp1561
g70
I4
ssg71
g1555
sg64
(lp1562
S'http'
p1563
asbasbasbag57
(g73
g59
NtRp1564
(dp1565
g62
(dp1566
sg71
g663
sg64
(lp1567
g57
(g78
g59
NtRp1568
(dp1569
g62
(dp1570
g82
g83
ssg71
g1564
sg64
(lp1571
S'wsgi_version'
p1572
asbag57
(g78
g59
NtRp1573
(dp1574
g62
(dp1575
g89
g90
ssg71
g1564
sg64
(lp1576
S':'
asbag57
(g78
g59
NtRp1577
(dp1578
g62
(dp1579
sg71
g1564
sg64
(lp1580
g57
(g58
g59
NtRp1581
(dp1582
g62
(dp1583
g70
I4
ssg71
g1577
sg64
(lp1584
g57
(g66
g59
NtRp1585
(dp1586
g62
(dp1587
g70
I3
ssg71
Nsg64
(lp1588
g57
(g73
g59
NtRp1589
(dp1590
g62
(dp1591
sg71
g1585
sg64
(lp1592
g57
(g78
g59
NtRp1593
(dp1594
g62
(dp1595
sg71
g1589
sg64
(lp1596
g57
(g58
g59
NtRp1597
(dp1598
g62
(dp1599
g70
I3
ssg71
g1593
sg64
(lp1600
S'1'
asbasbasbag57
(g73
g59
NtRp1601
(dp1602
g62
(dp1603
sg71
g1585
sg64
(lp1604
g57
(g78
g59
NtRp1605
(dp1606
g62
(dp1607
sg71
g1601
sg64
(lp1608
g57
(g58
g59
NtRp1609
(dp1610
g62
(dp1611
g70
I3
ssg71
g1605
sg64
(lp1612
S'0'
asbasbasbasbasbasbasbasbasbasbasbag57
(g73
g59
NtRp1613
(dp1614
g62
(dp1615
sg71
g67
sg64
(lp1616
g57
(g78
g59
NtRp1617
(dp1618
g62
(dp1619
g82
g83
ssg71
g1613
sg64
(lp1620
S'extension'
p1621
asbag57
(g78
g59
NtRp1622
(dp1623
g62
(dp1624
g89
g90
ssg71
g1613
sg64
(lp1625
S':'
asbag57
(g78
g59
NtRp1626
(dp1627
g62
(dp1628
sg71
g1613
sg64
(lp1629
g57
(g58
g59
NtRp1630
(dp1631
g62
(dp1632
g70
I5
ssg71
g1626
sg64
(lp1633
S'html'
p1634
asbasbasbag57
(g73
g59
NtRp1635
(dp1636
g62
(dp1637
sg71
g67
sg64
(lp1638
g57
(g78
g59
NtRp1639
(dp1640
g62
(dp1641
g82
g83
ssg71
g1635
sg64
(lp1642
S'folder'
p1643
asbag57
(g78
g59
NtRp1644
(dp1645
g62
(dp1646
g89
g90
ssg71
g1635
sg64
(lp1647
S':'
asbag57
(g78
g59
NtRp1648
(dp1649
g62
(dp1650
sg71
g1635
sg64
(lp1651
g57
(g58
g59
NtRp1652
(dp1653
g62
(dp1654
g70
I5
ssg71
g1648
sg64
(lp1655
S'/home/alfem/alfem/prog/telefam/server/web2py/applications/telefam/'
p1656
asbasbasbag57
(g73
g59
NtRp1657
(dp1658
g62
(dp1659
sg71
g67
sg64
(lp1660
g57
(g78
g59
NtRp1661
(dp1662
g62
(dp1663
g82
g83
ssg71
g1657
sg64
(lp1664
S'function'
p1665
asbag57
(g78
g59
NtRp1666
(dp1667
g62
(dp1668
g89
g90
ssg71
g1657
sg64
(lp1669
S':'
asbag57
(g78
g59
NtRp1670
(dp1671
g62
(dp1672
sg71
g1657
sg64
(lp1673
g57
(g58
g59
NtRp1674
(dp1675
g62
(dp1676
g70
I5
ssg71
g1670
sg64
(lp1677
S'call'
p1678
asbasbasbag57
(g73
g59
NtRp1679
(dp1680
g62
(dp1681
sg71
g67
sg64
(lp1682
g57
(g78
g59
NtRp1683
(dp1684
g62
(dp1685
g82
g83
ssg71
g1679
sg64
(lp1686
S'get_vars'
p1687
asbag57
(g78
g59
NtRp1688
(dp1689
g62
(dp1690
g89
g90
ssg71
g1679
sg64
(lp1691
S':'
asbag57
(g78
g59
NtRp1692
(dp1693
g62
(dp1694
sg71
g1679
sg64
(lp1695
g57
(g58
g59
NtRp1696
(dp1697
g62
(dp1698
g70
I5
ssg71
g1692
sg64
(lp1699
g57
(g66
g59
NtRp1700
(dp1701
g62
(dp1702
g70
I4
ssg71
Nsg64
(lp1703
g57
(g73
g59
NtRp1704
(dp1705
g62
(dp1706
sg71
g1700
sg64
(lp1707
g57
(g78
g59
NtRp1708
(dp1709
g62
(dp1710
g82
g83
ssg71
g1704
sg64
(lp1711
S'id'
p1712
asbag57
(g78
g59
NtRp1713
(dp1714
g62
(dp1715
g89
g90
ssg71
g1704
sg64
(lp1716
S':'
asbag57
(g78
g59
NtRp1717
(dp1718
g62
(dp1719
sg71
g1704
sg64
(lp1720
g57
(g58
g59
NtRp1721
(dp1722
g62
(dp1723
g70
I4
ssg71
g1717
sg64
(lp1724
S'3'
asbasbasbag57
(g73
g59
NtRp1725
(dp1726
g62
(dp1727
sg71
g1700
sg64
(lp1728
g57
(g78
g59
NtRp1729
(dp1730
g62
(dp1731
g82
g83
ssg71
g1725
sg64
(lp1732
S'key'
p1733
asbag57
(g78
g59
NtRp1734
(dp1735
g62
(dp1736
g89
g90
ssg71
g1725
sg64
(lp1737
S':'
asbag57
(g78
g59
NtRp1738
(dp1739
g62
(dp1740
sg71
g1725
sg64
(lp1741
g57
(g58
g59
NtRp1742
(dp1743
g62
(dp1744
g70
I4
ssg71
g1738
sg64
(lp1745
S'raspberry314'
p1746
asbasbasbasbasbasbasbag57
(g73
g59
NtRp1747
(dp1748
g62
(dp1749
sg71
g67
sg64
(lp1750
g57
(g78
g59
NtRp1751
(dp1752
g62
(dp1753
g82
g83
ssg71
g1747
sg64
(lp1754
S'global_settings'
p1755
asbag57
(g78
g59
NtRp1756
(dp1757
g62
(dp1758
g89
g90
ssg71
g1747
sg64
(lp1759
S':'
asbag57
(g78
g59
NtRp1760
(dp1761
g62
(dp1762
sg71
g1747
sg64
(lp1763
g57
(g58
g59
NtRp1764
(dp1765
g62
(dp1766
g70
I5
ssg71
g1760
sg64
(lp1767
g57
(g66
g59
NtRp1768
(dp1769
g62
(dp1770
g70
I4
ssg71
Nsg64
(lp1771
g57
(g73
g59
NtRp1772
(dp1773
g62
(dp1774
sg71
g1768
sg64
(lp1775
g57
(g78
g59
NtRp1776
(dp1777
g62
(dp1778
g82
g83
ssg71
g1772
sg64
(lp1779
g675
asbag57
(g78
g59
NtRp1780
(dp1781
g62
(dp1782
g89
g90
ssg71
g1772
sg64
(lp1783
S':'
asbag57
(g78
g59
NtRp1784
(dp1785
g62
(dp1786
sg71
g1772
sg64
(lp1787
g57
(g58
g59
NtRp1788
(dp1789
g62
(dp1790
g70
I4
ssg71
g1784
sg64
(lp1791
S"set(['/home/alfem/alfem/prog/telefam/server/web2py/applications/examples/', '/home/alfem/alfem/prog/telefam/server/web2py/applications/admin/', '/home/alfem/alfem/prog/telefam/server/web2py/applications/welcome/', '/home/alfem/alfem/prog/telefam/server/web2py/applications/telefam/'])"
p1792
asbasbasbag57
(g73
g59
NtRp1793
(dp1794
g62
(dp1795
sg71
g1768
sg64
(lp1796
g57
(g78
g59
NtRp1797
(dp1798
g62
(dp1799
g82
g83
ssg71
g1793
sg64
(lp1800
g697
asbag57
(g78
g59
NtRp1801
(dp1802
g62
(dp1803
g89
g90
ssg71
g1793
sg64
(lp1804
S':'
asbag57
(g78
g59
NtRp1805
(dp1806
g62
(dp1807
sg71
g1793
sg64
(lp1808
g57
(g58
g59
NtRp1809
(dp1810
g62
(dp1811
g70
I4
ssg71
g1805
sg64
(lp1812
g710
asbasbasbag57
(g73
g59
NtRp1813
(dp1814
g62
(dp1815
sg71
g1768
sg64
(lp1816
g57
(g78
g59
NtRp1817
(dp1818
g62
(dp1819
g82
g83
ssg71
g1813
sg64
(lp1820
g719
asbag57
(g78
g59
NtRp1821
(dp1822
g62
(dp1823
g89
g90
ssg71
g1813
sg64
(lp1824
S':'
asbag57
(g78
g59
NtRp1825
(dp1826
g62
(dp1827
sg71
g1813
sg64
(lp1828
g57
(g58
g59
NtRp1829
(dp1830
g62
(dp1831
g70
I4
ssg71
g1825
sg64
(lp1832
g57
(g66
g59
NtRp1833
(dp1834
g62
(dp1835
g70
I3
ssg71
Nsg64
(lp1836
sbasbasbasbag57
(g73
g59
NtRp1837
(dp1838
g62
(dp1839
sg71
g1768
sg64
(lp1840
g57
(g78
g59
NtRp1841
(dp1842
g62
(dp1843
g82
g83
ssg71
g1837
sg64
(lp1844
g744
asbag57
(g78
g59
NtRp1845
(dp1846
g62
(dp1847
g89
g90
ssg71
g1837
sg64
(lp1848
S':'
asbag57
(g78
g59
NtRp1849
(dp1850
g62
(dp1851
sg71
g1837
sg64
(lp1852
g57
(g58
g59
NtRp1853
(dp1854
g62
(dp1855
g70
I4
ssg71
g1849
sg64
(lp1856
S"<Values at 0x946c20c: {'verbose': False, 'ip': '127.0.0.1', 'shutdown_timeout': 5, 'taskbar': False, 'nocron': False, 'pid_filename': 'httpserver.pid', 'maxthreads': None, 'softcron': False, 'server_name': 'acala', 'bpython': False, 'nogui': False, 'port': 8000, 'extcron': False, 'debuglevel': 30, 'test': None, 'folder': '/home/alfem/alfem/prog/telefam/server/web2py', 'config': '', 'import_models': False, 'winservice': '', 'shell': None, 'run': '', 'log_filename': 'httpserver.log', 'args': [''], 'socket_timeout': 5, 'ssl_ca_certificate': None, 'scheduler': None, 'profiler_filename': None, 'ssl_private_key': '', 'password': '1234', 'request_queue_size': 5, 'ssl_certificate': '', 'cronjob': False, 'numthreads': None, 'quiet': False, 'interfaces': None, 'minthreads': None, 'timeout': 10, 'plain': False, 'nobanner': False}>"
p1857
asbasbasbag57
(g73
g59
NtRp1858
(dp1859
g62
(dp1860
sg71
g1768
sg64
(lp1861
g57
(g78
g59
NtRp1862
(dp1863
g62
(dp1864
g82
g83
ssg71
g1858
sg64
(lp1865
g766
asbag57
(g78
g59
NtRp1866
(dp1867
g62
(dp1868
g89
g90
ssg71
g1858
sg64
(lp1869
S':'
asbag57
(g78
g59
NtRp1870
(dp1871
g62
(dp1872
sg71
g1858
sg64
(lp1873
g57
(g58
g59
NtRp1874
(dp1875
g62
(dp1876
g70
I4
ssg71
g1870
sg64
(lp1877
S'set([])'
p1878
asbasbasbag57
(g73
g59
NtRp1879
(dp1880
g62
(dp1881
sg71
g1768
sg64
(lp1882
g57
(g78
g59
NtRp1883
(dp1884
g62
(dp1885
g82
g83
ssg71
g1879
sg64
(lp1886
g788
asbag57
(g78
g59
NtRp1887
(dp1888
g62
(dp1889
g89
g90
ssg71
g1879
sg64
(lp1890
S':'
asbag57
(g78
g59
NtRp1891
(dp1892
g62
(dp1893
sg71
g1879
sg64
(lp1894
g57
(g58
g59
NtRp1895
(dp1896
g62
(dp1897
g70
I4
ssg71
g1891
sg64
(lp1898
g100
asbasbasbag57
(g73
g59
NtRp1899
(dp1900
g62
(dp1901
sg71
g1768
sg64
(lp1902
g57
(g78
g59
NtRp1903
(dp1904
g62
(dp1905
g82
g83
ssg71
g1899
sg64
(lp1906
g809
asbag57
(g78
g59
NtRp1907
(dp1908
g62
(dp1909
g89
g90
ssg71
g1899
sg64
(lp1910
S':'
asbag57
(g78
g59
NtRp1911
(dp1912
g62
(dp1913
sg71
g1899
sg64
(lp1914
g57
(g58
g59
NtRp1915
(dp1916
g62
(dp1917
g70
I4
ssg71
g1911
sg64
(lp1918
g822
asbasbasbag57
(g73
g59
NtRp1919
(dp1920
g62
(dp1921
sg71
g1768
sg64
(lp1922
g57
(g78
g59
NtRp1923
(dp1924
g62
(dp1925
g82
g83
ssg71
g1919
sg64
(lp1926
g1029
asbag57
(g78
g59
NtRp1927
(dp1928
g62
(dp1929
g89
g90
ssg71
g1919
sg64
(lp1930
S':'
asbag57
(g78
g59
NtRp1931
(dp1932
g62
(dp1933
sg71
g1919
sg64
(lp1934
g57
(g58
g59
NtRp1935
(dp1936
g62
(dp1937
g70
I4
ssg71
g1931
sg64
(lp1938
g100
asbasbasbag57
(g73
g59
NtRp1939
(dp1940
g62
(dp1941
sg71
g1768
sg64
(lp1942
g57
(g78
g59
NtRp1943
(dp1944
g62
(dp1945
g82
g83
ssg71
g1939
sg64
(lp1946
g1050
asbag57
(g78
g59
NtRp1947
(dp1948
g62
(dp1949
g89
g90
ssg71
g1939
sg64
(lp1950
S':'
asbag57
(g78
g59
NtRp1951
(dp1952
g62
(dp1953
sg71
g1939
sg64
(lp1954
g57
(g58
g59
NtRp1955
(dp1956
g62
(dp1957
g70
I4
ssg71
g1951
sg64
(lp1958
g100
asbasbasbag57
(g73
g59
NtRp1959
(dp1960
g62
(dp1961
sg71
g1768
sg64
(lp1962
g57
(g78
g59
NtRp1963
(dp1964
g62
(dp1965
g82
g83
ssg71
g1959
sg64
(lp1966
g1289
asbag57
(g78
g59
NtRp1967
(dp1968
g62
(dp1969
g89
g90
ssg71
g1959
sg64
(lp1970
S':'
asbag57
(g78
g59
NtRp1971
(dp1972
g62
(dp1973
sg71
g1959
sg64
(lp1974
g57
(g58
g59
NtRp1975
(dp1976
g62
(dp1977
g70
I4
ssg71
g1971
sg64
(lp1978
g1302
asbasbasbag57
(g73
g59
NtRp1979
(dp1980
g62
(dp1981
sg71
g1768
sg64
(lp1982
g57
(g78
g59
NtRp1983
(dp1984
g62
(dp1985
g82
g83
ssg71
g1979
sg64
(lp1986
g1332
asbag57
(g78
g59
NtRp1987
(dp1988
g62
(dp1989
g89
g90
ssg71
g1979
sg64
(lp1990
S':'
asbag57
(g78
g59
NtRp1991
(dp1992
g62
(dp1993
sg71
g1979
sg64
(lp1994
g57
(g58
g59
NtRp1995
(dp1996
g62
(dp1997
g70
I4
ssg71
g1991
sg64
(lp1998
g57
(g66
g59
NtRp1999
(dp2000
g62
(dp2001
g70
I3
ssg71
Nsg64
(lp2002
g57
(g73
g59
NtRp2003
(dp2004
g62
(dp2005
sg71
g1999
sg64
(lp2006
g57
(g78
g59
NtRp2007
(dp2008
g62
(dp2009
sg71
g2003
sg64
(lp2010
g57
(g58
g59
NtRp2011
(dp2012
g62
(dp2013
g70
I3
ssg71
g2007
sg64
(lp2014
S'1'
asbasbasbag57
(g73
g59
NtRp2015
(dp2016
g62
(dp2017
sg71
g1999
sg64
(lp2018
g57
(g78
g59
NtRp2019
(dp2020
g62
(dp2021
sg71
g2015
sg64
(lp2022
g57
(g58
g59
NtRp2023
(dp2024
g62
(dp2025
g70
I3
ssg71
g2019
sg64
(lp2026
S'99'
p2027
asbasbasbag57
(g73
g59
NtRp2028
(dp2029
g62
(dp2030
sg71
g1999
sg64
(lp2031
g57
(g78
g59
NtRp2032
(dp2033
g62
(dp2034
sg71
g2028
sg64
(lp2035
g57
(g58
g59
NtRp2036
(dp2037
g62
(dp2038
g70
I3
ssg71
g2032
sg64
(lp2039
S'7'
asbasbasbag57
(g73
g59
NtRp2040
(dp2041
g62
(dp2042
sg71
g1999
sg64
(lp2043
g57
(g78
g59
NtRp2044
(dp2045
g62
(dp2046
sg71
g2040
sg64
(lp2047
g57
(g58
g59
NtRp2048
(dp2049
g62
(dp2050
g70
I3
ssg71
g2044
sg64
(lp2051
S'datetime.datetime(2012, 3, 4, 22, 12, 8)'
p2052
asbasbasbag57
(g73
g59
NtRp2053
(dp2054
g62
(dp2055
sg71
g1999
sg64
(lp2056
g57
(g78
g59
NtRp2057
(dp2058
g62
(dp2059
sg71
g2053
sg64
(lp2060
g57
(g58
g59
NtRp2061
(dp2062
g62
(dp2063
g70
I3
ssg71
g2057
sg64
(lp2064
g1411
asbasbasbasbasbasbasbasbasbasbasbag57
(g73
g59
NtRp2065
(dp2066
g62
(dp2067
sg71
g67
sg64
(lp2068
g57
(g78
g59
NtRp2069
(dp2070
g62
(dp2071
g82
g83
ssg71
g2065
sg64
(lp2072
S'is_https'
p2073
asbag57
(g78
g59
NtRp2074
(dp2075
g62
(dp2076
g89
g90
ssg71
g2065
sg64
(lp2077
S':'
asbag57
(g78
g59
NtRp2078
(dp2079
g62
(dp2080
sg71
g2065
sg64
(lp2081
g57
(g58
g59
NtRp2082
(dp2083
g62
(dp2084
g70
I5
ssg71
g2078
sg64
(lp2085
g100
asbasbasbag57
(g73
g59
NtRp2086
(dp2087
g62
(dp2088
sg71
g67
sg64
(lp2089
g57
(g78
g59
NtRp2090
(dp2091
g62
(dp2092
g82
g83
ssg71
g2086
sg64
(lp2093
S'is_local'
p2094
asbag57
(g78
g59
NtRp2095
(dp2096
g62
(dp2097
g89
g90
ssg71
g2086
sg64
(lp2098
S':'
asbag57
(g78
g59
NtRp2099
(dp2100
g62
(dp2101
sg71
g2086
sg64
(lp2102
g57
(g58
g59
NtRp2103
(dp2104
g62
(dp2105
g70
I5
ssg71
g2099
sg64
(lp2106
g1520
asbasbasbag57
(g73
g59
NtRp2107
(dp2108
g62
(dp2109
sg71
g67
sg64
(lp2110
g57
(g78
g59
NtRp2111
(dp2112
g62
(dp2113
g82
g83
ssg71
g2107
sg64
(lp2114
S'is_restful'
p2115
asbag57
(g78
g59
NtRp2116
(dp2117
g62
(dp2118
g89
g90
ssg71
g2107
sg64
(lp2119
S':'
asbag57
(g78
g59
NtRp2120
(dp2121
g62
(dp2122
sg71
g2107
sg64
(lp2123
g57
(g58
g59
NtRp2124
(dp2125
g62
(dp2126
g70
I5
ssg71
g2120
sg64
(lp2127
g100
asbasbasbag57
(g73
g59
NtRp2128
(dp2129
g62
(dp2130
sg71
g67
sg64
(lp2131
g57
(g78
g59
NtRp2132
(dp2133
g62
(dp2134
g82
g83
ssg71
g2128
sg64
(lp2135
S'now'
p2136
asbag57
(g78
g59
NtRp2137
(dp2138
g62
(dp2139
g89
g90
ssg71
g2128
sg64
(lp2140
S':'
asbag57
(g78
g59
NtRp2141
(dp2142
g62
(dp2143
sg71
g2128
sg64
(lp2144
g57
(g58
g59
NtRp2145
(dp2146
g62
(dp2147
g70
I5
ssg71
g2141
sg64
(lp2148
S'datetime.datetime(2012, 8, 29, 13, 51, 6, 24931)'
p2149
asbasbasbag57
(g73
g59
NtRp2150
(dp2151
g62
(dp2152
sg71
g67
sg64
(lp2153
g57
(g78
g59
NtRp2154
(dp2155
g62
(dp2156
g82
g83
ssg71
g2150
sg64
(lp2157
S'post_vars'
p2158
asbag57
(g78
g59
NtRp2159
(dp2160
g62
(dp2161
g89
g90
ssg71
g2150
sg64
(lp2162
S':'
asbag57
(g78
g59
NtRp2163
(dp2164
g62
(dp2165
sg71
g2150
sg64
(lp2166
g57
(g58
g59
NtRp2167
(dp2168
g62
(dp2169
g70
I5
ssg71
g2163
sg64
(lp2170
g57
(g66
g59
NtRp2171
(dp2172
g62
(dp2173
g70
I4
ssg71
Nsg64
(lp2174
sbasbasbasbag57
(g73
g59
NtRp2175
(dp2176
g62
(dp2177
sg71
g67
sg64
(lp2178
g57
(g78
g59
NtRp2179
(dp2180
g62
(dp2181
g82
g83
ssg71
g2175
sg64
(lp2182
S'raw_args'
p2183
asbag57
(g78
g59
NtRp2184
(dp2185
g62
(dp2186
g89
g90
ssg71
g2175
sg64
(lp2187
S':'
asbag57
(g78
g59
NtRp2188
(dp2189
g62
(dp2190
sg71
g2175
sg64
(lp2191
g57
(g58
g59
NtRp2192
(dp2193
g62
(dp2194
g70
I5
ssg71
g2188
sg64
(lp2195
S'json/get_message'
p2196
asbasbasbag57
(g73
g59
NtRp2197
(dp2198
g62
(dp2199
sg71
g67
sg64
(lp2200
g57
(g78
g59
NtRp2201
(dp2202
g62
(dp2203
g82
g83
ssg71
g2197
sg64
(lp2204
S'url'
p2205
asbag57
(g78
g59
NtRp2206
(dp2207
g62
(dp2208
g89
g90
ssg71
g2197
sg64
(lp2209
S':'
asbag57
(g78
g59
NtRp2210
(dp2211
g62
(dp2212
sg71
g2197
sg64
(lp2213
g57
(g58
g59
NtRp2214
(dp2215
g62
(dp2216
g70
I5
ssg71
g2210
sg64
(lp2217
S'/telefam/api/call/json/get_message'
p2218
asbasbasbag57
(g73
g59
NtRp2219
(dp2220
g62
(dp2221
sg71
g67
sg64
(lp2222
g57
(g78
g59
NtRp2223
(dp2224
g62
(dp2225
g82
g83
ssg71
g2219
sg64
(lp2226
S'utcnow'
p2227
asbag57
(g78
g59
NtRp2228
(dp2229
g62
(dp2230
g89
g90
ssg71
g2219
sg64
(lp2231
S':'
asbag57
(g78
g59
NtRp2232
(dp2233
g62
(dp2234
sg71
g2219
sg64
(lp2235
g57
(g58
g59
NtRp2236
(dp2237
g62
(dp2238
g70
I5
ssg71
g2232
sg64
(lp2239
S'datetime.datetime(2012, 8, 29, 11, 51, 6, 24983)'
p2240
asbasbasbag57
(g73
g59
NtRp2241
(dp2242
g62
(dp2243
sg71
g67
sg64
(lp2244
g57
(g78
g59
NtRp2245
(dp2246
g62
(dp2247
g82
g83
ssg71
g2241
sg64
(lp2248
S'uuid'
p2249
asbag57
(g78
g59
NtRp2250
(dp2251
g62
(dp2252
g89
g90
ssg71
g2241
sg64
(lp2253
S':'
asbag57
(g78
g59
NtRp2254
(dp2255
g62
(dp2256
sg71
g2241
sg64
(lp2257
g57
(g58
g59
NtRp2258
(dp2259
g62
(dp2260
g70
I5
ssg71
g2254
sg64
(lp2261
S'telefam/127.0.0.1.2012-08-29.13-51-06.edaacc65-c9b9-4e2b-891f-4e12a46966d2'
p2262
asbasbasbag57
(g73
g59
NtRp2263
(dp2264
g62
(dp2265
sg71
g67
sg64
(lp2266
g57
(g78
g59
NtRp2267
(dp2268
g62
(dp2269
g82
g83
ssg71
g2263
sg64
(lp2270
S'vars'
p2271
asbag57
(g78
g59
NtRp2272
(dp2273
g62
(dp2274
g89
g90
ssg71
g2263
sg64
(lp2275
S':'
asbag57
(g78
g59
NtRp2276
(dp2277
g62
(dp2278
sg71
g2263
sg64
(lp2279
g57
(g58
g59
NtRp2280
(dp2281
g62
(dp2282
g70
I5
ssg71
g2276
sg64
(lp2283
g57
(g66
g59
NtRp2284
(dp2285
g62
(dp2286
g70
I4
ssg71
Nsg64
(lp2287
g57
(g73
g59
NtRp2288
(dp2289
g62
(dp2290
sg71
g2284
sg64
(lp2291
g57
(g78
g59
NtRp2292
(dp2293
g62
(dp2294
g82
g83
ssg71
g2288
sg64
(lp2295
g1712
asbag57
(g78
g59
NtRp2296
(dp2297
g62
(dp2298
g89
g90
ssg71
g2288
sg64
(lp2299
S':'
asbag57
(g78
g59
NtRp2300
(dp2301
g62
(dp2302
sg71
g2288
sg64
(lp2303
g57
(g58
g59
NtRp2304
(dp2305
g62
(dp2306
g70
I4
ssg71
g2300
sg64
(lp2307
S'3'
asbasbasbag57
(g73
g59
NtRp2308
(dp2309
g62
(dp2310
sg71
g2284
sg64
(lp2311
g57
(g78
g59
NtRp2312
(dp2313
g62
(dp2314
g82
g83
ssg71
g2308
sg64
(lp2315
g1733
asbag57
(g78
g59
NtRp2316
(dp2317
g62
(dp2318
g89
g90
ssg71
g2308
sg64
(lp2319
S':'
asbag57
(g78
g59
NtRp2320
(dp2321
g62
(dp2322
sg71
g2308
sg64
(lp2323
g57
(g58
g59
NtRp2324
(dp2325
g62
(dp2326
g70
I4
ssg71
g2320
sg64
(lp2327
g1746
asbasbasbasbasbasbasbag57
(g73
g59
NtRp2328
(dp2329
g62
(dp2330
sg71
g67
sg64
(lp2331
g57
(g78
g59
NtRp2332
(dp2333
g62
(dp2334
g82
g83
ssg71
g2328
sg64
(lp2335
S'wsgi'
p2336
asbag57
(g78
g59
NtRp2337
(dp2338
g62
(dp2339
g89
g90
ssg71
g2328
sg64
(lp2340
S':'
asbag57
(g78
g59
NtRp2341
(dp2342
g62
(dp2343
sg71
g2328
sg64
(lp2344
g57
(g58
g59
NtRp2345
(dp2346
g62
(dp2347
g70
I5
ssg71
g2341
sg64
(lp2348
g57
(g66
g59
NtRp2349
(dp2350
g62
(dp2351
g70
I4
ssg71
Nsg64
(lp2352
g57
(g73
g59
NtRp2353
(dp2354
g62
(dp2355
sg71
g2349
sg64
(lp2356
g57
(g78
g59
NtRp2357
(dp2358
g62
(dp2359
g82
g83
ssg71
g2353
sg64
(lp2360
S'environ'
p2361
asbag57
(g78
g59
NtRp2362
(dp2363
g62
(dp2364
g89
g90
ssg71
g2353
sg64
(lp2365
S':'
asbag57
(g78
g59
NtRp2366
(dp2367
g62
(dp2368
sg71
g2353
sg64
(lp2369
g57
(g58
g59
NtRp2370
(dp2371
g62
(dp2372
g70
I4
ssg71
g2366
sg64
(lp2373
g57
(g66
g59
NtRp2374
(dp2375
g62
(dp2376
g70
I3
ssg71
Nsg64
(lp2377
g57
(g73
g59
NtRp2378
(dp2379
g62
(dp2380
sg71
g2374
sg64
(lp2381
g57
(g78
g59
NtRp2382
(dp2383
g62
(dp2384
g82
g83
ssg71
g2378
sg64
(lp2385
S'HTTP_ACCEPT'
p2386
asbag57
(g78
g59
NtRp2387
(dp2388
g62
(dp2389
g89
g90
ssg71
g2378
sg64
(lp2390
S':'
asbag57
(g78
g59
NtRp2391
(dp2392
g62
(dp2393
sg71
g2378
sg64
(lp2394
g57
(g58
g59
NtRp2395
(dp2396
g62
(dp2397
g70
I3
ssg71
g2391
sg64
(lp2398
g844
asbasbasbag57
(g73
g59
NtRp2399
(dp2400
g62
(dp2401
sg71
g2374
sg64
(lp2402
g57
(g78
g59
NtRp2403
(dp2404
g62
(dp2405
g82
g83
ssg71
g2399
sg64
(lp2406
S'HTTP_ACCEPT_CHARSET'
p2407
asbag57
(g78
g59
NtRp2408
(dp2409
g62
(dp2410
g89
g90
ssg71
g2399
sg64
(lp2411
S':'
asbag57
(g78
g59
NtRp2412
(dp2413
g62
(dp2414
sg71
g2399
sg64
(lp2415
g57
(g58
g59
NtRp2416
(dp2417
g62
(dp2418
g70
I3
ssg71
g2412
sg64
(lp2419
g866
asbasbasbag57
(g73
g59
NtRp2420
(dp2421
g62
(dp2422
sg71
g2374
sg64
(lp2423
g57
(g78
g59
NtRp2424
(dp2425
g62
(dp2426
g82
g83
ssg71
g2420
sg64
(lp2427
S'HTTP_ACCEPT_ENCODING'
p2428
asbag57
(g78
g59
NtRp2429
(dp2430
g62
(dp2431
g89
g90
ssg71
g2420
sg64
(lp2432
S':'
asbag57
(g78
g59
NtRp2433
(dp2434
g62
(dp2435
sg71
g2420
sg64
(lp2436
g57
(g58
g59
NtRp2437
(dp2438
g62
(dp2439
g70
I3
ssg71
g2433
sg64
(lp2440
g888
asbasbasbag57
(g73
g59
NtRp2441
(dp2442
g62
(dp2443
sg71
g2374
sg64
(lp2444
g57
(g78
g59
NtRp2445
(dp2446
g62
(dp2447
g82
g83
ssg71
g2441
sg64
(lp2448
S'HTTP_ACCEPT_LANGUAGE'
p2449
asbag57
(g78
g59
NtRp2450
(dp2451
g62
(dp2452
g89
g90
ssg71
g2441
sg64
(lp2453
S':'
asbag57
(g78
g59
NtRp2454
(dp2455
g62
(dp2456
sg71
g2441
sg64
(lp2457
g57
(g58
g59
NtRp2458
(dp2459
g62
(dp2460
g70
I3
ssg71
g2454
sg64
(lp2461
g910
asbasbasbag57
(g73
g59
NtRp2462
(dp2463
g62
(dp2464
sg71
g2374
sg64
(lp2465
g57
(g78
g59
NtRp2466
(dp2467
g62
(dp2468
g82
g83
ssg71
g2462
sg64
(lp2469
S'HTTP_CACHE_CONTROL'
p2470
asbag57
(g78
g59
NtRp2471
(dp2472
g62
(dp2473
g89
g90
ssg71
g2462
sg64
(lp2474
S':'
asbag57
(g78
g59
NtRp2475
(dp2476
g62
(dp2477
sg71
g2462
sg64
(lp2478
g57
(g58
g59
NtRp2479
(dp2480
g62
(dp2481
g70
I3
ssg71
g2475
sg64
(lp2482
g932
asbasbasbag57
(g73
g59
NtRp2483
(dp2484
g62
(dp2485
sg71
g2374
sg64
(lp2486
g57
(g78
g59
NtRp2487
(dp2488
g62
(dp2489
g82
g83
ssg71
g2483
sg64
(lp2490
S'HTTP_CONNECTION'
p2491
asbag57
(g78
g59
NtRp2492
(dp2493
g62
(dp2494
g89
g90
ssg71
g2483
sg64
(lp2495
S':'
asbag57
(g78
g59
NtRp2496
(dp2497
g62
(dp2498
sg71
g2483
sg64
(lp2499
g57
(g58
g59
NtRp2500
(dp2501
g62
(dp2502
g70
I3
ssg71
g2496
sg64
(lp2503
g954
asbasbasbag57
(g73
g59
NtRp2504
(dp2505
g62
(dp2506
sg71
g2374
sg64
(lp2507
g57
(g78
g59
NtRp2508
(dp2509
g62
(dp2510
g82
g83
ssg71
g2504
sg64
(lp2511
S'HTTP_COOKIE'
p2512
asbag57
(g78
g59
NtRp2513
(dp2514
g62
(dp2515
g89
g90
ssg71
g2504
sg64
(lp2516
S':'
asbag57
(g78
g59
NtRp2517
(dp2518
g62
(dp2519
sg71
g2504
sg64
(lp2520
g57
(g58
g59
NtRp2521
(dp2522
g62
(dp2523
g70
I3
ssg71
g2517
sg64
(lp2524
g976
asbasbasbag57
(g73
g59
NtRp2525
(dp2526
g62
(dp2527
sg71
g2374
sg64
(lp2528
g57
(g78
g59
NtRp2529
(dp2530
g62
(dp2531
g82
g83
ssg71
g2525
sg64
(lp2532
S'HTTP_HOST'
p2533
asbag57
(g78
g59
NtRp2534
(dp2535
g62
(dp2536
g89
g90
ssg71
g2525
sg64
(lp2537
S':'
asbag57
(g78
g59
NtRp2538
(dp2539
g62
(dp2540
sg71
g2525
sg64
(lp2541
g57
(g58
g59
NtRp2542
(dp2543
g62
(dp2544
g70
I3
ssg71
g2538
sg64
(lp2545
g998
asbasbasbag57
(g73
g59
NtRp2546
(dp2547
g62
(dp2548
sg71
g2374
sg64
(lp2549
g57
(g78
g59
NtRp2550
(dp2551
g62
(dp2552
g82
g83
ssg71
g2546
sg64
(lp2553
S'HTTP_USER_AGENT'
p2554
asbag57
(g78
g59
NtRp2555
(dp2556
g62
(dp2557
g89
g90
ssg71
g2546
sg64
(lp2558
S':'
asbag57
(g78
g59
NtRp2559
(dp2560
g62
(dp2561
sg71
g2546
sg64
(lp2562
g57
(g58
g59
NtRp2563
(dp2564
g62
(dp2565
g70
I3
ssg71
g2559
sg64
(lp2566
g1020
asbasbasbag57
(g73
g59
NtRp2567
(dp2568
g62
(dp2569
sg71
g2374
sg64
(lp2570
g57
(g78
g59
NtRp2571
(dp2572
g62
(dp2573
g82
g83
ssg71
g2567
sg64
(lp2574
S'PATH_INFO'
p2575
asbag57
(g78
g59
NtRp2576
(dp2577
g62
(dp2578
g89
g90
ssg71
g2567
sg64
(lp2579
S':'
asbag57
(g78
g59
NtRp2580
(dp2581
g62
(dp2582
sg71
g2567
sg64
(lp2583
g57
(g58
g59
NtRp2584
(dp2585
g62
(dp2586
g70
I3
ssg71
g2580
sg64
(lp2587
g1084
asbasbasbag57
(g73
g59
NtRp2588
(dp2589
g62
(dp2590
sg71
g2374
sg64
(lp2591
g57
(g78
g59
NtRp2592
(dp2593
g62
(dp2594
g82
g83
ssg71
g2588
sg64
(lp2595
S'QUERY_STRING'
p2596
asbag57
(g78
g59
NtRp2597
(dp2598
g62
(dp2599
g89
g90
ssg71
g2588
sg64
(lp2600
S':'
asbag57
(g78
g59
NtRp2601
(dp2602
g62
(dp2603
sg71
g2588
sg64
(lp2604
g57
(g58
g59
NtRp2605
(dp2606
g62
(dp2607
g70
I3
ssg71
g2601
sg64
(lp2608
g1106
asbasbasbag57
(g73
g59
NtRp2609
(dp2610
g62
(dp2611
sg71
g2374
sg64
(lp2612
g57
(g78
g59
NtRp2613
(dp2614
g62
(dp2615
g82
g83
ssg71
g2609
sg64
(lp2616
S'REMOTE_ADDR'
p2617
asbag57
(g78
g59
NtRp2618
(dp2619
g62
(dp2620
g89
g90
ssg71
g2609
sg64
(lp2621
S':'
asbag57
(g78
g59
NtRp2622
(dp2623
g62
(dp2624
sg71
g2609
sg64
(lp2625
g57
(g58
g59
NtRp2626
(dp2627
g62
(dp2628
g70
I3
ssg71
g2622
sg64
(lp2629
g216
asbasbasbag57
(g73
g59
NtRp2630
(dp2631
g62
(dp2632
sg71
g2374
sg64
(lp2633
g57
(g78
g59
NtRp2634
(dp2635
g62
(dp2636
g82
g83
ssg71
g2630
sg64
(lp2637
S'REMOTE_PORT'
p2638
asbag57
(g78
g59
NtRp2639
(dp2640
g62
(dp2641
g89
g90
ssg71
g2630
sg64
(lp2642
S':'
asbag57
(g78
g59
NtRp2643
(dp2644
g62
(dp2645
sg71
g2630
sg64
(lp2646
g57
(g58
g59
NtRp2647
(dp2648
g62
(dp2649
g70
I3
ssg71
g2643
sg64
(lp2650
g1149
asbasbasbag57
(g73
g59
NtRp2651
(dp2652
g62
(dp2653
sg71
g2374
sg64
(lp2654
g57
(g78
g59
NtRp2655
(dp2656
g62
(dp2657
g82
g83
ssg71
g2651
sg64
(lp2658
S'REQUEST_METHOD'
p2659
asbag57
(g78
g59
NtRp2660
(dp2661
g62
(dp2662
g89
g90
ssg71
g2651
sg64
(lp2663
S':'
asbag57
(g78
g59
NtRp2664
(dp2665
g62
(dp2666
sg71
g2651
sg64
(lp2667
g57
(g58
g59
NtRp2668
(dp2669
g62
(dp2670
g70
I3
ssg71
g2664
sg64
(lp2671
g1171
asbasbasbag57
(g73
g59
NtRp2672
(dp2673
g62
(dp2674
sg71
g2374
sg64
(lp2675
g57
(g78
g59
NtRp2676
(dp2677
g62
(dp2678
g82
g83
ssg71
g2672
sg64
(lp2679
S'SCRIPT_NAME'
p2680
asbag57
(g78
g59
NtRp2681
(dp2682
g62
(dp2683
g89
g90
ssg71
g2672
sg64
(lp2684
S':'
asbag57
(g78
g59
NtRp2685
(dp2686
g62
(dp2687
sg71
g2672
sg64
(lp2688
g57
(g58
g59
NtRp2689
(dp2690
g62
(dp2691
g70
I3
ssg71
g2685
sg64
(lp2692
S''
asbasbasbag57
(g73
g59
NtRp2693
(dp2694
g62
(dp2695
sg71
g2374
sg64
(lp2696
g57
(g78
g59
NtRp2697
(dp2698
g62
(dp2699
g82
g83
ssg71
g2693
sg64
(lp2700
S'SERVER_NAME'
p2701
asbag57
(g78
g59
NtRp2702
(dp2703
g62
(dp2704
g89
g90
ssg71
g2693
sg64
(lp2705
S':'
asbag57
(g78
g59
NtRp2706
(dp2707
g62
(dp2708
sg71
g2693
sg64
(lp2709
g57
(g58
g59
NtRp2710
(dp2711
g62
(dp2712
g70
I3
ssg71
g2706
sg64
(lp2713
g1214
asbasbasbag57
(g73
g59
NtRp2714
(dp2715
g62
(dp2716
sg71
g2374
sg64
(lp2717
g57
(g78
g59
NtRp2718
(dp2719
g62
(dp2720
g82
g83
ssg71
g2714
sg64
(lp2721
S'SERVER_PORT'
p2722
asbag57
(g78
g59
NtRp2723
(dp2724
g62
(dp2725
g89
g90
ssg71
g2714
sg64
(lp2726
S':'
asbag57
(g78
g59
NtRp2727
(dp2728
g62
(dp2729
sg71
g2714
sg64
(lp2730
g57
(g58
g59
NtRp2731
(dp2732
g62
(dp2733
g70
I3
ssg71
g2727
sg64
(lp2734
g1236
asbasbasbag57
(g73
g59
NtRp2735
(dp2736
g62
(dp2737
sg71
g2374
sg64
(lp2738
g57
(g78
g59
NtRp2739
(dp2740
g62
(dp2741
g82
g83
ssg71
g2735
sg64
(lp2742
S'SERVER_PROTOCOL'
p2743
asbag57
(g78
g59
NtRp2744
(dp2745
g62
(dp2746
g89
g90
ssg71
g2735
sg64
(lp2747
S':'
asbag57
(g78
g59
NtRp2748
(dp2749
g62
(dp2750
sg71
g2735
sg64
(lp2751
g57
(g58
g59
NtRp2752
(dp2753
g62
(dp2754
g70
I3
ssg71
g2748
sg64
(lp2755
g1258
asbasbasbag57
(g73
g59
NtRp2756
(dp2757
g62
(dp2758
sg71
g2374
sg64
(lp2759
g57
(g78
g59
NtRp2760
(dp2761
g62
(dp2762
g82
g83
ssg71
g2756
sg64
(lp2763
S'SERVER_SOFTWARE'
p2764
asbag57
(g78
g59
NtRp2765
(dp2766
g62
(dp2767
g89
g90
ssg71
g2756
sg64
(lp2768
S':'
asbag57
(g78
g59
NtRp2769
(dp2770
g62
(dp2771
sg71
g2756
sg64
(lp2772
g57
(g58
g59
NtRp2773
(dp2774
g62
(dp2775
g70
I3
ssg71
g2769
sg64
(lp2776
g1280
asbasbasbag57
(g73
g59
NtRp2777
(dp2778
g62
(dp2779
sg71
g2374
sg64
(lp2780
g57
(g78
g59
NtRp2781
(dp2782
g62
(dp2783
g82
g83
ssg71
g2777
sg64
(lp2784
S'wsgi.errors'
p2785
asbag57
(g78
g59
NtRp2786
(dp2787
g62
(dp2788
g89
g90
ssg71
g2777
sg64
(lp2789
S':'
asbag57
(g78
g59
NtRp2790
(dp2791
g62
(dp2792
sg71
g2777
sg64
(lp2793
g57
(g58
g59
NtRp2794
(dp2795
g62
(dp2796
g70
I3
ssg71
g2790
sg64
(lp2797
S"<open file '<stderr>', mode 'w' at 0xb770a0d0>"
p2798
asbasbasbag57
(g73
g59
NtRp2799
(dp2800
g62
(dp2801
sg71
g2374
sg64
(lp2802
g57
(g78
g59
NtRp2803
(dp2804
g62
(dp2805
g82
g83
ssg71
g2799
sg64
(lp2806
S'wsgi.file_wrapper'
p2807
asbag57
(g78
g59
NtRp2808
(dp2809
g62
(dp2810
g89
g90
ssg71
g2799
sg64
(lp2811
S':'
asbag57
(g78
g59
NtRp2812
(dp2813
g62
(dp2814
sg71
g2799
sg64
(lp2815
g57
(g58
g59
NtRp2816
(dp2817
g62
(dp2818
g70
I3
ssg71
g2812
sg64
(lp2819
S'<class wsgiref.util.FileWrapper at 0x943be6c>'
p2820
asbasbasbag57
(g73
g59
NtRp2821
(dp2822
g62
(dp2823
sg71
g2374
sg64
(lp2824
g57
(g78
g59
NtRp2825
(dp2826
g62
(dp2827
g82
g83
ssg71
g2821
sg64
(lp2828
S'wsgi.input'
p2829
asbag57
(g78
g59
NtRp2830
(dp2831
g62
(dp2832
g89
g90
ssg71
g2821
sg64
(lp2833
S':'
asbag57
(g78
g59
NtRp2834
(dp2835
g62
(dp2836
sg71
g2821
sg64
(lp2837
g57
(g58
g59
NtRp2838
(dp2839
g62
(dp2840
g70
I3
ssg71
g2834
sg64
(lp2841
S'<cStringIO.StringO object at 0xbea9900>'
p2842
asbasbasbag57
(g73
g59
NtRp2843
(dp2844
g62
(dp2845
sg71
g2374
sg64
(lp2846
g57
(g78
g59
NtRp2847
(dp2848
g62
(dp2849
g82
g83
ssg71
g2843
sg64
(lp2850
S'wsgi.multiprocess'
p2851
asbag57
(g78
g59
NtRp2852
(dp2853
g62
(dp2854
g89
g90
ssg71
g2843
sg64
(lp2855
S':'
asbag57
(g78
g59
NtRp2856
(dp2857
g62
(dp2858
sg71
g2843
sg64
(lp2859
g57
(g58
g59
NtRp2860
(dp2861
g62
(dp2862
g70
I3
ssg71
g2856
sg64
(lp2863
g100
asbasbasbag57
(g73
g59
NtRp2864
(dp2865
g62
(dp2866
sg71
g2374
sg64
(lp2867
g57
(g78
g59
NtRp2868
(dp2869
g62
(dp2870
g82
g83
ssg71
g2864
sg64
(lp2871
S'wsgi.multithread'
p2872
asbag57
(g78
g59
NtRp2873
(dp2874
g62
(dp2875
g89
g90
ssg71
g2864
sg64
(lp2876
S':'
asbag57
(g78
g59
NtRp2877
(dp2878
g62
(dp2879
sg71
g2864
sg64
(lp2880
g57
(g58
g59
NtRp2881
(dp2882
g62
(dp2883
g70
I3
ssg71
g2877
sg64
(lp2884
g1520
asbasbasbag57
(g73
g59
NtRp2885
(dp2886
g62
(dp2887
sg71
g2374
sg64
(lp2888
g57
(g78
g59
NtRp2889
(dp2890
g62
(dp2891
g82
g83
ssg71
g2885
sg64
(lp2892
S'wsgi.run_once'
p2893
asbag57
(g78
g59
NtRp2894
(dp2895
g62
(dp2896
g89
g90
ssg71
g2885
sg64
(lp2897
S':'
asbag57
(g78
g59
NtRp2898
(dp2899
g62
(dp2900
sg71
g2885
sg64
(lp2901
g57
(g58
g59
NtRp2902
(dp2903
g62
(dp2904
g70
I3
ssg71
g2898
sg64
(lp2905
g100
asbasbasbag57
(g73
g59
NtRp2906
(dp2907
g62
(dp2908
sg71
g2374
sg64
(lp2909
g57
(g78
g59
NtRp2910
(dp2911
g62
(dp2912
g82
g83
ssg71
g2906
sg64
(lp2913
S'wsgi.url_scheme'
p2914
asbag57
(g78
g59
NtRp2915
(dp2916
g62
(dp2917
g89
g90
ssg71
g2906
sg64
(lp2918
S':'
asbag57
(g78
g59
NtRp2919
(dp2920
g62
(dp2921
sg71
g2906
sg64
(lp2922
g57
(g58
g59
NtRp2923
(dp2924
g62
(dp2925
g70
I3
ssg71
g2919
sg64
(lp2926
g1563
asbasbasbag57
(g73
g59
NtRp2927
(dp2928
g62
(dp2929
sg71
g2374
sg64
(lp2930
g57
(g78
g59
NtRp2931
(dp2932
g62
(dp2933
g82
g83
ssg71
g2927
sg64
(lp2934
S'wsgi.version'
p2935
asbag57
(g78
g59
NtRp2936
(dp2937
g62
(dp2938
g89
g90
ssg71
g2927
sg64
(lp2939
S':'
asbag57
(g78
g59
NtRp2940
(dp2941
g62
(dp2942
sg71
g2927
sg64
(lp2943
g57
(g58
g59
NtRp2944
(dp2945
g62
(dp2946
g70
I3
ssg71
g2940
sg64
(lp2947
S'1'
asbasbasbasbasbasbasbasbasbasbasbasbasbsS'frames'
p2948
(lp2949
(dp2950
S'file'
p2951
S'/home/alfem/alfem/prog/telefam/server/web2py/gluon/restricted.py'
p2952
sS'dump'
p2953
(dp2954
S'environment'
p2955
S"{'A': <class 'gluon.html.A'>, 'Auth': <class 'gluon.tools.Auth'>, 'B': <class 'gluon.html.B'>, 'BEAUTIFY': <class 'gluon.html.BEAUTIFY'>, 'BODY': <class 'gluon.html.BODY'>, 'BR': <class 'gluon.html.BR'>, 'BUTTON': <class 'gluon.html.BUTTON'>, 'CAT': <class 'gluon.html.CAT'>, 'CENTER': <class 'gluon.html.CENTER'>, 'CLEANUP': <class 'gluon.validators.CLEANUP'>, ...}"
p2956
sS'ccode'
p2957
S'<code object <module> at 0xbed2338, file "/home/...applications/telefam/controllers/api.py", line 3>'
p2958
ssS'lnum'
p2959
I205
sS'lines'
p2960
(dp2961
I200
S'    try:'
p2962
sI201
S'        if type(code) == types.CodeType:'
p2963
sI202
S'            ccode = code'
p2964
sI203
S'        else:'
p2965
sI204
S'            ccode = compile2(code,layer)'
p2966
sI205
S'        exec ccode in environment'
p2967
sI206
S'    except HTTP:'
p2968
sI207
S'        raise'
p2969
sI208
S'    except RestrictedError:'
p2970
sI209
S'        # do not encapsulate (obfuscate) the original RestrictedError'
p2971
ssS'call'
p2972
S"(code='# coding: utf8\\n\\nimport datetime\\n\\ndef call():\\n   ...age_dict\\n\\n\\nresponse._vars=response._caller(call)\\n', environment={'A': <class 'gluon.html.A'>, 'Auth': <class 'gluon.tools.Auth'>, 'B': <class 'gluon.html.B'>, 'BEAUTIFY': <class 'gluon.html.BEAUTIFY'>, 'BODY': <class 'gluon.html.BODY'>, 'BR': <class 'gluon.html.BR'>, 'BUTTON': <class 'gluon.html.BUTTON'>, 'CAT': <class 'gluon.html.CAT'>, 'CENTER': <class 'gluon.html.CENTER'>, 'CLEANUP': <class 'gluon.validators.CLEANUP'>, ...}, layer='/home/alfem/alfem/prog/telefam/server/web2py/applications/telefam/controllers/api.py')"
p2973
sS'func'
p2974
S'restricted'
p2975
sa(dp2976
g2951
S'/home/alfem/alfem/prog/telefam/server/web2py/applications/telefam/controllers/api.py'
p2977
sg2953
(dp2978
sg2959
I67
sg2960
(dp2979
I64
S'    return message_dict'
p2980
sI65
S''
sI56
S'        return'
p2981
sI57
S''
sI58
S'    message=db.messages(id).select(db.messages.id,db.messages.text)'
p2982
sI59
S''
sI60
S'    message_dict={}'
p2983
sI61
S'    for key,value in message.iteritems():'
p2984
sI62
S'        message_dict[key]=value'
p2985
sI63
S''
ssg2972
S'()'
p2986
sg2974
S'<module>'
p2987
sa(dp2988
g2951
S'/home/alfem/alfem/prog/telefam/server/web2py/gluon/globals.py'
p2989
sg2953
(dp2990
S'self'
p2991
S'undefined'
p2992
sS'f'
S'<function call>'
p2993
ssg2959
I173
sg2960
(dp2994
I168
S'        self.menu = []             # used by the default view layout'
p2995
sI169
S'        self.files = []            # used by web2py_ajax.html'
p2996
sI170
S'        self.generic_patterns = [] # patterns to allow generic views'
p2997
sI171
S"        self.delimiters = ('{{','}}')"
p2998
sI172
S'        self._vars = None'
p2999
sI173
S'        self._caller = lambda f: f()'
p3000
sI174
S'        self._view_environment = None'
p3001
sI175
S'        self._custom_commit = None'
p3002
sI176
S'        self._custom_rollback = None'
p3003
sI177
S''
ssg2972
S'(f=<function call>)'
p3004
sg2974
S'<lambda>'
p3005
sa(dp3006
g2951
S'/home/alfem/alfem/prog/telefam/server/web2py/applications/telefam/controllers/api.py'
p3007
sg2953
(dp3008
S'global service'
p3009
S'<gluon.tools.Service object>'
p3010
ssg2959
I10
sg2960
(dp3011
I5
S'def call():'
p3012
sI6
S'    """'
p3013
sI7
S'    Returns status of changes to a Telefam device'
p3014
sI8
S'    """'
p3015
sI9
S'    session.forget()'
p3016
sI10
S'    return service()'
p3017
sI11
S''
sI12
S'def get_telefam_by_key(key):'
p3018
sI13
S'    telefams=db(db.telefams.key==key).select()'
p3019
sI14
S'    if len(telefams) != 1:'
p3020
ssg2972
S'()'
p3021
sg2974
g2972
sa(dp3022
g2951
S'/home/alfem/alfem/prog/telefam/server/web2py/gluon/tools.py'
p3023
sg2953
(dp3024
S'request.args'
p3025
S"['json', 'get_message']"
p3026
sS'self.serve_json'
p3027
S'<bound method Service.serve_json of <gluon.tools.Service object>>'
p3028
sS'self'
p3029
S'<gluon.tools.Service object>'
p3030
sS'request'
p3031
S"<Storage {'body': <cStringIO.StringO object at 0...y': 'raspberry314'}>, 'post_vars': <Storage {}>}>"
p3032
ssg2959
I3975
sg2960
(dp3033
I3970
S"        elif arg0 == 'csv':"
p3034
sI3971
S'            return self.serve_csv(request.args[1:])'
p3035
sI3972
S"        elif arg0 == 'xml':"
p3036
sI3973
S'            return self.serve_xml(request.args[1:])'
p3037
sI3974
S"        elif arg0 == 'json':"
p3038
sI3975
S'            return self.serve_json(request.args[1:])'
p3039
sI3976
S"        elif arg0 == 'jsonrpc':"
p3040
sI3977
S'            return self.serve_jsonrpc()'
p3041
sI3978
S"        elif arg0 == 'xmlrpc':"
p3042
sI3979
S'            return self.serve_xmlrpc()'
p3043
ssg2972
S'(self=<gluon.tools.Service object>)'
p3044
sg2974
S'__call__'
p3045
sa(dp3046
g2951
S'/home/alfem/alfem/prog/telefam/server/web2py/gluon/tools.py'
p3047
sg2953
(dp3048
S'args'
p3049
S"['get_message']"
p3050
sS'd'
S"{'id': '3', 'key': 'raspberry314'}"
p3051
sS'self'
p3052
S'<gluon.tools.Service object>'
p3053
sS'global universal_caller'
p3054
S'<function universal_caller>'
p3055
sS'self.json_procedures'
p3056
S"{'get_message': <function get_message>, 'get_message_list': <function get_message_list>, 'get_status': <function get_status>, 'update_last_connection': <function update_last_connection>}"
p3057
sS's'
g2992
ssg2959
I3792
sg2960
(dp3058
I3787
S"        response.headers['Content-Type'] = 'application/json; charset=utf-8'"
p3059
sI3788
S'        if not args:'
p3060
sI3789
S'            args = request.args'
p3061
sI3790
S'        d = dict(request.vars)'
p3062
sI3791
S'        if args and args[0] in self.json_procedures:'
p3063
sI3792
S'            s = universal_caller(self.json_procedures[args[0]],*args[1:],**d)'
p3064
sI3793
S"            if hasattr(s, 'as_list'):"
p3065
sI3794
S'                s = s.as_list()'
p3066
sI3795
S'            return response.json(s)'
p3067
sI3796
S'        self.error()'
p3068
ssg2972
S"(self=<gluon.tools.Service object>, args=['get_message'])"
p3069
sg2974
S'serve_json'
p3070
sa(dp3071
g2951
S'/home/alfem/alfem/prog/telefam/server/web2py/gluon/tools.py'
p3072
sg2953
(dp3073
S'arg_dict'
p3074
S"{'id': '3', 'key': 'raspberry314'}"
p3075
sS'f'
S'<function get_message>'
p3076
ssg2959
I3484
sg2960
(dp3077
I3488
S''
sI3479
S'        # However, we need to update the arg_dict with the values from the named arguments as well.'
p3078
sI3480
S'        for arg_name in named_args:'
p3079
sI3481
S'            if b.has_key(arg_name):'
p3080
sI3482
S'                arg_dict[arg_name] = b[arg_name]'
p3081
sI3483
S''
sI3484
S'        return f(**arg_dict)'
p3082
sI3485
S''
sI3486
S'    # Raise an error, the function cannot be called.'
p3083
sI3487
S'    raise HTTP(404, "Object does not exist")'
p3084
ssg2972
S"(f=<function get_message>, *a=(), **b={'id': '3', 'key': 'raspberry314'})"
p3085
sg2974
S'universal_caller'
p3086
sa(dp3087
g2951
S'/home/alfem/alfem/prog/telefam/server/web2py/applications/telefam/controllers/api.py'
p3088
sg2953
(dp3089
S'db.messages.text'
p3090
S'<gluon.dal.Field object>'
p3091
sS').select'
p3092
g2992
sS'db.messages'
p3093
S"<Table {'photo': <gluon.dal.Field object at 0xc3...efam_id': <gluon.dal.Field object at 0xbeb09ec>}>"
p3094
sS'global db'
p3095
S"<DAL {'auth_event': <Table {'origin': <gluon.dal...n_key': <gluon.dal.Field object at 0xc31cf2c>}>}>"
p3096
sS'message'
p3097
g2992
sS'db.messages.id'
p3098
S'<gluon.dal.Field object>'
p3099
sS'id'
p3100
S"'3'"
p3101
ssg2959
I58
sg2960
(dp3102
I53
S'def get_message(key, id):'
p3103
sI54
S'    telefam=get_telefam_by_key(key)'
p3104
sI55
S'    if not telefam:'
p3105
sI56
S'        return'
p3106
sI57
S''
sI58
S'    message=db.messages(id).select(db.messages.id,db.messages.text)'
p3107
sI59
S''
sI60
S'    message_dict={}'
p3108
sI61
S'    for key,value in message.iteritems():'
p3109
sI62
S'        message_dict[key]=value'
p3110
ssg2972
S"(key='raspberry314', id='3')"
p3111
sg2974
S'get_message'
p3112
sa(dp3113
g2951
S'/home/alfem/alfem/prog/telefam/server/web2py/gluon/dal.py'
p3114
sg2953
(dp3115
S'self'
p3116
S"<Row {'sound': '', 'status': 'New', 'user_id': 1...elete_record': <function <lambda> at 0xbea172c>}>"
p3117
sS'key'
p3118
S"'select'"
p3119
ssg2959
I5657
sg2960
(dp3120
I5652
S''
sI5653
S'    def __setitem__(self, key, value):'
p3121
sI5654
S'        dict.__setitem__(self, str(key), value)'
p3122
sI5655
S''
sI5656
S'    def __getattr__(self, key):'
p3123
sI5657
S'        return self[key]'
p3124
sI5658
S''
sI5659
S'    def __setattr__(self, key, value):'
p3125
sI5660
S'        self[key] = value'
p3126
sI5661
S''
ssg2972
S"(self=<Row {'sound': '', 'status': 'New', 'user_id': 1...elete_record': <function <lambda> at 0xbea172c>}>, key='select')"
p3127
sg2974
S'__getattr__'
p3128
sa(dp3129
g2951
S'/home/alfem/alfem/prog/telefam/server/web2py/gluon/dal.py'
p3130
sg2953
(dp3131
S'self'
p3132
S"<Row {'sound': '', 'status': 'New', 'user_id': 1...elete_record': <function <lambda> at 0xbea172c>}>"
p3133
sS'dict.__getitem__'
p3134
S"<method '__getitem__' of 'dict' objects>"
p3135
sS'key'
p3136
S"'select'"
p3137
sS'builtindict'
p3138
S"<type 'dict'>"
p3139
ssg2959
I5648
sg2960
(dp3140
I5643
S'        elif m:'
p3141
sI5644
S'            try:'
p3142
sI5645
S'                return dict.__getitem__(self, m.group(1))[m.group(2)]'
p3143
sI5646
S'            except (KeyError,TypeError):'
p3144
sI5647
S'                key = m.group(2)'
p3145
sI5648
S'        return dict.__getitem__(self, key)'
p3146
sI5649
S''
sI5650
S'    def __call__(self,key):'
p3147
sI5651
S'        return self.__getitem__(key)'
p3148
sI5652
S''
ssg2972
S"(self=<Row {'sound': '', 'status': 'New', 'user_id': 1...elete_record': <function <lambda> at 0xbea172c>}>, key='select')"
p3149
sg2974
g20
sasS'pyver'
p3150
S'Python 2.7.2+: /usr/bin/python'
p3151
sS'session'
p3152
g57
(g58
g59
NtRp3153
(dp3154
g62
(dp3155
sg64
(lp3156
g57
(g66
g59
NtRp3157
(dp3158
g62
(dp3159
g70
I5
ssg71
Nsg64
(lp3160
g57
(g73
g59
NtRp3161
(dp3162
g62
(dp3163
sg71
g3157
sg64
(lp3164
g57
(g78
g59
NtRp3165
(dp3166
g62
(dp3167
g82
g83
ssg71
g3161
sg64
(lp3168
S'telefam_description'
p3169
asbag57
(g78
g59
NtRp3170
(dp3171
g62
(dp3172
g89
g90
ssg71
g3161
sg64
(lp3173
S':'
asbag57
(g78
g59
NtRp3174
(dp3175
g62
(dp3176
sg71
g3161
sg64
(lp3177
g57
(g58
g59
NtRp3178
(dp3179
g62
(dp3180
g70
I5
ssg71
g3174
sg64
(lp3181
S'Telefam de Pepi'
p3182
asbasbasbag57
(g73
g59
NtRp3183
(dp3184
g62
(dp3185
sg71
g3157
sg64
(lp3186
g57
(g78
g59
NtRp3187
(dp3188
g62
(dp3189
g82
g83
ssg71
g3183
sg64
(lp3190
S'telefam_id'
p3191
asbag57
(g78
g59
NtRp3192
(dp3193
g62
(dp3194
g89
g90
ssg71
g3183
sg64
(lp3195
S':'
asbag57
(g78
g59
NtRp3196
(dp3197
g62
(dp3198
sg71
g3183
sg64
(lp3199
g57
(g58
g59
NtRp3200
(dp3201
g62
(dp3202
g70
I5
ssg71
g3196
sg64
(lp3203
S'1'
asbasbasbasbasbsS'etype'
p3204
S"<type 'exceptions.KeyError'>"
p3205
sS'date'
p3206
S'Wed Aug 29 13:51:06 2012'
p3207
sS'response'
p3208
g57
(g58
g59
NtRp3209
(dp3210
g62
(dp3211
sg64
(lp3212
g57
(g66
g59
NtRp3213
(dp3214
g62
(dp3215
g70
I5
ssg71
Nsg64
(lp3216
g57
(g73
g59
NtRp3217
(dp3218
g62
(dp3219
sg71
g3213
sg64
(lp3220
g57
(g78
g59
NtRp3221
(dp3222
g62
(dp3223
g82
g83
ssg71
g3217
sg64
(lp3224
g181
asbag57
(g78
g59
NtRp3225
(dp3226
g62
(dp3227
g89
g90
ssg71
g3217
sg64
(lp3228
S':'
asbag57
(g78
g59
NtRp3229
(dp3230
g62
(dp3231
sg71
g3217
sg64
(lp3232
g57
(g58
g59
NtRp3233
(dp3234
g62
(dp3235
g70
I5
ssg71
g3229
sg64
(lp3236
S'<cStringIO.StringO object at 0xbea9820>'
p3237
asbasbasbag57
(g73
g59
NtRp3238
(dp3239
g62
(dp3240
sg71
g3213
sg64
(lp3241
g57
(g78
g59
NtRp3242
(dp3243
g62
(dp3244
g82
g83
ssg71
g3238
sg64
(lp3245
g247
asbag57
(g78
g59
NtRp3246
(dp3247
g62
(dp3248
g89
g90
ssg71
g3238
sg64
(lp3249
S':'
asbag57
(g78
g59
NtRp3250
(dp3251
g62
(dp3252
sg71
g3238
sg64
(lp3253
g57
(g58
g59
NtRp3254
(dp3255
g62
(dp3256
g70
I5
ssg71
g3250
sg64
(lp3257
g57
(g66
g59
NtRp3258
(dp3259
g62
(dp3260
g70
I4
ssg71
Nsg64
(lp3261
g57
(g73
g59
NtRp3262
(dp3263
g62
(dp3264
sg71
g3258
sg64
(lp3265
g57
(g78
g59
NtRp3266
(dp3267
g62
(dp3268
g82
g83
ssg71
g3262
sg64
(lp3269
S'session_id_telefam'
p3270
asbag57
(g78
g59
NtRp3271
(dp3272
g62
(dp3273
g89
g90
ssg71
g3262
sg64
(lp3274
S':'
asbag57
(g78
g59
NtRp3275
(dp3276
g62
(dp3277
sg71
g3262
sg64
(lp3278
g57
(g58
g59
NtRp3279
(dp3280
g62
(dp3281
g70
I4
ssg71
g3275
sg64
(lp3282
g57
(g66
g59
NtRp3283
(dp3284
g62
(dp3285
g70
I3
ssg71
Nsg64
(lp3286
g57
(g73
g59
NtRp3287
(dp3288
g62
(dp3289
sg71
g3283
sg64
(lp3290
g57
(g78
g59
NtRp3291
(dp3292
g62
(dp3293
g82
g83
ssg71
g3287
sg64
(lp3294
g297
asbag57
(g78
g59
NtRp3295
(dp3296
g62
(dp3297
g89
g90
ssg71
g3287
sg64
(lp3298
S':'
asbag57
(g78
g59
NtRp3299
(dp3300
g62
(dp3301
sg71
g3287
sg64
(lp3302
g57
(g58
g59
NtRp3303
(dp3304
g62
(dp3305
g70
I3
ssg71
g3299
sg64
(lp3306
S''
asbasbasbag57
(g73
g59
NtRp3307
(dp3308
g62
(dp3309
sg71
g3283
sg64
(lp3310
g57
(g78
g59
NtRp3311
(dp3312
g62
(dp3313
g82
g83
ssg71
g3307
sg64
(lp3314
g318
asbag57
(g78
g59
NtRp3315
(dp3316
g62
(dp3317
g89
g90
ssg71
g3307
sg64
(lp3318
S':'
asbag57
(g78
g59
NtRp3319
(dp3320
g62
(dp3321
sg71
g3307
sg64
(lp3322
g57
(g58
g59
NtRp3323
(dp3324
g62
(dp3325
g70
I3
ssg71
g3319
sg64
(lp3326
S''
asbasbasbag57
(g73
g59
NtRp3327
(dp3328
g62
(dp3329
sg71
g3283
sg64
(lp3330
g57
(g78
g59
NtRp3331
(dp3332
g62
(dp3333
g82
g83
ssg71
g3327
sg64
(lp3334
g339
asbag57
(g78
g59
NtRp3335
(dp3336
g62
(dp3337
g89
g90
ssg71
g3327
sg64
(lp3338
S':'
asbag57
(g78
g59
NtRp3339
(dp3340
g62
(dp3341
sg71
g3327
sg64
(lp3342
g57
(g58
g59
NtRp3343
(dp3344
g62
(dp3345
g70
I3
ssg71
g3339
sg64
(lp3346
S''
asbasbasbag57
(g73
g59
NtRp3347
(dp3348
g62
(dp3349
sg71
g3283
sg64
(lp3350
g57
(g78
g59
NtRp3351
(dp3352
g62
(dp3353
g82
g83
ssg71
g3347
sg64
(lp3354
g360
asbag57
(g78
g59
NtRp3355
(dp3356
g62
(dp3357
g89
g90
ssg71
g3347
sg64
(lp3358
S':'
asbag57
(g78
g59
NtRp3359
(dp3360
g62
(dp3361
sg71
g3347
sg64
(lp3362
g57
(g58
g59
NtRp3363
(dp3364
g62
(dp3365
g70
I3
ssg71
g3359
sg64
(lp3366
S''
asbasbasbag57
(g73
g59
NtRp3367
(dp3368
g62
(dp3369
sg71
g3283
sg64
(lp3370
g57
(g78
g59
NtRp3371
(dp3372
g62
(dp3373
g82
g83
ssg71
g3367
sg64
(lp3374
g381
asbag57
(g78
g59
NtRp3375
(dp3376
g62
(dp3377
g89
g90
ssg71
g3367
sg64
(lp3378
S':'
asbag57
(g78
g59
NtRp3379
(dp3380
g62
(dp3381
sg71
g3367
sg64
(lp3382
g57
(g58
g59
NtRp3383
(dp3384
g62
(dp3385
g70
I3
ssg71
g3379
sg64
(lp3386
S''
asbasbasbag57
(g73
g59
NtRp3387
(dp3388
g62
(dp3389
sg71
g3283
sg64
(lp3390
g57
(g78
g59
NtRp3391
(dp3392
g62
(dp3393
g82
g83
ssg71
g3387
sg64
(lp3394
g402
asbag57
(g78
g59
NtRp3395
(dp3396
g62
(dp3397
g89
g90
ssg71
g3387
sg64
(lp3398
S':'
asbag57
(g78
g59
NtRp3399
(dp3400
g62
(dp3401
sg71
g3387
sg64
(lp3402
g57
(g58
g59
NtRp3403
(dp3404
g62
(dp3405
g70
I3
ssg71
g3399
sg64
(lp3406
S'/'
asbasbasbag57
(g73
g59
NtRp3407
(dp3408
g62
(dp3409
sg71
g3283
sg64
(lp3410
g57
(g78
g59
NtRp3411
(dp3412
g62
(dp3413
g82
g83
ssg71
g3407
sg64
(lp3414
g423
asbag57
(g78
g59
NtRp3415
(dp3416
g62
(dp3417
g89
g90
ssg71
g3407
sg64
(lp3418
S':'
asbag57
(g78
g59
NtRp3419
(dp3420
g62
(dp3421
sg71
g3407
sg64
(lp3422
g57
(g58
g59
NtRp3423
(dp3424
g62
(dp3425
g70
I3
ssg71
g3419
sg64
(lp3426
S''
asbasbasbag57
(g73
g59
NtRp3427
(dp3428
g62
(dp3429
sg71
g3283
sg64
(lp3430
g57
(g78
g59
NtRp3431
(dp3432
g62
(dp3433
g82
g83
ssg71
g3427
sg64
(lp3434
g444
asbag57
(g78
g59
NtRp3435
(dp3436
g62
(dp3437
g89
g90
ssg71
g3427
sg64
(lp3438
S':'
asbag57
(g78
g59
NtRp3439
(dp3440
g62
(dp3441
sg71
g3427
sg64
(lp3442
g57
(g58
g59
NtRp3443
(dp3444
g62
(dp3445
g70
I3
ssg71
g3439
sg64
(lp3446
S''
asbasbasbasbasbasbasbasbasbasbasbag57
(g73
g59
NtRp3447
(dp3448
g62
(dp3449
sg71
g3213
sg64
(lp3450
g57
(g78
g59
NtRp3451
(dp3452
g62
(dp3453
g82
g83
ssg71
g3447
sg64
(lp3454
S'delimiters'
p3455
asbag57
(g78
g59
NtRp3456
(dp3457
g62
(dp3458
g89
g90
ssg71
g3447
sg64
(lp3459
S':'
asbag57
(g78
g59
NtRp3460
(dp3461
g62
(dp3462
sg71
g3447
sg64
(lp3463
g57
(g58
g59
NtRp3464
(dp3465
g62
(dp3466
g70
I5
ssg71
g3460
sg64
(lp3467
g57
(g66
g59
NtRp3468
(dp3469
g62
(dp3470
g70
I4
ssg71
Nsg64
(lp3471
g57
(g73
g59
NtRp3472
(dp3473
g62
(dp3474
sg71
g3468
sg64
(lp3475
g57
(g78
g59
NtRp3476
(dp3477
g62
(dp3478
sg71
g3472
sg64
(lp3479
g57
(g58
g59
NtRp3480
(dp3481
g62
(dp3482
g70
I4
ssg71
g3476
sg64
(lp3483
S'{{'
p3484
asbasbasbag57
(g73
g59
NtRp3485
(dp3486
g62
(dp3487
sg71
g3468
sg64
(lp3488
g57
(g78
g59
NtRp3489
(dp3490
g62
(dp3491
sg71
g3485
sg64
(lp3492
g57
(g58
g59
NtRp3493
(dp3494
g62
(dp3495
g70
I4
ssg71
g3489
sg64
(lp3496
S'}}'
p3497
asbasbasbasbasbasbasbag57
(g73
g59
NtRp3498
(dp3499
g62
(dp3500
sg71
g3213
sg64
(lp3501
g57
(g78
g59
NtRp3502
(dp3503
g62
(dp3504
g82
g83
ssg71
g3498
sg64
(lp3505
S'files'
p3506
asbag57
(g78
g59
NtRp3507
(dp3508
g62
(dp3509
g89
g90
ssg71
g3498
sg64
(lp3510
S':'
asbag57
(g78
g59
NtRp3511
(dp3512
g62
(dp3513
sg71
g3498
sg64
(lp3514
g57
(g58
g59
NtRp3515
(dp3516
g62
(dp3517
g70
I5
ssg71
g3511
sg64
(lp3518
g57
(g66
g59
NtRp3519
(dp3520
g62
(dp3521
g70
I4
ssg71
Nsg64
(lp3522
sbasbasbasbag57
(g73
g59
NtRp3523
(dp3524
g62
(dp3525
sg71
g3213
sg64
(lp3526
g57
(g78
g59
NtRp3527
(dp3528
g62
(dp3529
g82
g83
ssg71
g3523
sg64
(lp3530
S'flash'
p3531
asbag57
(g78
g59
NtRp3532
(dp3533
g62
(dp3534
g89
g90
ssg71
g3523
sg64
(lp3535
S':'
asbag57
(g78
g59
NtRp3536
(dp3537
g62
(dp3538
sg71
g3523
sg64
(lp3539
g57
(g58
g59
NtRp3540
(dp3541
g62
(dp3542
g70
I5
ssg71
g3536
sg64
(lp3543
S'Using Telefam de Pepi'
p3544
asbasbasbag57
(g73
g59
NtRp3545
(dp3546
g62
(dp3547
sg71
g3213
sg64
(lp3548
g57
(g78
g59
NtRp3549
(dp3550
g62
(dp3551
g82
g83
ssg71
g3545
sg64
(lp3552
S'generic_patterns'
p3553
asbag57
(g78
g59
NtRp3554
(dp3555
g62
(dp3556
g89
g90
ssg71
g3545
sg64
(lp3557
S':'
asbag57
(g78
g59
NtRp3558
(dp3559
g62
(dp3560
sg71
g3545
sg64
(lp3561
g57
(g58
g59
NtRp3562
(dp3563
g62
(dp3564
g70
I5
ssg71
g3558
sg64
(lp3565
g57
(g66
g59
NtRp3566
(dp3567
g62
(dp3568
g70
I4
ssg71
Nsg64
(lp3569
g57
(g73
g59
NtRp3570
(dp3571
g62
(dp3572
sg71
g3566
sg64
(lp3573
g57
(g78
g59
NtRp3574
(dp3575
g62
(dp3576
sg71
g3570
sg64
(lp3577
g57
(g58
g59
NtRp3578
(dp3579
g62
(dp3580
g70
I4
ssg71
g3574
sg64
(lp3581
S'*.json'
p3582
asbasbasbasbasbasbasbag57
(g73
g59
NtRp3583
(dp3584
g62
(dp3585
sg71
g3213
sg64
(lp3586
g57
(g78
g59
NtRp3587
(dp3588
g62
(dp3589
g82
g83
ssg71
g3583
sg64
(lp3590
S'headers'
p3591
asbag57
(g78
g59
NtRp3592
(dp3593
g62
(dp3594
g89
g90
ssg71
g3583
sg64
(lp3595
S':'
asbag57
(g78
g59
NtRp3596
(dp3597
g62
(dp3598
sg71
g3583
sg64
(lp3599
g57
(g58
g59
NtRp3600
(dp3601
g62
(dp3602
g70
I5
ssg71
g3596
sg64
(lp3603
g57
(g66
g59
NtRp3604
(dp3605
g62
(dp3606
g70
I4
ssg71
Nsg64
(lp3607
g57
(g73
g59
NtRp3608
(dp3609
g62
(dp3610
sg71
g3604
sg64
(lp3611
g57
(g78
g59
NtRp3612
(dp3613
g62
(dp3614
g82
g83
ssg71
g3608
sg64
(lp3615
S'Cache-Control'
p3616
asbag57
(g78
g59
NtRp3617
(dp3618
g62
(dp3619
g89
g90
ssg71
g3608
sg64
(lp3620
S':'
asbag57
(g78
g59
NtRp3621
(dp3622
g62
(dp3623
sg71
g3608
sg64
(lp3624
g57
(g58
g59
NtRp3625
(dp3626
g62
(dp3627
g70
I4
ssg71
g3621
sg64
(lp3628
S'no-store, no-cache, must-revalidate, post-check=0, pre-check=0'
p3629
asbasbasbag57
(g73
g59
NtRp3630
(dp3631
g62
(dp3632
sg71
g3604
sg64
(lp3633
g57
(g78
g59
NtRp3634
(dp3635
g62
(dp3636
g82
g83
ssg71
g3630
sg64
(lp3637
S'Content-Type'
p3638
asbag57
(g78
g59
NtRp3639
(dp3640
g62
(dp3641
g89
g90
ssg71
g3630
sg64
(lp3642
S':'
asbag57
(g78
g59
NtRp3643
(dp3644
g62
(dp3645
sg71
g3630
sg64
(lp3646
g57
(g58
g59
NtRp3647
(dp3648
g62
(dp3649
g70
I4
ssg71
g3643
sg64
(lp3650
S'application/json; charset=utf-8'
p3651
asbasbasbag57
(g73
g59
NtRp3652
(dp3653
g62
(dp3654
sg71
g3604
sg64
(lp3655
g57
(g78
g59
NtRp3656
(dp3657
g62
(dp3658
g82
g83
ssg71
g3652
sg64
(lp3659
S'Expires'
p3660
asbag57
(g78
g59
NtRp3661
(dp3662
g62
(dp3663
g89
g90
ssg71
g3652
sg64
(lp3664
S':'
asbag57
(g78
g59
NtRp3665
(dp3666
g62
(dp3667
sg71
g3652
sg64
(lp3668
g57
(g58
g59
NtRp3669
(dp3670
g62
(dp3671
g70
I4
ssg71
g3665
sg64
(lp3672
S'Wed, 29 Aug 2012 11:51:06 GMT'
p3673
asbasbasbag57
(g73
g59
NtRp3674
(dp3675
g62
(dp3676
sg71
g3604
sg64
(lp3677
g57
(g78
g59
NtRp3678
(dp3679
g62
(dp3680
g82
g83
ssg71
g3674
sg64
(lp3681
S'Pragma'
p3682
asbag57
(g78
g59
NtRp3683
(dp3684
g62
(dp3685
g89
g90
ssg71
g3674
sg64
(lp3686
S':'
asbag57
(g78
g59
NtRp3687
(dp3688
g62
(dp3689
sg71
g3674
sg64
(lp3690
g57
(g58
g59
NtRp3691
(dp3692
g62
(dp3693
g70
I4
ssg71
g3687
sg64
(lp3694
S'no-cache'
p3695
asbasbasbag57
(g73
g59
NtRp3696
(dp3697
g62
(dp3698
sg71
g3604
sg64
(lp3699
g57
(g78
g59
NtRp3700
(dp3701
g62
(dp3702
g82
g83
ssg71
g3696
sg64
(lp3703
S'X-Powered-By'
p3704
asbag57
(g78
g59
NtRp3705
(dp3706
g62
(dp3707
g89
g90
ssg71
g3696
sg64
(lp3708
S':'
asbag57
(g78
g59
NtRp3709
(dp3710
g62
(dp3711
sg71
g3696
sg64
(lp3712
g57
(g58
g59
NtRp3713
(dp3714
g62
(dp3715
g70
I4
ssg71
g3709
sg64
(lp3716
S'web2py'
p3717
asbasbasbasbasbasbasbag57
(g73
g59
NtRp3718
(dp3719
g62
(dp3720
sg71
g3213
sg64
(lp3721
g57
(g78
g59
NtRp3722
(dp3723
g62
(dp3724
g82
g83
ssg71
g3718
sg64
(lp3725
S'menu'
p3726
asbag57
(g78
g59
NtRp3727
(dp3728
g62
(dp3729
g89
g90
ssg71
g3718
sg64
(lp3730
S':'
asbag57
(g78
g59
NtRp3731
(dp3732
g62
(dp3733
sg71
g3718
sg64
(lp3734
g57
(g58
g59
NtRp3735
(dp3736
g62
(dp3737
g70
I5
ssg71
g3731
sg64
(lp3738
g57
(g66
g59
NtRp3739
(dp3740
g62
(dp3741
g70
I4
ssg71
Nsg64
(lp3742
g57
(g73
g59
NtRp3743
(dp3744
g62
(dp3745
sg71
g3739
sg64
(lp3746
g57
(g78
g59
NtRp3747
(dp3748
g62
(dp3749
sg71
g3743
sg64
(lp3750
g57
(g58
g59
NtRp3751
(dp3752
g62
(dp3753
g70
I4
ssg71
g3747
sg64
(lp3754
g57
(g66
g59
NtRp3755
(dp3756
g62
(dp3757
g70
I3
ssg71
Nsg64
(lp3758
g57
(g73
g59
NtRp3759
(dp3760
g62
(dp3761
sg71
g3755
sg64
(lp3762
g57
(g78
g59
NtRp3763
(dp3764
g62
(dp3765
sg71
g3759
sg64
(lp3766
g57
(g58
g59
NtRp3767
(dp3768
g62
(dp3769
g70
I3
ssg71
g3763
sg64
(lp3770
cgluon.languages
lazyT_unpickle
p3771
(S't\x04\x00\x00\x00Home'
tRp3772
asbasbasbag57
(g73
g59
NtRp3773
(dp3774
g62
(dp3775
sg71
g3755
sg64
(lp3776
g57
(g78
g59
NtRp3777
(dp3778
g62
(dp3779
sg71
g3773
sg64
(lp3780
g57
(g58
g59
NtRp3781
(dp3782
g62
(dp3783
g70
I3
ssg71
g3777
sg64
(lp3784
g100
asbasbasbag57
(g73
g59
NtRp3785
(dp3786
g62
(dp3787
sg71
g3755
sg64
(lp3788
g57
(g78
g59
NtRp3789
(dp3790
g62
(dp3791
sg71
g3785
sg64
(lp3792
g57
(g58
g59
NtRp3793
(dp3794
g62
(dp3795
g70
I3
ssg71
g3789
sg64
(lp3796
S'/telefam/default/index'
p3797
asbasbasbag57
(g73
g59
NtRp3798
(dp3799
g62
(dp3800
sg71
g3755
sg64
(lp3801
g57
(g78
g59
NtRp3802
(dp3803
g62
(dp3804
sg71
g3798
sg64
(lp3805
g57
(g58
g59
NtRp3806
(dp3807
g62
(dp3808
g70
I3
ssg71
g3802
sg64
(lp3809
g57
(g66
g59
NtRp3810
(dp3811
g62
(dp3812
g70
I2
ssg71
Nsg64
(lp3813
sbasbasbasbasbasbasbasbag57
(g73
g59
NtRp3814
(dp3815
g62
(dp3816
sg71
g3739
sg64
(lp3817
g57
(g78
g59
NtRp3818
(dp3819
g62
(dp3820
sg71
g3814
sg64
(lp3821
g57
(g58
g59
NtRp3822
(dp3823
g62
(dp3824
g70
I4
ssg71
g3818
sg64
(lp3825
g57
(g66
g59
NtRp3826
(dp3827
g62
(dp3828
g70
I3
ssg71
Nsg64
(lp3829
g57
(g73
g59
NtRp3830
(dp3831
g62
(dp3832
sg71
g3826
sg64
(lp3833
g57
(g78
g59
NtRp3834
(dp3835
g62
(dp3836
sg71
g3830
sg64
(lp3837
g57
(g58
g59
NtRp3838
(dp3839
g62
(dp3840
g70
I3
ssg71
g3834
sg64
(lp3841
g57
(cgluon.html
SPAN
p3842
g59
NtRp3843
(dp3844
g62
(dp3845
g82
S'color:yellow'
p3846
ssg71
Nsg64
(lp3847
S'Actions'
p3848
asbasbasbasbag57
(g73
g59
NtRp3849
(dp3850
g62
(dp3851
sg71
g3826
sg64
(lp3852
g57
(g78
g59
NtRp3853
(dp3854
g62
(dp3855
sg71
g3849
sg64
(lp3856
g57
(g58
g59
NtRp3857
(dp3858
g62
(dp3859
g70
I3
ssg71
g3853
sg64
(lp3860
g100
asbasbasbag57
(g73
g59
NtRp3861
(dp3862
g62
(dp3863
sg71
g3826
sg64
(lp3864
g57
(g78
g59
NtRp3865
(dp3866
g62
(dp3867
sg71
g3861
sg64
(lp3868
g57
(g58
g59
NtRp3869
(dp3870
g62
(dp3871
g70
I3
ssg71
g3865
sg64
(lp3872
S'None'
p3873
asbasbasbag57
(g73
g59
NtRp3874
(dp3875
g62
(dp3876
sg71
g3826
sg64
(lp3877
g57
(g78
g59
NtRp3878
(dp3879
g62
(dp3880
sg71
g3874
sg64
(lp3881
g57
(g58
g59
NtRp3882
(dp3883
g62
(dp3884
g70
I3
ssg71
g3878
sg64
(lp3885
g57
(g66
g59
NtRp3886
(dp3887
g62
(dp3888
g70
I2
ssg71
Nsg64
(lp3889
g57
(g73
g59
NtRp3890
(dp3891
g62
(dp3892
sg71
g3886
sg64
(lp3893
g57
(g78
g59
NtRp3894
(dp3895
g62
(dp3896
sg71
g3890
sg64
(lp3897
g57
(g58
g59
NtRp3898
(dp3899
g62
(dp3900
g70
I2
ssg71
g3894
sg64
(lp3901
g57
(g66
g59
NtRp3902
(dp3903
g62
(dp3904
g70
I1
ssg71
Nsg64
(lp3905
g57
(g73
g59
NtRp3906
(dp3907
g62
(dp3908
sg71
g3902
sg64
(lp3909
g57
(g78
g59
NtRp3910
(dp3911
g62
(dp3912
sg71
g3906
sg64
(lp3913
g57
(g58
g59
NtRp3914
(dp3915
g62
(dp3916
g70
I1
ssg71
g3910
sg64
(lp3917
g3771
(S't\t\x00\x00\x00Messsages'
tRp3918
asbasbasbag57
(g73
g59
NtRp3919
(dp3920
g62
(dp3921
sg71
g3902
sg64
(lp3922
g57
(g78
g59
NtRp3923
(dp3924
g62
(dp3925
sg71
g3919
sg64
(lp3926
g57
(g58
g59
NtRp3927
(dp3928
g62
(dp3929
g70
I1
ssg71
g3923
sg64
(lp3930
I00
asbasbasbag57
(g73
g59
NtRp3931
(dp3932
g62
(dp3933
sg71
g3902
sg64
(lp3934
g57
(g78
g59
NtRp3935
(dp3936
g62
(dp3937
sg71
g3931
sg64
(lp3938
g57
(g58
g59
NtRp3939
(dp3940
g62
(dp3941
g70
I1
ssg71
g3935
sg64
(lp3942
S'/telefam/messages/index'
p3943
asbasbasbasbasbasbasbag57
(g73
g59
NtRp3944
(dp3945
g62
(dp3946
sg71
g3886
sg64
(lp3947
g57
(g78
g59
NtRp3948
(dp3949
g62
(dp3950
sg71
g3944
sg64
(lp3951
g57
(g58
g59
NtRp3952
(dp3953
g62
(dp3954
g70
I2
ssg71
g3948
sg64
(lp3955
g57
(g66
g59
NtRp3956
(dp3957
g62
(dp3958
g70
I1
ssg71
Nsg64
(lp3959
g57
(g73
g59
NtRp3960
(dp3961
g62
(dp3962
sg71
g3956
sg64
(lp3963
g57
(g78
g59
NtRp3964
(dp3965
g62
(dp3966
sg71
g3960
sg64
(lp3967
g57
(g58
g59
NtRp3968
(dp3969
g62
(dp3970
g70
I1
ssg71
g3964
sg64
(lp3971
g3771
(S's\x0f\x00\x00\x00Photo Galleries'
tRp3972
asbasbasbag57
(g73
g59
NtRp3973
(dp3974
g62
(dp3975
sg71
g3956
sg64
(lp3976
g57
(g78
g59
NtRp3977
(dp3978
g62
(dp3979
sg71
g3973
sg64
(lp3980
g57
(g58
g59
NtRp3981
(dp3982
g62
(dp3983
g70
I1
ssg71
g3977
sg64
(lp3984
I00
asbasbasbag57
(g73
g59
NtRp3985
(dp3986
g62
(dp3987
sg71
g3956
sg64
(lp3988
g57
(g78
g59
NtRp3989
(dp3990
g62
(dp3991
sg71
g3985
sg64
(lp3992
g57
(g58
g59
NtRp3993
(dp3994
g62
(dp3995
g70
I1
ssg71
g3989
sg64
(lp3996
S'/telefam/galleries/index'
p3997
asbasbasbasbasbasbasbag57
(g73
g59
NtRp3998
(dp3999
g62
(dp4000
sg71
g3886
sg64
(lp4001
g57
(g78
g59
NtRp4002
(dp4003
g62
(dp4004
sg71
g3998
sg64
(lp4005
g57
(g58
g59
NtRp4006
(dp4007
g62
(dp4008
g70
I2
ssg71
g4002
sg64
(lp4009
g57
(g66
g59
NtRp4010
(dp4011
g62
(dp4012
g70
I1
ssg71
Nsg64
(lp4013
g57
(g73
g59
NtRp4014
(dp4015
g62
(dp4016
sg71
g4010
sg64
(lp4017
g57
(g78
g59
NtRp4018
(dp4019
g62
(dp4020
sg71
g4014
sg64
(lp4021
g57
(g58
g59
NtRp4022
(dp4023
g62
(dp4024
g70
I1
ssg71
g4018
sg64
(lp4025
g3771
(S't\x05\x00\x00\x00Debug'
tRp4026
asbasbasbag57
(g73
g59
NtRp4027
(dp4028
g62
(dp4029
sg71
g4010
sg64
(lp4030
g57
(g78
g59
NtRp4031
(dp4032
g62
(dp4033
sg71
g4027
sg64
(lp4034
g57
(g58
g59
NtRp4035
(dp4036
g62
(dp4037
g70
I1
ssg71
g4031
sg64
(lp4038
I00
asbasbasbag57
(g73
g59
NtRp4039
(dp4040
g62
(dp4041
sg71
g4010
sg64
(lp4042
g57
(g78
g59
NtRp4043
(dp4044
g62
(dp4045
sg71
g4039
sg64
(lp4046
g57
(g58
g59
NtRp4047
(dp4048
g62
(dp4049
g70
I1
ssg71
g4043
sg64
(lp4050
Nasbasbasbag57
(g73
g59
NtRp4051
(dp4052
g62
(dp4053
sg71
g4010
sg64
(lp4054
g57
(g78
g59
NtRp4055
(dp4056
g62
(dp4057
sg71
g4051
sg64
(lp4058
g57
(g58
g59
NtRp4059
(dp4060
g62
(dp4061
g70
I1
ssg71
g4055
sg64
(lp4062
(lp4063
(g3771
(S's\x08\x00\x00\x00This App'
tRp4064
I00
S'/admin/default/design/telefam'
(lp4065
(g3771
(S't\x0b\x00\x00\x00Controlador'
tRp4066
I00
S'/admin/default/edit/telefam/controllers/api.py'
tp4067
a(g3771
(S't\x05\x00\x00\x00Vista'
tRp4068
I00
S'/admin/default/edit/telefam/views/api/call.html'
tp4069
a(g3771
(S's\x12\x00\x00\x00Dise\xc3\xb1o de p\xc3\xa1gina'
tRp4070
I00
S'/admin/default/edit/telefam/views/layout.html'
tp4071
a(g3771
(S's\x0e\x00\x00\x00Hoja de estilo'
tRp4072
I00
S'/admin/default/edit/telefam/static/css/web2py.css'
tp4073
a(g3771
(S's\x0b\x00\x00\x00Modelo "db"'
tRp4074
I00
S'/admin/default/edit/telefam/models/db.py'
tp4075
a(g3771
(S's\r\x00\x00\x00Modelo "menu"'
tRp4076
I00
S'/admin/default/edit/telefam/models/menu.py'
tp4077
a(g3771
(S's\r\x00\x00\x00Base de datos'
tRp4078
I00
S'/telefam/appadmin/index'
tp4079
a(g3771
(S't\x06\x00\x00\x00Errors'
tRp4080
I00
S'/admin/default/errors/telefam'
tp4081
a(g3771
(S's\t\x00\x00\x00Acerca de'
tRp4082
I00
S'/admin/default/about/telefam'
tp4083
atp4084
a(S'web2py.com'
p4085
I00
S'http://www.web2py.com'
p4086
(lp4087
(g3771
(S't\x08\x00\x00\x00Download'
tRp4088
I00
S'http://www.web2py.com/examples/default/download'
p4089
tp4090
a(g3771
(S't\x07\x00\x00\x00Support'
tRp4091
I00
S'http://www.web2py.com/examples/default/support'
p4092
tp4093
a(g3771
(S't\x04\x00\x00\x00Demo'
tRp4094
I00
S'http://web2py.com/demo_admin'
p4095
tp4096
a(g3771
(S's\x0e\x00\x00\x00Quick Examples'
tRp4097
I00
S'http://web2py.com/examples/default/examples'
p4098
tp4099
a(g3771
(S't\x03\x00\x00\x00FAQ'
tRp4100
I00
S'http://web2py.com/AlterEgo'
p4101
tp4102
a(g3771
(S't\x06\x00\x00\x00Videos'
tRp4103
I00
S'http://www.web2py.com/examples/default/videos/'
p4104
tp4105
a(g3771
(S's\x11\x00\x00\x00Free Applications'
tRp4106
I00
S'http://web2py.com/appliances'
p4107
tp4108
a(g3771
(S't\x07\x00\x00\x00Plugins'
tRp4109
I00
S'http://web2py.com/plugins'
p4110
tp4111
a(g3771
(S't\x07\x00\x00\x00Layouts'
tRp4112
I00
S'http://web2py.com/layouts'
p4113
tp4114
a(g3771
(S't\x07\x00\x00\x00Recipes'
tRp4115
I00
S'http://web2pyslices.com/'
p4116
tp4117
a(g3771
(S't\x08\x00\x00\x00Semantic'
tRp4118
I00
S'http://web2py.com/semantic'
p4119
tp4120
atp4121
a(g3771
(S's\x0e\x00\x00\x00Documentaci\xc3\xb3n'
tRp4122
I00
S'http://www.web2py.com/book'
p4123
(lp4124
(g3771
(S't\x07\x00\x00\x00Preface'
tRp4125
I00
S'http://www.web2py.com/book/default/chapter/00'
p4126
tp4127
a(g3771
(S't\x0c\x00\x00\x00Introduction'
tRp4128
I00
S'http://www.web2py.com/book/default/chapter/01'
p4129
tp4130
a(g3771
(S't\x06\x00\x00\x00Python'
tRp4131
I00
S'http://www.web2py.com/book/default/chapter/02'
p4132
tp4133
a(g3771
(S't\x08\x00\x00\x00Overview'
tRp4134
I00
S'http://www.web2py.com/book/default/chapter/03'
p4135
tp4136
a(g3771
(S's\x08\x00\x00\x00The Core'
tRp4137
I00
S'http://www.web2py.com/book/default/chapter/04'
p4138
tp4139
a(g3771
(S's\t\x00\x00\x00The Views'
tRp4140
I00
S'http://www.web2py.com/book/default/chapter/05'
p4141
tp4142
a(g3771
(S's\r\x00\x00\x00Base de datos'
tRp4143
I00
S'http://www.web2py.com/book/default/chapter/06'
p4144
tp4145
a(g3771
(S's\x14\x00\x00\x00Forms and Validators'
tRp4146
I00
S'http://www.web2py.com/book/default/chapter/07'
p4147
tp4148
a(g3771
(S's\r\x00\x00\x00Email and SMS'
tRp4149
I00
S'http://www.web2py.com/book/default/chapter/08'
p4150
tp4151
a(g3771
(S's\x0e\x00\x00\x00Access Control'
tRp4152
I00
S'http://www.web2py.com/book/default/chapter/09'
p4153
tp4154
a(g3771
(S't\x08\x00\x00\x00Services'
tRp4155
I00
S'http://www.web2py.com/book/default/chapter/10'
p4156
tp4157
a(g3771
(S's\x0c\x00\x00\x00Ajax Recipes'
tRp4158
I00
S'http://www.web2py.com/book/default/chapter/11'
p4159
tp4160
a(g3771
(S's\x16\x00\x00\x00Components and Plugins'
tRp4161
I00
S'http://www.web2py.com/book/default/chapter/12'
p4162
tp4163
a(g3771
(S's\x12\x00\x00\x00Deployment Recipes'
tRp4164
I00
S'http://www.web2py.com/book/default/chapter/13'
p4165
tp4166
a(g3771
(S's\r\x00\x00\x00Other Recipes'
tRp4167
I00
S'http://www.web2py.com/book/default/chapter/14'
p4168
tp4169
a(g3771
(S's\r\x00\x00\x00Buy this book'
tRp4170
I00
S'http://stores.lulu.com/web2py'
p4171
tp4172
atp4173
a(g3771
(S't\t\x00\x00\x00Community'
tRp4174
I00
N(lp4175
(g3771
(S't\x06\x00\x00\x00Groups'
tRp4176
I00
S'http://www.web2py.com/examples/default/usergroups'
p4177
tp4178
a(g3771
(S't\x07\x00\x00\x00Twitter'
tRp4179
I00
S'http://twitter.com/web2py'
p4180
tp4181
a(g3771
(S's\t\x00\x00\x00Live Chat'
tRp4182
I00
S'http://webchat.freenode.net/?channels=web2py'
p4183
tp4184
atp4185
a(g3771
(S't\x07\x00\x00\x00Plugins'
tRp4186
I00
N(lp4187
(S'plugin_wiki'
p4188
I00
S'http://web2py.com/examples/default/download'
p4189
tp4190
a(g3771
(S's\r\x00\x00\x00Other Plugins'
tRp4191
I00
g4110
tp4192
a(g3771
(S's\x0e\x00\x00\x00Layout Plugins'
tRp4193
I00
g4113
tp4194
atp4195
aasbasbasbasbasbasbasbasbasbasbasbasbasbasbasbasbasbasbasbag57
(g73
g59
NtRp4196
(dp4197
g62
(dp4198
sg71
g3213
sg64
(lp4199
g57
(g78
g59
NtRp4200
(dp4201
g62
(dp4202
g82
g83
ssg71
g4196
sg64
(lp4203
S'meta'
p4204
asbag57
(g78
g59
NtRp4205
(dp4206
g62
(dp4207
g89
g90
ssg71
g4196
sg64
(lp4208
S':'
asbag57
(g78
g59
NtRp4209
(dp4210
g62
(dp4211
sg71
g4196
sg64
(lp4212
g57
(g58
g59
NtRp4213
(dp4214
g62
(dp4215
g70
I5
ssg71
g4209
sg64
(lp4216
g57
(g66
g59
NtRp4217
(dp4218
g62
(dp4219
g70
I4
ssg71
Nsg64
(lp4220
g57
(g73
g59
NtRp4221
(dp4222
g62
(dp4223
sg71
g4217
sg64
(lp4224
g57
(g78
g59
NtRp4225
(dp4226
g62
(dp4227
g82
g83
ssg71
g4221
sg64
(lp4228
S'author'
p4229
asbag57
(g78
g59
NtRp4230
(dp4231
g62
(dp4232
g89
g90
ssg71
g4221
sg64
(lp4233
S':'
asbag57
(g78
g59
NtRp4234
(dp4235
g62
(dp4236
sg71
g4221
sg64
(lp4237
g57
(g58
g59
NtRp4238
(dp4239
g62
(dp4240
g70
I4
ssg71
g4234
sg64
(lp4241
S'Alfonso de Cala <alfonso@el-magnifico.org>'
p4242
asbasbasbag57
(g73
g59
NtRp4243
(dp4244
g62
(dp4245
sg71
g4217
sg64
(lp4246
g57
(g78
g59
NtRp4247
(dp4248
g62
(dp4249
g82
g83
ssg71
g4243
sg64
(lp4250
S'copyright'
p4251
asbag57
(g78
g59
NtRp4252
(dp4253
g62
(dp4254
g89
g90
ssg71
g4243
sg64
(lp4255
S':'
asbag57
(g78
g59
NtRp4256
(dp4257
g62
(dp4258
sg71
g4243
sg64
(lp4259
g57
(g58
g59
NtRp4260
(dp4261
g62
(dp4262
g70
I4
ssg71
g4256
sg64
(lp4263
S'Copyright 2012'
p4264
asbasbasbag57
(g73
g59
NtRp4265
(dp4266
g62
(dp4267
sg71
g4217
sg64
(lp4268
g57
(g78
g59
NtRp4269
(dp4270
g62
(dp4271
g82
g83
ssg71
g4265
sg64
(lp4272
S'description'
p4273
asbag57
(g78
g59
NtRp4274
(dp4275
g62
(dp4276
g89
g90
ssg71
g4265
sg64
(lp4277
S':'
asbag57
(g78
g59
NtRp4278
(dp4279
g62
(dp4280
sg71
g4265
sg64
(lp4281
g57
(g58
g59
NtRp4282
(dp4283
g62
(dp4284
g70
I4
ssg71
g4278
sg64
(lp4285
S'Telefam: Sharing content with your family, made easy'
p4286
asbasbasbag57
(g73
g59
NtRp4287
(dp4288
g62
(dp4289
sg71
g4217
sg64
(lp4290
g57
(g78
g59
NtRp4291
(dp4292
g62
(dp4293
g82
g83
ssg71
g4287
sg64
(lp4294
S'generator'
p4295
asbag57
(g78
g59
NtRp4296
(dp4297
g62
(dp4298
g89
g90
ssg71
g4287
sg64
(lp4299
S':'
asbag57
(g78
g59
NtRp4300
(dp4301
g62
(dp4302
sg71
g4287
sg64
(lp4303
g57
(g58
g59
NtRp4304
(dp4305
g62
(dp4306
g70
I4
ssg71
g4300
sg64
(lp4307
S'Web2py Web Framework'
p4308
asbasbasbag57
(g73
g59
NtRp4309
(dp4310
g62
(dp4311
sg71
g4217
sg64
(lp4312
g57
(g78
g59
NtRp4313
(dp4314
g62
(dp4315
g82
g83
ssg71
g4309
sg64
(lp4316
S'keywords'
p4317
asbag57
(g78
g59
NtRp4318
(dp4319
g62
(dp4320
g89
g90
ssg71
g4309
sg64
(lp4321
S':'
asbag57
(g78
g59
NtRp4322
(dp4323
g62
(dp4324
sg71
g4309
sg64
(lp4325
g57
(g58
g59
NtRp4326
(dp4327
g62
(dp4328
g70
I4
ssg71
g4322
sg64
(lp4329
S'telefam, social, network, tv, raspberrypi'
p4330
asbasbasbasbasbasbasbag57
(g73
g59
NtRp4331
(dp4332
g62
(dp4333
sg71
g3213
sg64
(lp4334
g57
(g78
g59
NtRp4335
(dp4336
g62
(dp4337
g82
g83
ssg71
g4331
sg64
(lp4338
S'postprocessing'
p4339
asbag57
(g78
g59
NtRp4340
(dp4341
g62
(dp4342
g89
g90
ssg71
g4331
sg64
(lp4343
S':'
asbag57
(g78
g59
NtRp4344
(dp4345
g62
(dp4346
sg71
g4331
sg64
(lp4347
g57
(g58
g59
NtRp4348
(dp4349
g62
(dp4350
g70
I5
ssg71
g4344
sg64
(lp4351
g57
(g66
g59
NtRp4352
(dp4353
g62
(dp4354
g70
I4
ssg71
Nsg64
(lp4355
sbasbasbasbag57
(g73
g59
NtRp4356
(dp4357
g62
(dp4358
sg71
g3213
sg64
(lp4359
g57
(g78
g59
NtRp4360
(dp4361
g62
(dp4362
g82
g83
ssg71
g4356
sg64
(lp4363
S'session_file'
p4364
asbag57
(g78
g59
NtRp4365
(dp4366
g62
(dp4367
g89
g90
ssg71
g4356
sg64
(lp4368
S':'
asbag57
(g78
g59
NtRp4369
(dp4370
g62
(dp4371
sg71
g4356
sg64
(lp4372
g57
(g58
g59
NtRp4373
(dp4374
g62
(dp4375
g70
I5
ssg71
g4369
sg64
(lp4376
S"<open file '/home/alfem/alfem/prog/telefam/server/web2py/applications/telefam/sessions/127.0.0.1-f7f620a6-fd63-4f72-b11a-b8325669ccbf', mode 'rb+' at 0xbd13b78>"
p4377
asbasbasbag57
(g73
g59
NtRp4378
(dp4379
g62
(dp4380
sg71
g3213
sg64
(lp4381
g57
(g78
g59
NtRp4382
(dp4383
g62
(dp4384
g82
g83
ssg71
g4378
sg64
(lp4385
S'session_filename'
p4386
asbag57
(g78
g59
NtRp4387
(dp4388
g62
(dp4389
g89
g90
ssg71
g4378
sg64
(lp4390
S':'
asbag57
(g78
g59
NtRp4391
(dp4392
g62
(dp4393
sg71
g4378
sg64
(lp4394
g57
(g58
g59
NtRp4395
(dp4396
g62
(dp4397
g70
I5
ssg71
g4391
sg64
(lp4398
S'/home/alfem/alfem/prog/telefam/server/web2py/applications/telefam/sessions/127.0.0.1-f7f620a6-fd63-4f72-b11a-b8325669ccbf'
p4399
asbasbasbag57
(g73
g59
NtRp4400
(dp4401
g62
(dp4402
sg71
g3213
sg64
(lp4403
g57
(g78
g59
NtRp4404
(dp4405
g62
(dp4406
g82
g83
ssg71
g4400
sg64
(lp4407
S'session_id'
p4408
asbag57
(g78
g59
NtRp4409
(dp4410
g62
(dp4411
g89
g90
ssg71
g4400
sg64
(lp4412
S':'
asbag57
(g78
g59
NtRp4413
(dp4414
g62
(dp4415
sg71
g4400
sg64
(lp4416
g57
(g58
g59
NtRp4417
(dp4418
g62
(dp4419
g70
I5
ssg71
g4413
sg64
(lp4420
S'127.0.0.1-f7f620a6-fd63-4f72-b11a-b8325669ccbf'
p4421
asbasbasbag57
(g73
g59
NtRp4422
(dp4423
g62
(dp4424
sg71
g3213
sg64
(lp4425
g57
(g78
g59
NtRp4426
(dp4427
g62
(dp4428
g82
g83
ssg71
g4422
sg64
(lp4429
S'session_id_name'
p4430
asbag57
(g78
g59
NtRp4431
(dp4432
g62
(dp4433
g89
g90
ssg71
g4422
sg64
(lp4434
S':'
asbag57
(g78
g59
NtRp4435
(dp4436
g62
(dp4437
sg71
g4422
sg64
(lp4438
g57
(g58
g59
NtRp4439
(dp4440
g62
(dp4441
g70
I5
ssg71
g4435
sg64
(lp4442
g3270
asbasbasbag57
(g73
g59
NtRp4443
(dp4444
g62
(dp4445
sg71
g3213
sg64
(lp4446
g57
(g78
g59
NtRp4447
(dp4448
g62
(dp4449
g82
g83
ssg71
g4443
sg64
(lp4450
S'session_locked'
p4451
asbag57
(g78
g59
NtRp4452
(dp4453
g62
(dp4454
g89
g90
ssg71
g4443
sg64
(lp4455
S':'
asbag57
(g78
g59
NtRp4456
(dp4457
g62
(dp4458
sg71
g4443
sg64
(lp4459
g57
(g58
g59
NtRp4460
(dp4461
g62
(dp4462
g70
I5
ssg71
g4456
sg64
(lp4463
g1520
asbasbasbag57
(g73
g59
NtRp4464
(dp4465
g62
(dp4466
sg71
g3213
sg64
(lp4467
g57
(g78
g59
NtRp4468
(dp4469
g62
(dp4470
g82
g83
ssg71
g4464
sg64
(lp4471
S'session_new'
p4472
asbag57
(g78
g59
NtRp4473
(dp4474
g62
(dp4475
g89
g90
ssg71
g4464
sg64
(lp4476
S':'
asbag57
(g78
g59
NtRp4477
(dp4478
g62
(dp4479
sg71
g4464
sg64
(lp4480
g57
(g58
g59
NtRp4481
(dp4482
g62
(dp4483
g70
I5
ssg71
g4477
sg64
(lp4484
g100
asbasbasbag57
(g73
g59
NtRp4485
(dp4486
g62
(dp4487
sg71
g3213
sg64
(lp4488
g57
(g78
g59
NtRp4489
(dp4490
g62
(dp4491
g82
g83
ssg71
g4485
sg64
(lp4492
S'status'
p4493
asbag57
(g78
g59
NtRp4494
(dp4495
g62
(dp4496
g89
g90
ssg71
g4485
sg64
(lp4497
S':'
asbag57
(g78
g59
NtRp4498
(dp4499
g62
(dp4500
sg71
g4485
sg64
(lp4501
g57
(g58
g59
NtRp4502
(dp4503
g62
(dp4504
g70
I5
ssg71
g4498
sg64
(lp4505
S'200'
p4506
asbasbasbag57
(g73
g59
NtRp4507
(dp4508
g62
(dp4509
sg71
g3213
sg64
(lp4510
g57
(g78
g59
NtRp4511
(dp4512
g62
(dp4513
g82
g83
ssg71
g4507
sg64
(lp4514
S'subtitle'
p4515
asbag57
(g78
g59
NtRp4516
(dp4517
g62
(dp4518
g89
g90
ssg71
g4507
sg64
(lp4519
S':'
asbag57
(g78
g59
NtRp4520
(dp4521
g62
(dp4522
sg71
g4507
sg64
(lp4523
g57
(g58
g59
NtRp4524
(dp4525
g62
(dp4526
g70
I5
ssg71
g4520
sg64
(lp4527
g3771
(S's+\x00\x00\x00Sharing content with your family, made easy'
tRp4528
asbasbasbag57
(g73
g59
NtRp4529
(dp4530
g62
(dp4531
sg71
g3213
sg64
(lp4532
g57
(g78
g59
NtRp4533
(dp4534
g62
(dp4535
g82
g83
ssg71
g4529
sg64
(lp4536
S'title'
p4537
asbag57
(g78
g59
NtRp4538
(dp4539
g62
(dp4540
g89
g90
ssg71
g4529
sg64
(lp4541
S':'
asbag57
(g78
g59
NtRp4542
(dp4543
g62
(dp4544
sg71
g4529
sg64
(lp4545
g57
(g58
g59
NtRp4546
(dp4547
g62
(dp4548
g70
I5
ssg71
g4542
sg64
(lp4549
S'Telefam'
p4550
asbasbasbag57
(g73
g59
NtRp4551
(dp4552
g62
(dp4553
sg71
g3213
sg64
(lp4554
g57
(g78
g59
NtRp4555
(dp4556
g62
(dp4557
g82
g83
ssg71
g4551
sg64
(lp4558
g2249
asbag57
(g78
g59
NtRp4559
(dp4560
g62
(dp4561
g89
g90
ssg71
g4551
sg64
(lp4562
S':'
asbag57
(g78
g59
NtRp4563
(dp4564
g62
(dp4565
sg71
g4551
sg64
(lp4566
g57
(g58
g59
NtRp4567
(dp4568
g62
(dp4569
g70
I5
ssg71
g4563
sg64
(lp4570
g2262
asbasbasbag57
(g73
g59
NtRp4571
(dp4572
g62
(dp4573
sg71
g3213
sg64
(lp4574
g57
(g78
g59
NtRp4575
(dp4576
g62
(dp4577
g82
g83
ssg71
g4571
sg64
(lp4578
S'view'
p4579
asbag57
(g78
g59
NtRp4580
(dp4581
g62
(dp4582
g89
g90
ssg71
g4571
sg64
(lp4583
S':'
asbag57
(g78
g59
NtRp4584
(dp4585
g62
(dp4586
sg71
g4571
sg64
(lp4587
g57
(g58
g59
NtRp4588
(dp4589
g62
(dp4590
g70
I5
ssg71
g4584
sg64
(lp4591
S'api/call.html'
p4592
asbasbasbasbasbsS'locals'
p4593
(dp4594
S'self'
p4595
S"<Row {'sound': '', 'status': 'New', 'user_id': 1...elete_record': <function <lambda> at 0xbea172c>}>"
p4596
sS'm'
S'None'
p4597
sS'key'
p4598
S"'select'"
p4599
sssS'traceback'
p4600
S'Traceback (most recent call last):\n  File "/home/alfem/alfem/prog/telefam/server/web2py/gluon/restricted.py", line 205, in restricted\n    exec ccode in environment\n  File "/home/alfem/alfem/prog/telefam/server/web2py/applications/telefam/controllers/api.py", line 67, in <module>\n  File "/home/alfem/alfem/prog/telefam/server/web2py/gluon/globals.py", line 173, in <lambda>\n    self._caller = lambda f: f()\n  File "/home/alfem/alfem/prog/telefam/server/web2py/applications/telefam/controllers/api.py", line 10, in call\n    return service()\n  File "/home/alfem/alfem/prog/telefam/server/web2py/gluon/tools.py", line 3975, in __call__\n    return self.serve_json(request.args[1:])\n  File "/home/alfem/alfem/prog/telefam/server/web2py/gluon/tools.py", line 3792, in serve_json\n    s = universal_caller(self.json_procedures[args[0]],*args[1:],**d)\n  File "/home/alfem/alfem/prog/telefam/server/web2py/gluon/tools.py", line 3484, in universal_caller\n    return f(**arg_dict)\n  File "/home/alfem/alfem/prog/telefam/server/web2py/applications/telefam/controllers/api.py", line 58, in get_message\n    message=db.messages(id).select(db.messages.id,db.messages.text)\n  File "/home/alfem/alfem/prog/telefam/server/web2py/gluon/dal.py", line 5657, in __getattr__\n    return self[key]\n  File "/home/alfem/alfem/prog/telefam/server/web2py/gluon/dal.py", line 5648, in __getitem__\n    return dict.__getitem__(self, key)\nKeyError: \'select\'\n'
p4601
s.