(dp1
S'output'
p2
S"<type 'exceptions.IndentationError'> expected an indented block (db.py, line 54)"
p3
sS'layer'
p4
S'/home/alfem/alfem/prog/telefam/server/web2py/applications/telefam/models/db.py'
p5
sS'code'
p6
S'# -*- coding: utf-8 -*-\n\n#########################################################################\n## This scaffolding model makes your app work on Google App Engine too\n## File is released under public domain and you can use without limitations\n#########################################################################\n\n## if SSL/HTTPS is properly configured and you want all HTTP requests to\n## be redirected to HTTPS, uncomment the line below:\n# request.requires_https()\n\nif not request.env.web2py_runtime_gae:\n    ## if NOT running on Google App Engine use SQLite or other DB\n    db = DAL(\'sqlite:///home/alfem/alfem/prog/telefam/server/telefam.db\')\nelse:\n    ## connect to Google BigTable (optional \'google:datastore://namespace\')\n    db = DAL(\'google:datastore\')\n    ## store sessions and tickets there\n    session.connect(request, response, db = db)\n    ## or store session in Memcache, Redis, etc.\n    ## from gluon.contrib.memdb import MEMDB\n    ## from google.appengine.api.memcache import Client\n    ## session.connect(request, response, db = MEMDB(Client()))\n\n## by default give a view/generic.extension to all actions from localhost\n## none otherwise. a pattern can be \'controller/function.extension\'\n\n#response.generic_patterns = [\'*\'] if request.is_local else []\n\nresponse.generic_patterns = [\'*.json\'] \n\n\n## (optional) optimize handling of static files\n# response.optimize_css = \'concat,minify,inline\'\n# response.optimize_js = \'concat,minify,inline\'\n\n#########################################################################\n## Here is sample code if you need for\n## - email capabilities\n## - authentication (registration, login, logout, ... )\n## - authorization (role based authorization)\n## - services (xml, csv, json, xmlrpc, jsonrpc, amf, rss)\n## - old style crud actions\n## (more options discussed in gluon/tools.py)\n#########################################################################\n\nfrom gluon.tools import Auth, Crud, Service, PluginManager, prettydate\nauth = Auth(db, hmac_key=Auth.get_or_create_key())\nauth.settings.extra_fields[\'auth_user\']= [\n    Field(\'photo\',\'upload\',autodelete=True),\n    Field(\'updated_on\',\'datetime\', default=request.now, readable=False, writable=False)]\n\ndef update(form):\nuser.update_on=request.now\nform.first_name="TTT"\nreturn form\nauth.settings.login_onaccept.append(update(form))\n\ncrud, service, plugins = Crud(db), Service(), PluginManager()\n\n## create all tables needed by auth if not custom tables\nauth.define_tables()\n\n## configure email\nmail=auth.settings.mailer\nmail.settings.server = \'smtp.el-magnifico.org\'\nmail.settings.sender = \'alfonso@el-magnifico.org\'\nmail.settings.login = \'alfonso:alfemi\'\n\n## configure auth policy\nauth.settings.registration_requires_verification = False\nauth.settings.registration_requires_approval = False\nauth.settings.reset_password_requires_verification = True\n\n## if you need to use OpenID, Facebook, MySpace, Twitter, Linkedin, etc.\n## register with janrain.com, write your domain:api_key in private/janrain.key\n#from gluon.contrib.login_methods.rpx_account import use_janrain\n#use_janrain(auth,filename=\'private/janrain.key\')\n\n#########################################################################\n## Define your tables below (or better in another model file) for example\n##\n## >>> db.define_table(\'mytable\',Field(\'myfield\',\'string\'))\n##\n## Fields can be \'string\',\'text\',\'password\',\'integer\',\'double\',\'boolean\'\n##       \'date\',\'time\',\'datetime\',\'blob\',\'upload\', \'reference TABLENAME\'\n## There is an implicit \'id integer autoincrement\' field\n## Consult manual for more options, validators, etc.\n##\n## More API examples for controllers:\n##\n## >>> db.mytable.insert(myfield=\'value\')\n## >>> rows=db(db.mytable.myfield==\'value\').select(db.mytable.ALL)\n## >>> for row in rows: print row.id, row.myfield\n#########################################################################\n\ndb.define_table(\'telefams\',\n   Field(\'description\',length=80),\n   Field(\'user_id\', db.auth_user, default=auth.user_id),\n   Field(\'key\', length=32),\n   Field(\'last_connection\', \'datetime\'))\n   \ndb.telefams.description.requires = IS_NOT_EMPTY()\ndb.telefams.user_id.requires = IS_IN_DB(db, db.auth_user.id)\ndb.telefams.user_id.readable = db.telefams.user_id.writable = False\ndb.telefams.last_connection.writable = False\n\ndb.define_table(\'messages\',\n   Field(\'user_id\', db.auth_user, default=auth.user_id),\n   Field(\'telefam_id\', db.telefams, default=session.telefam_id),\n   Field(\'text\',\'text\',length=512),\n   Field(\'photo\',\'upload\',autodelete=True),\n   Field(\'sound\',\'upload\'),\n   Field(\'status\', default="New"),\n   Field(\'created_on\', \'datetime\', default=request.now),\n   Field(\'read_on\', \'datetime\'),\n   Field(\'updated_on\', \'datetime\', default=request.now)\n   )\n\ndb.messages.user_id.requires = IS_IN_DB(db, db.auth_user.id)\ndb.messages.user_id.readable = db.messages.user_id.writable = False\ndb.messages.telefam_id.requires = IS_IN_DB(db, db.telefams.id)\ndb.messages.telefam_id.readable = db.messages.telefam_id.writable = False\ndb.messages.text.requires = IS_NOT_EMPTY()\ndb.messages.status.readable = db.messages.status.writable = False\ndb.messages.status.requires= IS_IN_SET([\'New\', \'Sent\', \'Read\'])\ndb.messages.user_id.readable = False\ndb.messages.telefam_id.readable = False\ndb.messages.created_on.writable = False\ndb.messages.read_on.writable = False\ndb.messages.updated_on.readable = db.messages.updated_on.writable = False\n\ndb.define_table(\'galleries\',\n   Field(\'user_id\', db.auth_user, default=auth.user_id),\n   Field(\'telefam_id\', db.telefams, default=session.telefam_id),\n   Field(\'description\',length=80),\n   Field(\'service\', default="flickr"),\n   Field(\'url\',default="http://www.flickr.com/photos/..."),\n   Field(\'status\', default="New"),\n   Field(\'created_on\', \'datetime\', default=request.now),\n   Field(\'read_on\', \'datetime\'),\n   Field(\'updated_on\', \'datetime\', default=request.now)\n   )\n\ndb.galleries.user_id.requires = IS_IN_DB(db, db.auth_user.id)\ndb.galleries.user_id.readable = db.galleries.user_id.writable = False\ndb.galleries.telefam_id.requires = IS_IN_DB(db, db.telefams.id)\ndb.galleries.telefam_id.readable = db.galleries.telefam_id.writable = False\ndb.galleries.description.requires = IS_NOT_EMPTY()\ndb.galleries.service.requires= IS_IN_SET([\'Flickr\'])\ndb.galleries.status.readable = db.galleries.status.writable = False\ndb.galleries.status.requires= IS_IN_SET([\'New\', \'Sent\', \'Read\'])\ndb.galleries.user_id.readable = False\ndb.galleries.telefam_id.readable = False\ndb.galleries.created_on.writable = False\ndb.galleries.read_on.writable = False\ndb.galleries.updated_on.readable = db.galleries.updated_on.writable = False\n\n'
p7
sS'snapshot'
p8
(dp9
S'exception'
p10
(dp11
S'__getslice__'
p12
S"<method-wrapper '__getslice__' of exceptions.IndentationError object>"
p13
sS'text'
p14
S"'user.update_on=request.now\\n'"
p15
sS'__str__'
p16
S"<method-wrapper '__str__' of exceptions.IndentationError object>"
p17
sS'__reduce__'
p18
S'<built-in method __reduce__ of exceptions.IndentationError object>'
p19
sS'__dict__'
p20
S'{}'
p21
sS'__sizeof__'
p22
S'<built-in method __sizeof__ of exceptions.IndentationError object>'
p23
sS'__init__'
p24
S"<method-wrapper '__init__' of exceptions.IndentationError object>"
p25
sS'__setattr__'
p26
S"<method-wrapper '__setattr__' of exceptions.IndentationError object>"
p27
sS'__reduce_ex__'
p28
S'<built-in method __reduce_ex__ of exceptions.IndentationError object>'
p29
sS'__new__'
p30
S'<built-in method __new__ of type object>'
p31
sS'__format__'
p32
S'<built-in method __format__ of exceptions.IndentationError object>'
p33
sS'__class__'
p34
S"<type 'exceptions.IndentationError'>"
p35
sS'filename'
p36
S"'/home/alfem/alfem/prog/telefam/server/web2py/applications/telefam/models/db.py'"
p37
sS'lineno'
p38
S'54'
p39
sS'msg'
p40
S"'expected an indented block'"
p41
sS'__doc__'
p42
S"'Improper indentation.'"
p43
sS'__getitem__'
p44
S"<method-wrapper '__getitem__' of exceptions.IndentationError object>"
p45
sS'__setstate__'
p46
S'<built-in method __setstate__ of exceptions.IndentationError object>'
p47
sS'__getattribute__'
p48
S"<method-wrapper '__getattribute__' of exceptions.IndentationError object>"
p49
sS'print_file_and_line'
p50
S'None'
p51
sS'args'
p52
S"('expected an indented block', ('/home/alfem/alfem/prog/telefam/server/web2py/applications/telefam/models/db.py', 54, 4, 'user.update_on=request.now\\n'))"
p53
sS'__subclasshook__'
p54
S'<built-in method __subclasshook__ of type object>'
p55
sS'offset'
p56
S'4'
sS'__unicode__'
p57
S'<built-in method __unicode__ of exceptions.IndentationError object>'
p58
sS'__delattr__'
p59
S"<method-wrapper '__delattr__' of exceptions.IndentationError object>"
p60
sS'__repr__'
p61
S"<method-wrapper '__repr__' of exceptions.IndentationError object>"
p62
sS'__hash__'
p63
S"<method-wrapper '__hash__' of exceptions.IndentationError object>"
p64
ssS'evalue'
p65
S'expected an indented block (db.py, line 54)'
p66
sS'request'
p67
ccopy_reg
_reconstructor
p68
(cgluon.html
BEAUTIFY
p69
c__builtin__
object
p70
NtRp71
(dp72
S'attributes'
p73
(dp74
sS'components'
p75
(lp76
g68
(cgluon.html
TABLE
p77
g70
NtRp78
(dp79
g73
(dp80
S'level'
p81
I5
ssS'parent'
p82
Nsg75
(lp83
g68
(cgluon.html
TR
p84
g70
NtRp85
(dp86
g73
(dp87
sg82
g78
sg75
(lp88
g68
(cgluon.html
TD
p89
g70
NtRp90
(dp91
g73
(dp92
S'_style'
p93
S'font-weight:bold;vertical-align:top'
p94
ssg82
g85
sg75
(lp95
S'ajax'
p96
asbag68
(g89
g70
NtRp97
(dp98
g73
(dp99
S'_valign'
p100
S'top'
p101
ssg82
g85
sg75
(lp102
S':'
asbag68
(g89
g70
NtRp103
(dp104
g73
(dp105
sg82
g85
sg75
(lp106
g68
(g69
g70
NtRp107
(dp108
g73
(dp109
g81
I5
ssg82
g103
sg75
(lp110
S'False'
p111
asbasbasbag68
(g84
g70
NtRp112
(dp113
g73
(dp114
sg82
g78
sg75
(lp115
g68
(g89
g70
NtRp116
(dp117
g73
(dp118
g93
g94
ssg82
g112
sg75
(lp119
S'application'
p120
asbag68
(g89
g70
NtRp121
(dp122
g73
(dp123
g100
g101
ssg82
g112
sg75
(lp124
S':'
asbag68
(g89
g70
NtRp125
(dp126
g73
(dp127
sg82
g112
sg75
(lp128
g68
(g69
g70
NtRp129
(dp130
g73
(dp131
g81
I5
ssg82
g125
sg75
(lp132
S'telefam'
p133
asbasbasbag68
(g84
g70
NtRp134
(dp135
g73
(dp136
sg82
g78
sg75
(lp137
g68
(g89
g70
NtRp138
(dp139
g73
(dp140
g93
g94
ssg82
g134
sg75
(lp141
g52
asbag68
(g89
g70
NtRp142
(dp143
g73
(dp144
g100
g101
ssg82
g134
sg75
(lp145
S':'
asbag68
(g89
g70
NtRp146
(dp147
g73
(dp148
sg82
g134
sg75
(lp149
g68
(g69
g70
NtRp150
(dp151
g73
(dp152
g81
I5
ssg82
g146
sg75
(lp153
g68
(g77
g70
NtRp154
(dp155
g73
(dp156
g81
I4
ssg82
Nsg75
(lp157
g68
(g84
g70
NtRp158
(dp159
g73
(dp160
sg82
g154
sg75
(lp161
g68
(g89
g70
NtRp162
(dp163
g73
(dp164
sg82
g158
sg75
(lp165
g68
(g69
g70
NtRp166
(dp167
g73
(dp168
g81
I4
ssg82
g162
sg75
(lp169
S'profile'
p170
asbasbasbasbasbasbasbag68
(g84
g70
NtRp171
(dp172
g73
(dp173
sg82
g78
sg75
(lp174
g68
(g89
g70
NtRp175
(dp176
g73
(dp177
g93
g94
ssg82
g171
sg75
(lp178
S'body'
p179
asbag68
(g89
g70
NtRp180
(dp181
g73
(dp182
g100
g101
ssg82
g171
sg75
(lp183
S':'
asbag68
(g89
g70
NtRp184
(dp185
g73
(dp186
sg82
g171
sg75
(lp187
g68
(g69
g70
NtRp188
(dp189
g73
(dp190
g81
I5
ssg82
g184
sg75
(lp191
S"<open file '<fdopen>', mode 'w+b' at 0xa582910>"
p192
asbasbasbag68
(g84
g70
NtRp193
(dp194
g73
(dp195
sg82
g78
sg75
(lp196
g68
(g89
g70
NtRp197
(dp198
g73
(dp199
g93
g94
ssg82
g193
sg75
(lp200
S'client'
p201
asbag68
(g89
g70
NtRp202
(dp203
g73
(dp204
g100
g101
ssg82
g193
sg75
(lp205
S':'
asbag68
(g89
g70
NtRp206
(dp207
g73
(dp208
sg82
g193
sg75
(lp209
g68
(g69
g70
NtRp210
(dp211
g73
(dp212
g81
I5
ssg82
g206
sg75
(lp213
S'127.0.0.1'
p214
asbasbasbag68
(g84
g70
NtRp215
(dp216
g73
(dp217
sg82
g78
sg75
(lp218
g68
(g89
g70
NtRp219
(dp220
g73
(dp221
g93
g94
ssg82
g215
sg75
(lp222
S'controller'
p223
asbag68
(g89
g70
NtRp224
(dp225
g73
(dp226
g100
g101
ssg82
g215
sg75
(lp227
S':'
asbag68
(g89
g70
NtRp228
(dp229
g73
(dp230
sg82
g215
sg75
(lp231
g68
(g69
g70
NtRp232
(dp233
g73
(dp234
g81
I5
ssg82
g228
sg75
(lp235
S'default'
p236
asbasbasbag68
(g84
g70
NtRp237
(dp238
g73
(dp239
sg82
g78
sg75
(lp240
g68
(g89
g70
NtRp241
(dp242
g73
(dp243
g93
g94
ssg82
g237
sg75
(lp244
S'cookies'
p245
asbag68
(g89
g70
NtRp246
(dp247
g73
(dp248
g100
g101
ssg82
g237
sg75
(lp249
S':'
asbag68
(g89
g70
NtRp250
(dp251
g73
(dp252
sg82
g237
sg75
(lp253
g68
(g69
g70
NtRp254
(dp255
g73
(dp256
g81
I5
ssg82
g250
sg75
(lp257
g68
(g77
g70
NtRp258
(dp259
g73
(dp260
g81
I4
ssg82
Nsg75
(lp261
g68
(g84
g70
NtRp262
(dp263
g73
(dp264
sg82
g258
sg75
(lp265
g68
(g89
g70
NtRp266
(dp267
g73
(dp268
g93
g94
ssg82
g262
sg75
(lp269
S'session_id_admin'
p270
asbag68
(g89
g70
NtRp271
(dp272
g73
(dp273
g100
g101
ssg82
g262
sg75
(lp274
S':'
asbag68
(g89
g70
NtRp275
(dp276
g73
(dp277
sg82
g262
sg75
(lp278
g68
(g69
g70
NtRp279
(dp280
g73
(dp281
g81
I4
ssg82
g275
sg75
(lp282
g68
(g77
g70
NtRp283
(dp284
g73
(dp285
g81
I3
ssg82
Nsg75
(lp286
g68
(g84
g70
NtRp287
(dp288
g73
(dp289
sg82
g283
sg75
(lp290
g68
(g89
g70
NtRp291
(dp292
g73
(dp293
g93
g94
ssg82
g287
sg75
(lp294
S'comment'
p295
asbag68
(g89
g70
NtRp296
(dp297
g73
(dp298
g100
g101
ssg82
g287
sg75
(lp299
S':'
asbag68
(g89
g70
NtRp300
(dp301
g73
(dp302
sg82
g287
sg75
(lp303
g68
(g69
g70
NtRp304
(dp305
g73
(dp306
g81
I3
ssg82
g300
sg75
(lp307
S''
asbasbasbag68
(g84
g70
NtRp308
(dp309
g73
(dp310
sg82
g283
sg75
(lp311
g68
(g89
g70
NtRp312
(dp313
g73
(dp314
g93
g94
ssg82
g308
sg75
(lp315
S'domain'
p316
asbag68
(g89
g70
NtRp317
(dp318
g73
(dp319
g100
g101
ssg82
g308
sg75
(lp320
S':'
asbag68
(g89
g70
NtRp321
(dp322
g73
(dp323
sg82
g308
sg75
(lp324
g68
(g69
g70
NtRp325
(dp326
g73
(dp327
g81
I3
ssg82
g321
sg75
(lp328
S''
asbasbasbag68
(g84
g70
NtRp329
(dp330
g73
(dp331
sg82
g283
sg75
(lp332
g68
(g89
g70
NtRp333
(dp334
g73
(dp335
g93
g94
ssg82
g329
sg75
(lp336
S'expires'
p337
asbag68
(g89
g70
NtRp338
(dp339
g73
(dp340
g100
g101
ssg82
g329
sg75
(lp341
S':'
asbag68
(g89
g70
NtRp342
(dp343
g73
(dp344
sg82
g329
sg75
(lp345
g68
(g69
g70
NtRp346
(dp347
g73
(dp348
g81
I3
ssg82
g342
sg75
(lp349
S''
asbasbasbag68
(g84
g70
NtRp350
(dp351
g73
(dp352
sg82
g283
sg75
(lp353
g68
(g89
g70
NtRp354
(dp355
g73
(dp356
g93
g94
ssg82
g350
sg75
(lp357
S'httponly'
p358
asbag68
(g89
g70
NtRp359
(dp360
g73
(dp361
g100
g101
ssg82
g350
sg75
(lp362
S':'
asbag68
(g89
g70
NtRp363
(dp364
g73
(dp365
sg82
g350
sg75
(lp366
g68
(g69
g70
NtRp367
(dp368
g73
(dp369
g81
I3
ssg82
g363
sg75
(lp370
S''
asbasbasbag68
(g84
g70
NtRp371
(dp372
g73
(dp373
sg82
g283
sg75
(lp374
g68
(g89
g70
NtRp375
(dp376
g73
(dp377
g93
g94
ssg82
g371
sg75
(lp378
S'max-age'
p379
asbag68
(g89
g70
NtRp380
(dp381
g73
(dp382
g100
g101
ssg82
g371
sg75
(lp383
S':'
asbag68
(g89
g70
NtRp384
(dp385
g73
(dp386
sg82
g371
sg75
(lp387
g68
(g69
g70
NtRp388
(dp389
g73
(dp390
g81
I3
ssg82
g384
sg75
(lp391
S''
asbasbasbag68
(g84
g70
NtRp392
(dp393
g73
(dp394
sg82
g283
sg75
(lp395
g68
(g89
g70
NtRp396
(dp397
g73
(dp398
g93
g94
ssg82
g392
sg75
(lp399
S'path'
p400
asbag68
(g89
g70
NtRp401
(dp402
g73
(dp403
g100
g101
ssg82
g392
sg75
(lp404
S':'
asbag68
(g89
g70
NtRp405
(dp406
g73
(dp407
sg82
g392
sg75
(lp408
g68
(g69
g70
NtRp409
(dp410
g73
(dp411
g81
I3
ssg82
g405
sg75
(lp412
S''
asbasbasbag68
(g84
g70
NtRp413
(dp414
g73
(dp415
sg82
g283
sg75
(lp416
g68
(g89
g70
NtRp417
(dp418
g73
(dp419
g93
g94
ssg82
g413
sg75
(lp420
S'secure'
p421
asbag68
(g89
g70
NtRp422
(dp423
g73
(dp424
g100
g101
ssg82
g413
sg75
(lp425
S':'
asbag68
(g89
g70
NtRp426
(dp427
g73
(dp428
sg82
g413
sg75
(lp429
g68
(g69
g70
NtRp430
(dp431
g73
(dp432
g81
I3
ssg82
g426
sg75
(lp433
S''
asbasbasbag68
(g84
g70
NtRp434
(dp435
g73
(dp436
sg82
g283
sg75
(lp437
g68
(g89
g70
NtRp438
(dp439
g73
(dp440
g93
g94
ssg82
g434
sg75
(lp441
S'version'
p442
asbag68
(g89
g70
NtRp443
(dp444
g73
(dp445
g100
g101
ssg82
g434
sg75
(lp446
S':'
asbag68
(g89
g70
NtRp447
(dp448
g73
(dp449
sg82
g434
sg75
(lp450
g68
(g69
g70
NtRp451
(dp452
g73
(dp453
g81
I3
ssg82
g447
sg75
(lp454
S''
asbasbasbasbasbasbasbag68
(g84
g70
NtRp455
(dp456
g73
(dp457
sg82
g258
sg75
(lp458
g68
(g89
g70
NtRp459
(dp460
g73
(dp461
g93
g94
ssg82
g455
sg75
(lp462
S'session_id_telefam'
p463
asbag68
(g89
g70
NtRp464
(dp465
g73
(dp466
g100
g101
ssg82
g455
sg75
(lp467
S':'
asbag68
(g89
g70
NtRp468
(dp469
g73
(dp470
sg82
g455
sg75
(lp471
g68
(g69
g70
NtRp472
(dp473
g73
(dp474
g81
I4
ssg82
g468
sg75
(lp475
g68
(g77
g70
NtRp476
(dp477
g73
(dp478
g81
I3
ssg82
Nsg75
(lp479
g68
(g84
g70
NtRp480
(dp481
g73
(dp482
sg82
g476
sg75
(lp483
g68
(g89
g70
NtRp484
(dp485
g73
(dp486
g93
g94
ssg82
g480
sg75
(lp487
g295
asbag68
(g89
g70
NtRp488
(dp489
g73
(dp490
g100
g101
ssg82
g480
sg75
(lp491
S':'
asbag68
(g89
g70
NtRp492
(dp493
g73
(dp494
sg82
g480
sg75
(lp495
g68
(g69
g70
NtRp496
(dp497
g73
(dp498
g81
I3
ssg82
g492
sg75
(lp499
S''
asbasbasbag68
(g84
g70
NtRp500
(dp501
g73
(dp502
sg82
g476
sg75
(lp503
g68
(g89
g70
NtRp504
(dp505
g73
(dp506
g93
g94
ssg82
g500
sg75
(lp507
g316
asbag68
(g89
g70
NtRp508
(dp509
g73
(dp510
g100
g101
ssg82
g500
sg75
(lp511
S':'
asbag68
(g89
g70
NtRp512
(dp513
g73
(dp514
sg82
g500
sg75
(lp515
g68
(g69
g70
NtRp516
(dp517
g73
(dp518
g81
I3
ssg82
g512
sg75
(lp519
S''
asbasbasbag68
(g84
g70
NtRp520
(dp521
g73
(dp522
sg82
g476
sg75
(lp523
g68
(g89
g70
NtRp524
(dp525
g73
(dp526
g93
g94
ssg82
g520
sg75
(lp527
g337
asbag68
(g89
g70
NtRp528
(dp529
g73
(dp530
g100
g101
ssg82
g520
sg75
(lp531
S':'
asbag68
(g89
g70
NtRp532
(dp533
g73
(dp534
sg82
g520
sg75
(lp535
g68
(g69
g70
NtRp536
(dp537
g73
(dp538
g81
I3
ssg82
g532
sg75
(lp539
S''
asbasbasbag68
(g84
g70
NtRp540
(dp541
g73
(dp542
sg82
g476
sg75
(lp543
g68
(g89
g70
NtRp544
(dp545
g73
(dp546
g93
g94
ssg82
g540
sg75
(lp547
g358
asbag68
(g89
g70
NtRp548
(dp549
g73
(dp550
g100
g101
ssg82
g540
sg75
(lp551
S':'
asbag68
(g89
g70
NtRp552
(dp553
g73
(dp554
sg82
g540
sg75
(lp555
g68
(g69
g70
NtRp556
(dp557
g73
(dp558
g81
I3
ssg82
g552
sg75
(lp559
S''
asbasbasbag68
(g84
g70
NtRp560
(dp561
g73
(dp562
sg82
g476
sg75
(lp563
g68
(g89
g70
NtRp564
(dp565
g73
(dp566
g93
g94
ssg82
g560
sg75
(lp567
g379
asbag68
(g89
g70
NtRp568
(dp569
g73
(dp570
g100
g101
ssg82
g560
sg75
(lp571
S':'
asbag68
(g89
g70
NtRp572
(dp573
g73
(dp574
sg82
g560
sg75
(lp575
g68
(g69
g70
NtRp576
(dp577
g73
(dp578
g81
I3
ssg82
g572
sg75
(lp579
S''
asbasbasbag68
(g84
g70
NtRp580
(dp581
g73
(dp582
sg82
g476
sg75
(lp583
g68
(g89
g70
NtRp584
(dp585
g73
(dp586
g93
g94
ssg82
g580
sg75
(lp587
g400
asbag68
(g89
g70
NtRp588
(dp589
g73
(dp590
g100
g101
ssg82
g580
sg75
(lp591
S':'
asbag68
(g89
g70
NtRp592
(dp593
g73
(dp594
sg82
g580
sg75
(lp595
g68
(g69
g70
NtRp596
(dp597
g73
(dp598
g81
I3
ssg82
g592
sg75
(lp599
S''
asbasbasbag68
(g84
g70
NtRp600
(dp601
g73
(dp602
sg82
g476
sg75
(lp603
g68
(g89
g70
NtRp604
(dp605
g73
(dp606
g93
g94
ssg82
g600
sg75
(lp607
g421
asbag68
(g89
g70
NtRp608
(dp609
g73
(dp610
g100
g101
ssg82
g600
sg75
(lp611
S':'
asbag68
(g89
g70
NtRp612
(dp613
g73
(dp614
sg82
g600
sg75
(lp615
g68
(g69
g70
NtRp616
(dp617
g73
(dp618
g81
I3
ssg82
g612
sg75
(lp619
S''
asbasbasbag68
(g84
g70
NtRp620
(dp621
g73
(dp622
sg82
g476
sg75
(lp623
g68
(g89
g70
NtRp624
(dp625
g73
(dp626
g93
g94
ssg82
g620
sg75
(lp627
g442
asbag68
(g89
g70
NtRp628
(dp629
g73
(dp630
g100
g101
ssg82
g620
sg75
(lp631
S':'
asbag68
(g89
g70
NtRp632
(dp633
g73
(dp634
sg82
g620
sg75
(lp635
g68
(g69
g70
NtRp636
(dp637
g73
(dp638
g81
I3
ssg82
g632
sg75
(lp639
S''
asbasbasbasbasbasbasbasbasbasbasbag68
(g84
g70
NtRp640
(dp641
g73
(dp642
sg82
g78
sg75
(lp643
g68
(g89
g70
NtRp644
(dp645
g73
(dp646
g93
g94
ssg82
g640
sg75
(lp647
S'env'
p648
asbag68
(g89
g70
NtRp649
(dp650
g73
(dp651
g100
g101
ssg82
g640
sg75
(lp652
S':'
asbag68
(g89
g70
NtRp653
(dp654
g73
(dp655
sg82
g640
sg75
(lp656
g68
(g69
g70
NtRp657
(dp658
g73
(dp659
g81
I5
ssg82
g653
sg75
(lp660
g68
(g77
g70
NtRp661
(dp662
g73
(dp663
g81
I4
ssg82
Nsg75
(lp664
g68
(g84
g70
NtRp665
(dp666
g73
(dp667
sg82
g661
sg75
(lp668
g68
(g89
g70
NtRp669
(dp670
g73
(dp671
g93
g94
ssg82
g665
sg75
(lp672
S'app_folders'
p673
asbag68
(g89
g70
NtRp674
(dp675
g73
(dp676
g100
g101
ssg82
g665
sg75
(lp677
S':'
asbag68
(g89
g70
NtRp678
(dp679
g73
(dp680
sg82
g665
sg75
(lp681
g68
(g69
g70
NtRp682
(dp683
g73
(dp684
g81
I4
ssg82
g678
sg75
(lp685
S"set(['/home/alfem/alfem/prog/telefam/server/web2py/applications/admin/', '/home/alfem/alfem/prog/telefam/server/web2py/applications/telefam/'])"
p686
asbasbasbag68
(g84
g70
NtRp687
(dp688
g73
(dp689
sg82
g661
sg75
(lp690
g68
(g89
g70
NtRp691
(dp692
g73
(dp693
g93
g94
ssg82
g687
sg75
(lp694
S'applications_parent'
p695
asbag68
(g89
g70
NtRp696
(dp697
g73
(dp698
g100
g101
ssg82
g687
sg75
(lp699
S':'
asbag68
(g89
g70
NtRp700
(dp701
g73
(dp702
sg82
g687
sg75
(lp703
g68
(g69
g70
NtRp704
(dp705
g73
(dp706
g81
I4
ssg82
g700
sg75
(lp707
S'/home/alfem/alfem/prog/telefam/server/web2py'
p708
asbasbasbag68
(g84
g70
NtRp709
(dp710
g73
(dp711
sg82
g661
sg75
(lp712
g68
(g89
g70
NtRp713
(dp714
g73
(dp715
g93
g94
ssg82
g709
sg75
(lp716
S'cmd_args'
p717
asbag68
(g89
g70
NtRp718
(dp719
g73
(dp720
g100
g101
ssg82
g709
sg75
(lp721
S':'
asbag68
(g89
g70
NtRp722
(dp723
g73
(dp724
sg82
g709
sg75
(lp725
g68
(g69
g70
NtRp726
(dp727
g73
(dp728
g81
I4
ssg82
g722
sg75
(lp729
g68
(g77
g70
NtRp730
(dp731
g73
(dp732
g81
I3
ssg82
Nsg75
(lp733
sbasbasbasbag68
(g84
g70
NtRp734
(dp735
g73
(dp736
sg82
g661
sg75
(lp737
g68
(g89
g70
NtRp738
(dp739
g73
(dp740
g93
g94
ssg82
g734
sg75
(lp741
S'cmd_options'
p742
asbag68
(g89
g70
NtRp743
(dp744
g73
(dp745
g100
g101
ssg82
g734
sg75
(lp746
S':'
asbag68
(g89
g70
NtRp747
(dp748
g73
(dp749
sg82
g734
sg75
(lp750
g68
(g69
g70
NtRp751
(dp752
g73
(dp753
g81
I4
ssg82
g747
sg75
(lp754
S"<Values at 0xa12a20c: {'verbose': False, 'ip': '127.0.0.1', 'shutdown_timeout': 5, 'taskbar': False, 'nocron': False, 'pid_filename': 'httpserver.pid', 'maxthreads': None, 'softcron': False, 'server_name': 'acala', 'bpython': False, 'nogui': False, 'port': 8000, 'extcron': False, 'debuglevel': 30, 'test': None, 'folder': '/home/alfem/alfem/prog/telefam/server/web2py', 'config': '', 'import_models': False, 'winservice': '', 'shell': None, 'run': '', 'log_filename': 'httpserver.log', 'args': [''], 'socket_timeout': 5, 'ssl_ca_certificate': None, 'scheduler': None, 'profiler_filename': None, 'ssl_private_key': '', 'password': '1234', 'request_queue_size': 5, 'ssl_certificate': '', 'cronjob': False, 'numthreads': None, 'quiet': False, 'interfaces': None, 'minthreads': None, 'timeout': 10, 'plain': False, 'nobanner': False}>"
p755
asbasbasbag68
(g84
g70
NtRp756
(dp757
g73
(dp758
sg82
g661
sg75
(lp759
g68
(g89
g70
NtRp760
(dp761
g73
(dp762
g93
g94
ssg82
g756
sg75
(lp763
S'content_length'
p764
asbag68
(g89
g70
NtRp765
(dp766
g73
(dp767
g100
g101
ssg82
g756
sg75
(lp768
S':'
asbag68
(g89
g70
NtRp769
(dp770
g73
(dp771
sg82
g756
sg75
(lp772
g68
(g69
g70
NtRp773
(dp774
g73
(dp775
g81
I4
ssg82
g769
sg75
(lp776
S'1109'
p777
asbasbasbag68
(g84
g70
NtRp778
(dp779
g73
(dp780
sg82
g661
sg75
(lp781
g68
(g89
g70
NtRp782
(dp783
g73
(dp784
g93
g94
ssg82
g778
sg75
(lp785
S'content_type'
p786
asbag68
(g89
g70
NtRp787
(dp788
g73
(dp789
g100
g101
ssg82
g778
sg75
(lp790
S':'
asbag68
(g89
g70
NtRp791
(dp792
g73
(dp793
sg82
g778
sg75
(lp794
g68
(g69
g70
NtRp795
(dp796
g73
(dp797
g81
I4
ssg82
g791
sg75
(lp798
S'multipart/form-data; boundary=---------------------------16467998811275750631765629557'
p799
asbasbasbag68
(g84
g70
NtRp800
(dp801
g73
(dp802
sg82
g661
sg75
(lp803
g68
(g89
g70
NtRp804
(dp805
g73
(dp806
g93
g94
ssg82
g800
sg75
(lp807
S'db_sessions'
p808
asbag68
(g89
g70
NtRp809
(dp810
g73
(dp811
g100
g101
ssg82
g800
sg75
(lp812
S':'
asbag68
(g89
g70
NtRp813
(dp814
g73
(dp815
sg82
g800
sg75
(lp816
g68
(g69
g70
NtRp817
(dp818
g73
(dp819
g81
I4
ssg82
g813
sg75
(lp820
S'set([])'
p821
asbasbasbag68
(g84
g70
NtRp822
(dp823
g73
(dp824
sg82
g661
sg75
(lp825
g68
(g89
g70
NtRp826
(dp827
g73
(dp828
g93
g94
ssg82
g822
sg75
(lp829
S'debugging'
p830
asbag68
(g89
g70
NtRp831
(dp832
g73
(dp833
g100
g101
ssg82
g822
sg75
(lp834
S':'
asbag68
(g89
g70
NtRp835
(dp836
g73
(dp837
sg82
g822
sg75
(lp838
g68
(g69
g70
NtRp839
(dp840
g73
(dp841
g81
I4
ssg82
g835
sg75
(lp842
g111
asbasbasbag68
(g84
g70
NtRp843
(dp844
g73
(dp845
sg82
g661
sg75
(lp846
g68
(g89
g70
NtRp847
(dp848
g73
(dp849
g93
g94
ssg82
g843
sg75
(lp850
S'gluon_parent'
p851
asbag68
(g89
g70
NtRp852
(dp853
g73
(dp854
g100
g101
ssg82
g843
sg75
(lp855
S':'
asbag68
(g89
g70
NtRp856
(dp857
g73
(dp858
sg82
g843
sg75
(lp859
g68
(g69
g70
NtRp860
(dp861
g73
(dp862
g81
I4
ssg82
g856
sg75
(lp863
S'/home/alfem/alfem/prog/telefam/server/web2py'
p864
asbasbasbag68
(g84
g70
NtRp865
(dp866
g73
(dp867
sg82
g661
sg75
(lp868
g68
(g89
g70
NtRp869
(dp870
g73
(dp871
g93
g94
ssg82
g865
sg75
(lp872
S'http_accept'
p873
asbag68
(g89
g70
NtRp874
(dp875
g73
(dp876
g100
g101
ssg82
g865
sg75
(lp877
S':'
asbag68
(g89
g70
NtRp878
(dp879
g73
(dp880
sg82
g865
sg75
(lp881
g68
(g69
g70
NtRp882
(dp883
g73
(dp884
g81
I4
ssg82
g878
sg75
(lp885
S'text/html,application/xhtml+xml,application/xml;q=0.9,*/*;q=0.8'
p886
asbasbasbag68
(g84
g70
NtRp887
(dp888
g73
(dp889
sg82
g661
sg75
(lp890
g68
(g89
g70
NtRp891
(dp892
g73
(dp893
g93
g94
ssg82
g887
sg75
(lp894
S'http_accept_charset'
p895
asbag68
(g89
g70
NtRp896
(dp897
g73
(dp898
g100
g101
ssg82
g887
sg75
(lp899
S':'
asbag68
(g89
g70
NtRp900
(dp901
g73
(dp902
sg82
g887
sg75
(lp903
g68
(g69
g70
NtRp904
(dp905
g73
(dp906
g81
I4
ssg82
g900
sg75
(lp907
S'ISO-8859-1,utf-8;q=0.7,*;q=0.7'
p908
asbasbasbag68
(g84
g70
NtRp909
(dp910
g73
(dp911
sg82
g661
sg75
(lp912
g68
(g89
g70
NtRp913
(dp914
g73
(dp915
g93
g94
ssg82
g909
sg75
(lp916
S'http_accept_encoding'
p917
asbag68
(g89
g70
NtRp918
(dp919
g73
(dp920
g100
g101
ssg82
g909
sg75
(lp921
S':'
asbag68
(g89
g70
NtRp922
(dp923
g73
(dp924
sg82
g909
sg75
(lp925
g68
(g69
g70
NtRp926
(dp927
g73
(dp928
g81
I4
ssg82
g922
sg75
(lp929
S'gzip, deflate'
p930
asbasbasbag68
(g84
g70
NtRp931
(dp932
g73
(dp933
sg82
g661
sg75
(lp934
g68
(g89
g70
NtRp935
(dp936
g73
(dp937
g93
g94
ssg82
g931
sg75
(lp938
S'http_accept_language'
p939
asbag68
(g89
g70
NtRp940
(dp941
g73
(dp942
g100
g101
ssg82
g931
sg75
(lp943
S':'
asbag68
(g89
g70
NtRp944
(dp945
g73
(dp946
sg82
g931
sg75
(lp947
g68
(g69
g70
NtRp948
(dp949
g73
(dp950
g81
I4
ssg82
g944
sg75
(lp951
S'es-es,es;q=0.8,en-us;q=0.5,en;q=0.3'
p952
asbasbasbag68
(g84
g70
NtRp953
(dp954
g73
(dp955
sg82
g661
sg75
(lp956
g68
(g89
g70
NtRp957
(dp958
g73
(dp959
g93
g94
ssg82
g953
sg75
(lp960
S'http_cache_control'
p961
asbag68
(g89
g70
NtRp962
(dp963
g73
(dp964
g100
g101
ssg82
g953
sg75
(lp965
S':'
asbag68
(g89
g70
NtRp966
(dp967
g73
(dp968
sg82
g953
sg75
(lp969
g68
(g69
g70
NtRp970
(dp971
g73
(dp972
g81
I4
ssg82
g966
sg75
(lp973
S'max-age=0'
p974
asbasbasbag68
(g84
g70
NtRp975
(dp976
g73
(dp977
sg82
g661
sg75
(lp978
g68
(g89
g70
NtRp979
(dp980
g73
(dp981
g93
g94
ssg82
g975
sg75
(lp982
S'http_connection'
p983
asbag68
(g89
g70
NtRp984
(dp985
g73
(dp986
g100
g101
ssg82
g975
sg75
(lp987
S':'
asbag68
(g89
g70
NtRp988
(dp989
g73
(dp990
sg82
g975
sg75
(lp991
g68
(g69
g70
NtRp992
(dp993
g73
(dp994
g81
I4
ssg82
g988
sg75
(lp995
S'keep-alive'
p996
asbasbasbag68
(g84
g70
NtRp997
(dp998
g73
(dp999
sg82
g661
sg75
(lp1000
g68
(g89
g70
NtRp1001
(dp1002
g73
(dp1003
g93
g94
ssg82
g997
sg75
(lp1004
S'http_content_length'
p1005
asbag68
(g89
g70
NtRp1006
(dp1007
g73
(dp1008
g100
g101
ssg82
g997
sg75
(lp1009
S':'
asbag68
(g89
g70
NtRp1010
(dp1011
g73
(dp1012
sg82
g997
sg75
(lp1013
g68
(g69
g70
NtRp1014
(dp1015
g73
(dp1016
g81
I4
ssg82
g1010
sg75
(lp1017
g777
asbasbasbag68
(g84
g70
NtRp1018
(dp1019
g73
(dp1020
sg82
g661
sg75
(lp1021
g68
(g89
g70
NtRp1022
(dp1023
g73
(dp1024
g93
g94
ssg82
g1018
sg75
(lp1025
S'http_content_type'
p1026
asbag68
(g89
g70
NtRp1027
(dp1028
g73
(dp1029
g100
g101
ssg82
g1018
sg75
(lp1030
S':'
asbag68
(g89
g70
NtRp1031
(dp1032
g73
(dp1033
sg82
g1018
sg75
(lp1034
g68
(g69
g70
NtRp1035
(dp1036
g73
(dp1037
g81
I4
ssg82
g1031
sg75
(lp1038
g799
asbasbasbag68
(g84
g70
NtRp1039
(dp1040
g73
(dp1041
sg82
g661
sg75
(lp1042
g68
(g89
g70
NtRp1043
(dp1044
g73
(dp1045
g93
g94
ssg82
g1039
sg75
(lp1046
S'http_cookie'
p1047
asbag68
(g89
g70
NtRp1048
(dp1049
g73
(dp1050
g100
g101
ssg82
g1039
sg75
(lp1051
S':'
asbag68
(g89
g70
NtRp1052
(dp1053
g73
(dp1054
sg82
g1039
sg75
(lp1055
g68
(g69
g70
NtRp1056
(dp1057
g73
(dp1058
g81
I4
ssg82
g1052
sg75
(lp1059
S'session_id_telefam=127.0.0.1-f7f620a6-fd63-4f72-b11a-b8325669ccbf; session_id_admin=127.0.0.1-eece3669-f609-4c4d-b7c8-7f75ae979e67'
p1060
asbasbasbag68
(g84
g70
NtRp1061
(dp1062
g73
(dp1063
sg82
g661
sg75
(lp1064
g68
(g89
g70
NtRp1065
(dp1066
g73
(dp1067
g93
g94
ssg82
g1061
sg75
(lp1068
S'http_host'
p1069
asbag68
(g89
g70
NtRp1070
(dp1071
g73
(dp1072
g100
g101
ssg82
g1061
sg75
(lp1073
S':'
asbag68
(g89
g70
NtRp1074
(dp1075
g73
(dp1076
sg82
g1061
sg75
(lp1077
g68
(g69
g70
NtRp1078
(dp1079
g73
(dp1080
g81
I4
ssg82
g1074
sg75
(lp1081
S'127.0.0.1:8000'
p1082
asbasbasbag68
(g84
g70
NtRp1083
(dp1084
g73
(dp1085
sg82
g661
sg75
(lp1086
g68
(g89
g70
NtRp1087
(dp1088
g73
(dp1089
g93
g94
ssg82
g1083
sg75
(lp1090
S'http_referer'
p1091
asbag68
(g89
g70
NtRp1092
(dp1093
g73
(dp1094
g100
g101
ssg82
g1083
sg75
(lp1095
S':'
asbag68
(g89
g70
NtRp1096
(dp1097
g73
(dp1098
sg82
g1083
sg75
(lp1099
g68
(g69
g70
NtRp1100
(dp1101
g73
(dp1102
g81
I4
ssg82
g1096
sg75
(lp1103
S'http://127.0.0.1:8000/telefam/default/user/profile'
p1104
asbasbasbag68
(g84
g70
NtRp1105
(dp1106
g73
(dp1107
sg82
g661
sg75
(lp1108
g68
(g89
g70
NtRp1109
(dp1110
g73
(dp1111
g93
g94
ssg82
g1105
sg75
(lp1112
S'http_user_agent'
p1113
asbag68
(g89
g70
NtRp1114
(dp1115
g73
(dp1116
g100
g101
ssg82
g1105
sg75
(lp1117
S':'
asbag68
(g89
g70
NtRp1118
(dp1119
g73
(dp1120
sg82
g1105
sg75
(lp1121
g68
(g69
g70
NtRp1122
(dp1123
g73
(dp1124
g81
I4
ssg82
g1118
sg75
(lp1125
S'Mozilla/5.0 (Ubuntu; X11; Linux i686; rv:8.0) Gecko/20100101 Firefox/8.0'
p1126
asbasbasbag68
(g84
g70
NtRp1127
(dp1128
g73
(dp1129
sg82
g661
sg75
(lp1130
g68
(g89
g70
NtRp1131
(dp1132
g73
(dp1133
g93
g94
ssg82
g1127
sg75
(lp1134
S'is_jython'
p1135
asbag68
(g89
g70
NtRp1136
(dp1137
g73
(dp1138
g100
g101
ssg82
g1127
sg75
(lp1139
S':'
asbag68
(g89
g70
NtRp1140
(dp1141
g73
(dp1142
sg82
g1127
sg75
(lp1143
g68
(g69
g70
NtRp1144
(dp1145
g73
(dp1146
g81
I4
ssg82
g1140
sg75
(lp1147
g111
asbasbasbag68
(g84
g70
NtRp1148
(dp1149
g73
(dp1150
sg82
g661
sg75
(lp1151
g68
(g89
g70
NtRp1152
(dp1153
g73
(dp1154
g93
g94
ssg82
g1148
sg75
(lp1155
S'is_pypy'
p1156
asbag68
(g89
g70
NtRp1157
(dp1158
g73
(dp1159
g100
g101
ssg82
g1148
sg75
(lp1160
S':'
asbag68
(g89
g70
NtRp1161
(dp1162
g73
(dp1163
sg82
g1148
sg75
(lp1164
g68
(g69
g70
NtRp1165
(dp1166
g73
(dp1167
g81
I4
ssg82
g1161
sg75
(lp1168
g111
asbasbasbag68
(g84
g70
NtRp1169
(dp1170
g73
(dp1171
sg82
g661
sg75
(lp1172
g68
(g89
g70
NtRp1173
(dp1174
g73
(dp1175
g93
g94
ssg82
g1169
sg75
(lp1176
S'path_info'
p1177
asbag68
(g89
g70
NtRp1178
(dp1179
g73
(dp1180
g100
g101
ssg82
g1169
sg75
(lp1181
S':'
asbag68
(g89
g70
NtRp1182
(dp1183
g73
(dp1184
sg82
g1169
sg75
(lp1185
g68
(g69
g70
NtRp1186
(dp1187
g73
(dp1188
g81
I4
ssg82
g1182
sg75
(lp1189
S'/telefam/default/user/profile'
p1190
asbasbasbag68
(g84
g70
NtRp1191
(dp1192
g73
(dp1193
sg82
g661
sg75
(lp1194
g68
(g89
g70
NtRp1195
(dp1196
g73
(dp1197
g93
g94
ssg82
g1191
sg75
(lp1198
S'query_string'
p1199
asbag68
(g89
g70
NtRp1200
(dp1201
g73
(dp1202
g100
g101
ssg82
g1191
sg75
(lp1203
S':'
asbag68
(g89
g70
NtRp1204
(dp1205
g73
(dp1206
sg82
g1191
sg75
(lp1207
g68
(g69
g70
NtRp1208
(dp1209
g73
(dp1210
g81
I4
ssg82
g1204
sg75
(lp1211
S''
asbasbasbag68
(g84
g70
NtRp1212
(dp1213
g73
(dp1214
sg82
g661
sg75
(lp1215
g68
(g89
g70
NtRp1216
(dp1217
g73
(dp1218
g93
g94
ssg82
g1212
sg75
(lp1219
S'remote_addr'
p1220
asbag68
(g89
g70
NtRp1221
(dp1222
g73
(dp1223
g100
g101
ssg82
g1212
sg75
(lp1224
S':'
asbag68
(g89
g70
NtRp1225
(dp1226
g73
(dp1227
sg82
g1212
sg75
(lp1228
g68
(g69
g70
NtRp1229
(dp1230
g73
(dp1231
g81
I4
ssg82
g1225
sg75
(lp1232
g214
asbasbasbag68
(g84
g70
NtRp1233
(dp1234
g73
(dp1235
sg82
g661
sg75
(lp1236
g68
(g89
g70
NtRp1237
(dp1238
g73
(dp1239
g93
g94
ssg82
g1233
sg75
(lp1240
S'remote_port'
p1241
asbag68
(g89
g70
NtRp1242
(dp1243
g73
(dp1244
g100
g101
ssg82
g1233
sg75
(lp1245
S':'
asbag68
(g89
g70
NtRp1246
(dp1247
g73
(dp1248
sg82
g1233
sg75
(lp1249
g68
(g69
g70
NtRp1250
(dp1251
g73
(dp1252
g81
I4
ssg82
g1246
sg75
(lp1253
S'59854'
p1254
asbasbasbag68
(g84
g70
NtRp1255
(dp1256
g73
(dp1257
sg82
g661
sg75
(lp1258
g68
(g89
g70
NtRp1259
(dp1260
g73
(dp1261
g93
g94
ssg82
g1255
sg75
(lp1262
S'request_method'
p1263
asbag68
(g89
g70
NtRp1264
(dp1265
g73
(dp1266
g100
g101
ssg82
g1255
sg75
(lp1267
S':'
asbag68
(g89
g70
NtRp1268
(dp1269
g73
(dp1270
sg82
g1255
sg75
(lp1271
g68
(g69
g70
NtRp1272
(dp1273
g73
(dp1274
g81
I4
ssg82
g1268
sg75
(lp1275
S'POST'
p1276
asbasbasbag68
(g84
g70
NtRp1277
(dp1278
g73
(dp1279
sg82
g661
sg75
(lp1280
g68
(g89
g70
NtRp1281
(dp1282
g73
(dp1283
g93
g94
ssg82
g1277
sg75
(lp1284
S'script_name'
p1285
asbag68
(g89
g70
NtRp1286
(dp1287
g73
(dp1288
g100
g101
ssg82
g1277
sg75
(lp1289
S':'
asbag68
(g89
g70
NtRp1290
(dp1291
g73
(dp1292
sg82
g1277
sg75
(lp1293
g68
(g69
g70
NtRp1294
(dp1295
g73
(dp1296
g81
I4
ssg82
g1290
sg75
(lp1297
S''
asbasbasbag68
(g84
g70
NtRp1298
(dp1299
g73
(dp1300
sg82
g661
sg75
(lp1301
g68
(g89
g70
NtRp1302
(dp1303
g73
(dp1304
g93
g94
ssg82
g1298
sg75
(lp1305
S'server_name'
p1306
asbag68
(g89
g70
NtRp1307
(dp1308
g73
(dp1309
g100
g101
ssg82
g1298
sg75
(lp1310
S':'
asbag68
(g89
g70
NtRp1311
(dp1312
g73
(dp1313
sg82
g1298
sg75
(lp1314
g68
(g69
g70
NtRp1315
(dp1316
g73
(dp1317
g81
I4
ssg82
g1311
sg75
(lp1318
S'acala'
p1319
asbasbasbag68
(g84
g70
NtRp1320
(dp1321
g73
(dp1322
sg82
g661
sg75
(lp1323
g68
(g89
g70
NtRp1324
(dp1325
g73
(dp1326
g93
g94
ssg82
g1320
sg75
(lp1327
S'server_port'
p1328
asbag68
(g89
g70
NtRp1329
(dp1330
g73
(dp1331
g100
g101
ssg82
g1320
sg75
(lp1332
S':'
asbag68
(g89
g70
NtRp1333
(dp1334
g73
(dp1335
sg82
g1320
sg75
(lp1336
g68
(g69
g70
NtRp1337
(dp1338
g73
(dp1339
g81
I4
ssg82
g1333
sg75
(lp1340
S'8000'
p1341
asbasbasbag68
(g84
g70
NtRp1342
(dp1343
g73
(dp1344
sg82
g661
sg75
(lp1345
g68
(g89
g70
NtRp1346
(dp1347
g73
(dp1348
g93
g94
ssg82
g1342
sg75
(lp1349
S'server_protocol'
p1350
asbag68
(g89
g70
NtRp1351
(dp1352
g73
(dp1353
g100
g101
ssg82
g1342
sg75
(lp1354
S':'
asbag68
(g89
g70
NtRp1355
(dp1356
g73
(dp1357
sg82
g1342
sg75
(lp1358
g68
(g69
g70
NtRp1359
(dp1360
g73
(dp1361
g81
I4
ssg82
g1355
sg75
(lp1362
S'HTTP/1.1'
p1363
asbasbasbag68
(g84
g70
NtRp1364
(dp1365
g73
(dp1366
sg82
g661
sg75
(lp1367
g68
(g89
g70
NtRp1368
(dp1369
g73
(dp1370
g93
g94
ssg82
g1364
sg75
(lp1371
S'server_software'
p1372
asbag68
(g89
g70
NtRp1373
(dp1374
g73
(dp1375
g100
g101
ssg82
g1364
sg75
(lp1376
S':'
asbag68
(g89
g70
NtRp1377
(dp1378
g73
(dp1379
sg82
g1364
sg75
(lp1380
g68
(g69
g70
NtRp1381
(dp1382
g73
(dp1383
g81
I4
ssg82
g1377
sg75
(lp1384
S'Rocket 1.2.4'
p1385
asbasbasbag68
(g84
g70
NtRp1386
(dp1387
g73
(dp1388
sg82
g661
sg75
(lp1389
g68
(g89
g70
NtRp1390
(dp1391
g73
(dp1392
g93
g94
ssg82
g1386
sg75
(lp1393
S'web2py_crontype'
p1394
asbag68
(g89
g70
NtRp1395
(dp1396
g73
(dp1397
g100
g101
ssg82
g1386
sg75
(lp1398
S':'
asbag68
(g89
g70
NtRp1399
(dp1400
g73
(dp1401
sg82
g1386
sg75
(lp1402
g68
(g69
g70
NtRp1403
(dp1404
g73
(dp1405
g81
I4
ssg82
g1399
sg75
(lp1406
S'hard'
p1407
asbasbasbag68
(g84
g70
NtRp1408
(dp1409
g73
(dp1410
sg82
g661
sg75
(lp1411
g68
(g89
g70
NtRp1412
(dp1413
g73
(dp1414
g93
g94
ssg82
g1408
sg75
(lp1415
S'web2py_path'
p1416
asbag68
(g89
g70
NtRp1417
(dp1418
g73
(dp1419
g100
g101
ssg82
g1408
sg75
(lp1420
S':'
asbag68
(g89
g70
NtRp1421
(dp1422
g73
(dp1423
sg82
g1408
sg75
(lp1424
g68
(g69
g70
NtRp1425
(dp1426
g73
(dp1427
g81
I4
ssg82
g1421
sg75
(lp1428
g708
asbasbasbag68
(g84
g70
NtRp1429
(dp1430
g73
(dp1431
sg82
g661
sg75
(lp1432
g68
(g89
g70
NtRp1433
(dp1434
g73
(dp1435
g93
g94
ssg82
g1429
sg75
(lp1436
S'web2py_version'
p1437
asbag68
(g89
g70
NtRp1438
(dp1439
g73
(dp1440
g100
g101
ssg82
g1429
sg75
(lp1441
S':'
asbag68
(g89
g70
NtRp1442
(dp1443
g73
(dp1444
sg82
g1429
sg75
(lp1445
g68
(g69
g70
NtRp1446
(dp1447
g73
(dp1448
g81
I4
ssg82
g1442
sg75
(lp1449
g68
(g77
g70
NtRp1450
(dp1451
g73
(dp1452
g81
I3
ssg82
Nsg75
(lp1453
g68
(g84
g70
NtRp1454
(dp1455
g73
(dp1456
sg82
g1450
sg75
(lp1457
g68
(g89
g70
NtRp1458
(dp1459
g73
(dp1460
sg82
g1454
sg75
(lp1461
g68
(g69
g70
NtRp1462
(dp1463
g73
(dp1464
g81
I3
ssg82
g1458
sg75
(lp1465
S'1'
asbasbasbag68
(g84
g70
NtRp1466
(dp1467
g73
(dp1468
sg82
g1450
sg75
(lp1469
g68
(g89
g70
NtRp1470
(dp1471
g73
(dp1472
sg82
g1466
sg75
(lp1473
g68
(g69
g70
NtRp1474
(dp1475
g73
(dp1476
g81
I3
ssg82
g1470
sg75
(lp1477
S'99'
p1478
asbasbasbag68
(g84
g70
NtRp1479
(dp1480
g73
(dp1481
sg82
g1450
sg75
(lp1482
g68
(g89
g70
NtRp1483
(dp1484
g73
(dp1485
sg82
g1479
sg75
(lp1486
g68
(g69
g70
NtRp1487
(dp1488
g73
(dp1489
g81
I3
ssg82
g1483
sg75
(lp1490
S'7'
asbasbasbag68
(g84
g70
NtRp1491
(dp1492
g73
(dp1493
sg82
g1450
sg75
(lp1494
g68
(g89
g70
NtRp1495
(dp1496
g73
(dp1497
sg82
g1491
sg75
(lp1498
g68
(g69
g70
NtRp1499
(dp1500
g73
(dp1501
g81
I3
ssg82
g1495
sg75
(lp1502
S'datetime.datetime(2012, 3, 4, 22, 12, 8)'
p1503
asbasbasbag68
(g84
g70
NtRp1504
(dp1505
g73
(dp1506
sg82
g1450
sg75
(lp1507
g68
(g89
g70
NtRp1508
(dp1509
g73
(dp1510
sg82
g1504
sg75
(lp1511
g68
(g69
g70
NtRp1512
(dp1513
g73
(dp1514
g81
I3
ssg82
g1508
sg75
(lp1515
S'stable'
p1516
asbasbasbasbasbasbasbag68
(g84
g70
NtRp1517
(dp1518
g73
(dp1519
sg82
g661
sg75
(lp1520
g68
(g89
g70
NtRp1521
(dp1522
g73
(dp1523
g93
g94
ssg82
g1517
sg75
(lp1524
S'wsgi_errors'
p1525
asbag68
(g89
g70
NtRp1526
(dp1527
g73
(dp1528
g100
g101
ssg82
g1517
sg75
(lp1529
S':'
asbag68
(g89
g70
NtRp1530
(dp1531
g73
(dp1532
sg82
g1517
sg75
(lp1533
g68
(g69
g70
NtRp1534
(dp1535
g73
(dp1536
g81
I4
ssg82
g1530
sg75
(lp1537
S"<open file '<stderr>', mode 'w' at 0xb77800d0>"
p1538
asbasbasbag68
(g84
g70
NtRp1539
(dp1540
g73
(dp1541
sg82
g661
sg75
(lp1542
g68
(g89
g70
NtRp1543
(dp1544
g73
(dp1545
g93
g94
ssg82
g1539
sg75
(lp1546
S'wsgi_file_wrapper'
p1547
asbag68
(g89
g70
NtRp1548
(dp1549
g73
(dp1550
g100
g101
ssg82
g1539
sg75
(lp1551
S':'
asbag68
(g89
g70
NtRp1552
(dp1553
g73
(dp1554
sg82
g1539
sg75
(lp1555
g68
(g69
g70
NtRp1556
(dp1557
g73
(dp1558
g81
I4
ssg82
g1552
sg75
(lp1559
S'<class wsgiref.util.FileWrapper at 0xa0f9e6c>'
p1560
asbasbasbag68
(g84
g70
NtRp1561
(dp1562
g73
(dp1563
sg82
g661
sg75
(lp1564
g68
(g89
g70
NtRp1565
(dp1566
g73
(dp1567
g93
g94
ssg82
g1561
sg75
(lp1568
S'wsgi_input'
p1569
asbag68
(g89
g70
NtRp1570
(dp1571
g73
(dp1572
g100
g101
ssg82
g1561
sg75
(lp1573
S':'
asbag68
(g89
g70
NtRp1574
(dp1575
g73
(dp1576
sg82
g1561
sg75
(lp1577
g68
(g69
g70
NtRp1578
(dp1579
g73
(dp1580
g81
I4
ssg82
g1574
sg75
(lp1581
S'<socket._fileobject object at 0xa79f1ec>'
p1582
asbasbasbag68
(g84
g70
NtRp1583
(dp1584
g73
(dp1585
sg82
g661
sg75
(lp1586
g68
(g89
g70
NtRp1587
(dp1588
g73
(dp1589
g93
g94
ssg82
g1583
sg75
(lp1590
S'wsgi_multiprocess'
p1591
asbag68
(g89
g70
NtRp1592
(dp1593
g73
(dp1594
g100
g101
ssg82
g1583
sg75
(lp1595
S':'
asbag68
(g89
g70
NtRp1596
(dp1597
g73
(dp1598
sg82
g1583
sg75
(lp1599
g68
(g69
g70
NtRp1600
(dp1601
g73
(dp1602
g81
I4
ssg82
g1596
sg75
(lp1603
g111
asbasbasbag68
(g84
g70
NtRp1604
(dp1605
g73
(dp1606
sg82
g661
sg75
(lp1607
g68
(g89
g70
NtRp1608
(dp1609
g73
(dp1610
g93
g94
ssg82
g1604
sg75
(lp1611
S'wsgi_multithread'
p1612
asbag68
(g89
g70
NtRp1613
(dp1614
g73
(dp1615
g100
g101
ssg82
g1604
sg75
(lp1616
S':'
asbag68
(g89
g70
NtRp1617
(dp1618
g73
(dp1619
sg82
g1604
sg75
(lp1620
g68
(g69
g70
NtRp1621
(dp1622
g73
(dp1623
g81
I4
ssg82
g1617
sg75
(lp1624
S'True'
p1625
asbasbasbag68
(g84
g70
NtRp1626
(dp1627
g73
(dp1628
sg82
g661
sg75
(lp1629
g68
(g89
g70
NtRp1630
(dp1631
g73
(dp1632
g93
g94
ssg82
g1626
sg75
(lp1633
S'wsgi_run_once'
p1634
asbag68
(g89
g70
NtRp1635
(dp1636
g73
(dp1637
g100
g101
ssg82
g1626
sg75
(lp1638
S':'
asbag68
(g89
g70
NtRp1639
(dp1640
g73
(dp1641
sg82
g1626
sg75
(lp1642
g68
(g69
g70
NtRp1643
(dp1644
g73
(dp1645
g81
I4
ssg82
g1639
sg75
(lp1646
g111
asbasbasbag68
(g84
g70
NtRp1647
(dp1648
g73
(dp1649
sg82
g661
sg75
(lp1650
g68
(g89
g70
NtRp1651
(dp1652
g73
(dp1653
g93
g94
ssg82
g1647
sg75
(lp1654
S'wsgi_url_scheme'
p1655
asbag68
(g89
g70
NtRp1656
(dp1657
g73
(dp1658
g100
g101
ssg82
g1647
sg75
(lp1659
S':'
asbag68
(g89
g70
NtRp1660
(dp1661
g73
(dp1662
sg82
g1647
sg75
(lp1663
g68
(g69
g70
NtRp1664
(dp1665
g73
(dp1666
g81
I4
ssg82
g1660
sg75
(lp1667
S'http'
p1668
asbasbasbag68
(g84
g70
NtRp1669
(dp1670
g73
(dp1671
sg82
g661
sg75
(lp1672
g68
(g89
g70
NtRp1673
(dp1674
g73
(dp1675
g93
g94
ssg82
g1669
sg75
(lp1676
S'wsgi_version'
p1677
asbag68
(g89
g70
NtRp1678
(dp1679
g73
(dp1680
g100
g101
ssg82
g1669
sg75
(lp1681
S':'
asbag68
(g89
g70
NtRp1682
(dp1683
g73
(dp1684
sg82
g1669
sg75
(lp1685
g68
(g69
g70
NtRp1686
(dp1687
g73
(dp1688
g81
I4
ssg82
g1682
sg75
(lp1689
g68
(g77
g70
NtRp1690
(dp1691
g73
(dp1692
g81
I3
ssg82
Nsg75
(lp1693
g68
(g84
g70
NtRp1694
(dp1695
g73
(dp1696
sg82
g1690
sg75
(lp1697
g68
(g89
g70
NtRp1698
(dp1699
g73
(dp1700
sg82
g1694
sg75
(lp1701
g68
(g69
g70
NtRp1702
(dp1703
g73
(dp1704
g81
I3
ssg82
g1698
sg75
(lp1705
S'1'
asbasbasbag68
(g84
g70
NtRp1706
(dp1707
g73
(dp1708
sg82
g1690
sg75
(lp1709
g68
(g89
g70
NtRp1710
(dp1711
g73
(dp1712
sg82
g1706
sg75
(lp1713
g68
(g69
g70
NtRp1714
(dp1715
g73
(dp1716
g81
I3
ssg82
g1710
sg75
(lp1717
S'0'
asbasbasbasbasbasbasbasbasbasbasbag68
(g84
g70
NtRp1718
(dp1719
g73
(dp1720
sg82
g78
sg75
(lp1721
g68
(g89
g70
NtRp1722
(dp1723
g73
(dp1724
g93
g94
ssg82
g1718
sg75
(lp1725
S'extension'
p1726
asbag68
(g89
g70
NtRp1727
(dp1728
g73
(dp1729
g100
g101
ssg82
g1718
sg75
(lp1730
S':'
asbag68
(g89
g70
NtRp1731
(dp1732
g73
(dp1733
sg82
g1718
sg75
(lp1734
g68
(g69
g70
NtRp1735
(dp1736
g73
(dp1737
g81
I5
ssg82
g1731
sg75
(lp1738
S'html'
p1739
asbasbasbag68
(g84
g70
NtRp1740
(dp1741
g73
(dp1742
sg82
g78
sg75
(lp1743
g68
(g89
g70
NtRp1744
(dp1745
g73
(dp1746
g93
g94
ssg82
g1740
sg75
(lp1747
S'folder'
p1748
asbag68
(g89
g70
NtRp1749
(dp1750
g73
(dp1751
g100
g101
ssg82
g1740
sg75
(lp1752
S':'
asbag68
(g89
g70
NtRp1753
(dp1754
g73
(dp1755
sg82
g1740
sg75
(lp1756
g68
(g69
g70
NtRp1757
(dp1758
g73
(dp1759
g81
I5
ssg82
g1753
sg75
(lp1760
S'/home/alfem/alfem/prog/telefam/server/web2py/applications/telefam/'
p1761
asbasbasbag68
(g84
g70
NtRp1762
(dp1763
g73
(dp1764
sg82
g78
sg75
(lp1765
g68
(g89
g70
NtRp1766
(dp1767
g73
(dp1768
g93
g94
ssg82
g1762
sg75
(lp1769
S'function'
p1770
asbag68
(g89
g70
NtRp1771
(dp1772
g73
(dp1773
g100
g101
ssg82
g1762
sg75
(lp1774
S':'
asbag68
(g89
g70
NtRp1775
(dp1776
g73
(dp1777
sg82
g1762
sg75
(lp1778
g68
(g69
g70
NtRp1779
(dp1780
g73
(dp1781
g81
I5
ssg82
g1775
sg75
(lp1782
S'user'
p1783
asbasbasbag68
(g84
g70
NtRp1784
(dp1785
g73
(dp1786
sg82
g78
sg75
(lp1787
g68
(g89
g70
NtRp1788
(dp1789
g73
(dp1790
g93
g94
ssg82
g1784
sg75
(lp1791
S'get_vars'
p1792
asbag68
(g89
g70
NtRp1793
(dp1794
g73
(dp1795
g100
g101
ssg82
g1784
sg75
(lp1796
S':'
asbag68
(g89
g70
NtRp1797
(dp1798
g73
(dp1799
sg82
g1784
sg75
(lp1800
g68
(g69
g70
NtRp1801
(dp1802
g73
(dp1803
g81
I5
ssg82
g1797
sg75
(lp1804
g68
(g77
g70
NtRp1805
(dp1806
g73
(dp1807
g81
I4
ssg82
Nsg75
(lp1808
sbasbasbasbag68
(g84
g70
NtRp1809
(dp1810
g73
(dp1811
sg82
g78
sg75
(lp1812
g68
(g89
g70
NtRp1813
(dp1814
g73
(dp1815
g93
g94
ssg82
g1809
sg75
(lp1816
S'global_settings'
p1817
asbag68
(g89
g70
NtRp1818
(dp1819
g73
(dp1820
g100
g101
ssg82
g1809
sg75
(lp1821
S':'
asbag68
(g89
g70
NtRp1822
(dp1823
g73
(dp1824
sg82
g1809
sg75
(lp1825
g68
(g69
g70
NtRp1826
(dp1827
g73
(dp1828
g81
I5
ssg82
g1822
sg75
(lp1829
g68
(g77
g70
NtRp1830
(dp1831
g73
(dp1832
g81
I4
ssg82
Nsg75
(lp1833
g68
(g84
g70
NtRp1834
(dp1835
g73
(dp1836
sg82
g1830
sg75
(lp1837
g68
(g89
g70
NtRp1838
(dp1839
g73
(dp1840
g93
g94
ssg82
g1834
sg75
(lp1841
g673
asbag68
(g89
g70
NtRp1842
(dp1843
g73
(dp1844
g100
g101
ssg82
g1834
sg75
(lp1845
S':'
asbag68
(g89
g70
NtRp1846
(dp1847
g73
(dp1848
sg82
g1834
sg75
(lp1849
g68
(g69
g70
NtRp1850
(dp1851
g73
(dp1852
g81
I4
ssg82
g1846
sg75
(lp1853
S"set(['/home/alfem/alfem/prog/telefam/server/web2py/applications/admin/', '/home/alfem/alfem/prog/telefam/server/web2py/applications/telefam/'])"
p1854
asbasbasbag68
(g84
g70
NtRp1855
(dp1856
g73
(dp1857
sg82
g1830
sg75
(lp1858
g68
(g89
g70
NtRp1859
(dp1860
g73
(dp1861
g93
g94
ssg82
g1855
sg75
(lp1862
g695
asbag68
(g89
g70
NtRp1863
(dp1864
g73
(dp1865
g100
g101
ssg82
g1855
sg75
(lp1866
S':'
asbag68
(g89
g70
NtRp1867
(dp1868
g73
(dp1869
sg82
g1855
sg75
(lp1870
g68
(g69
g70
NtRp1871
(dp1872
g73
(dp1873
g81
I4
ssg82
g1867
sg75
(lp1874
g708
asbasbasbag68
(g84
g70
NtRp1875
(dp1876
g73
(dp1877
sg82
g1830
sg75
(lp1878
g68
(g89
g70
NtRp1879
(dp1880
g73
(dp1881
g93
g94
ssg82
g1875
sg75
(lp1882
g717
asbag68
(g89
g70
NtRp1883
(dp1884
g73
(dp1885
g100
g101
ssg82
g1875
sg75
(lp1886
S':'
asbag68
(g89
g70
NtRp1887
(dp1888
g73
(dp1889
sg82
g1875
sg75
(lp1890
g68
(g69
g70
NtRp1891
(dp1892
g73
(dp1893
g81
I4
ssg82
g1887
sg75
(lp1894
g68
(g77
g70
NtRp1895
(dp1896
g73
(dp1897
g81
I3
ssg82
Nsg75
(lp1898
sbasbasbasbag68
(g84
g70
NtRp1899
(dp1900
g73
(dp1901
sg82
g1830
sg75
(lp1902
g68
(g89
g70
NtRp1903
(dp1904
g73
(dp1905
g93
g94
ssg82
g1899
sg75
(lp1906
g742
asbag68
(g89
g70
NtRp1907
(dp1908
g73
(dp1909
g100
g101
ssg82
g1899
sg75
(lp1910
S':'
asbag68
(g89
g70
NtRp1911
(dp1912
g73
(dp1913
sg82
g1899
sg75
(lp1914
g68
(g69
g70
NtRp1915
(dp1916
g73
(dp1917
g81
I4
ssg82
g1911
sg75
(lp1918
S"<Values at 0xa12a20c: {'verbose': False, 'ip': '127.0.0.1', 'shutdown_timeout': 5, 'taskbar': False, 'nocron': False, 'pid_filename': 'httpserver.pid', 'maxthreads': None, 'softcron': False, 'server_name': 'acala', 'bpython': False, 'nogui': False, 'port': 8000, 'extcron': False, 'debuglevel': 30, 'test': None, 'folder': '/home/alfem/alfem/prog/telefam/server/web2py', 'config': '', 'import_models': False, 'winservice': '', 'shell': None, 'run': '', 'log_filename': 'httpserver.log', 'args': [''], 'socket_timeout': 5, 'ssl_ca_certificate': None, 'scheduler': None, 'profiler_filename': None, 'ssl_private_key': '', 'password': '1234', 'request_queue_size': 5, 'ssl_certificate': '', 'cronjob': False, 'numthreads': None, 'quiet': False, 'interfaces': None, 'minthreads': None, 'timeout': 10, 'plain': False, 'nobanner': False}>"
p1919
asbasbasbag68
(g84
g70
NtRp1920
(dp1921
g73
(dp1922
sg82
g1830
sg75
(lp1923
g68
(g89
g70
NtRp1924
(dp1925
g73
(dp1926
g93
g94
ssg82
g1920
sg75
(lp1927
g808
asbag68
(g89
g70
NtRp1928
(dp1929
g73
(dp1930
g100
g101
ssg82
g1920
sg75
(lp1931
S':'
asbag68
(g89
g70
NtRp1932
(dp1933
g73
(dp1934
sg82
g1920
sg75
(lp1935
g68
(g69
g70
NtRp1936
(dp1937
g73
(dp1938
g81
I4
ssg82
g1932
sg75
(lp1939
S'set([])'
p1940
asbasbasbag68
(g84
g70
NtRp1941
(dp1942
g73
(dp1943
sg82
g1830
sg75
(lp1944
g68
(g89
g70
NtRp1945
(dp1946
g73
(dp1947
g93
g94
ssg82
g1941
sg75
(lp1948
g830
asbag68
(g89
g70
NtRp1949
(dp1950
g73
(dp1951
g100
g101
ssg82
g1941
sg75
(lp1952
S':'
asbag68
(g89
g70
NtRp1953
(dp1954
g73
(dp1955
sg82
g1941
sg75
(lp1956
g68
(g69
g70
NtRp1957
(dp1958
g73
(dp1959
g81
I4
ssg82
g1953
sg75
(lp1960
g111
asbasbasbag68
(g84
g70
NtRp1961
(dp1962
g73
(dp1963
sg82
g1830
sg75
(lp1964
g68
(g89
g70
NtRp1965
(dp1966
g73
(dp1967
g93
g94
ssg82
g1961
sg75
(lp1968
g851
asbag68
(g89
g70
NtRp1969
(dp1970
g73
(dp1971
g100
g101
ssg82
g1961
sg75
(lp1972
S':'
asbag68
(g89
g70
NtRp1973
(dp1974
g73
(dp1975
sg82
g1961
sg75
(lp1976
g68
(g69
g70
NtRp1977
(dp1978
g73
(dp1979
g81
I4
ssg82
g1973
sg75
(lp1980
g864
asbasbasbag68
(g84
g70
NtRp1981
(dp1982
g73
(dp1983
sg82
g1830
sg75
(lp1984
g68
(g89
g70
NtRp1985
(dp1986
g73
(dp1987
g93
g94
ssg82
g1981
sg75
(lp1988
g1135
asbag68
(g89
g70
NtRp1989
(dp1990
g73
(dp1991
g100
g101
ssg82
g1981
sg75
(lp1992
S':'
asbag68
(g89
g70
NtRp1993
(dp1994
g73
(dp1995
sg82
g1981
sg75
(lp1996
g68
(g69
g70
NtRp1997
(dp1998
g73
(dp1999
g81
I4
ssg82
g1993
sg75
(lp2000
g111
asbasbasbag68
(g84
g70
NtRp2001
(dp2002
g73
(dp2003
sg82
g1830
sg75
(lp2004
g68
(g89
g70
NtRp2005
(dp2006
g73
(dp2007
g93
g94
ssg82
g2001
sg75
(lp2008
g1156
asbag68
(g89
g70
NtRp2009
(dp2010
g73
(dp2011
g100
g101
ssg82
g2001
sg75
(lp2012
S':'
asbag68
(g89
g70
NtRp2013
(dp2014
g73
(dp2015
sg82
g2001
sg75
(lp2016
g68
(g69
g70
NtRp2017
(dp2018
g73
(dp2019
g81
I4
ssg82
g2013
sg75
(lp2020
g111
asbasbasbag68
(g84
g70
NtRp2021
(dp2022
g73
(dp2023
sg82
g1830
sg75
(lp2024
g68
(g89
g70
NtRp2025
(dp2026
g73
(dp2027
g93
g94
ssg82
g2021
sg75
(lp2028
g1394
asbag68
(g89
g70
NtRp2029
(dp2030
g73
(dp2031
g100
g101
ssg82
g2021
sg75
(lp2032
S':'
asbag68
(g89
g70
NtRp2033
(dp2034
g73
(dp2035
sg82
g2021
sg75
(lp2036
g68
(g69
g70
NtRp2037
(dp2038
g73
(dp2039
g81
I4
ssg82
g2033
sg75
(lp2040
g1407
asbasbasbag68
(g84
g70
NtRp2041
(dp2042
g73
(dp2043
sg82
g1830
sg75
(lp2044
g68
(g89
g70
NtRp2045
(dp2046
g73
(dp2047
g93
g94
ssg82
g2041
sg75
(lp2048
g1437
asbag68
(g89
g70
NtRp2049
(dp2050
g73
(dp2051
g100
g101
ssg82
g2041
sg75
(lp2052
S':'
asbag68
(g89
g70
NtRp2053
(dp2054
g73
(dp2055
sg82
g2041
sg75
(lp2056
g68
(g69
g70
NtRp2057
(dp2058
g73
(dp2059
g81
I4
ssg82
g2053
sg75
(lp2060
g68
(g77
g70
NtRp2061
(dp2062
g73
(dp2063
g81
I3
ssg82
Nsg75
(lp2064
g68
(g84
g70
NtRp2065
(dp2066
g73
(dp2067
sg82
g2061
sg75
(lp2068
g68
(g89
g70
NtRp2069
(dp2070
g73
(dp2071
sg82
g2065
sg75
(lp2072
g68
(g69
g70
NtRp2073
(dp2074
g73
(dp2075
g81
I3
ssg82
g2069
sg75
(lp2076
S'1'
asbasbasbag68
(g84
g70
NtRp2077
(dp2078
g73
(dp2079
sg82
g2061
sg75
(lp2080
g68
(g89
g70
NtRp2081
(dp2082
g73
(dp2083
sg82
g2077
sg75
(lp2084
g68
(g69
g70
NtRp2085
(dp2086
g73
(dp2087
g81
I3
ssg82
g2081
sg75
(lp2088
S'99'
p2089
asbasbasbag68
(g84
g70
NtRp2090
(dp2091
g73
(dp2092
sg82
g2061
sg75
(lp2093
g68
(g89
g70
NtRp2094
(dp2095
g73
(dp2096
sg82
g2090
sg75
(lp2097
g68
(g69
g70
NtRp2098
(dp2099
g73
(dp2100
g81
I3
ssg82
g2094
sg75
(lp2101
S'7'
asbasbasbag68
(g84
g70
NtRp2102
(dp2103
g73
(dp2104
sg82
g2061
sg75
(lp2105
g68
(g89
g70
NtRp2106
(dp2107
g73
(dp2108
sg82
g2102
sg75
(lp2109
g68
(g69
g70
NtRp2110
(dp2111
g73
(dp2112
g81
I3
ssg82
g2106
sg75
(lp2113
S'datetime.datetime(2012, 3, 4, 22, 12, 8)'
p2114
asbasbasbag68
(g84
g70
NtRp2115
(dp2116
g73
(dp2117
sg82
g2061
sg75
(lp2118
g68
(g89
g70
NtRp2119
(dp2120
g73
(dp2121
sg82
g2115
sg75
(lp2122
g68
(g69
g70
NtRp2123
(dp2124
g73
(dp2125
g81
I3
ssg82
g2119
sg75
(lp2126
g1516
asbasbasbasbasbasbasbasbasbasbasbag68
(g84
g70
NtRp2127
(dp2128
g73
(dp2129
sg82
g78
sg75
(lp2130
g68
(g89
g70
NtRp2131
(dp2132
g73
(dp2133
g93
g94
ssg82
g2127
sg75
(lp2134
S'is_https'
p2135
asbag68
(g89
g70
NtRp2136
(dp2137
g73
(dp2138
g100
g101
ssg82
g2127
sg75
(lp2139
S':'
asbag68
(g89
g70
NtRp2140
(dp2141
g73
(dp2142
sg82
g2127
sg75
(lp2143
g68
(g69
g70
NtRp2144
(dp2145
g73
(dp2146
g81
I5
ssg82
g2140
sg75
(lp2147
g111
asbasbasbag68
(g84
g70
NtRp2148
(dp2149
g73
(dp2150
sg82
g78
sg75
(lp2151
g68
(g89
g70
NtRp2152
(dp2153
g73
(dp2154
g93
g94
ssg82
g2148
sg75
(lp2155
S'is_local'
p2156
asbag68
(g89
g70
NtRp2157
(dp2158
g73
(dp2159
g100
g101
ssg82
g2148
sg75
(lp2160
S':'
asbag68
(g89
g70
NtRp2161
(dp2162
g73
(dp2163
sg82
g2148
sg75
(lp2164
g68
(g69
g70
NtRp2165
(dp2166
g73
(dp2167
g81
I5
ssg82
g2161
sg75
(lp2168
g1625
asbasbasbag68
(g84
g70
NtRp2169
(dp2170
g73
(dp2171
sg82
g78
sg75
(lp2172
g68
(g89
g70
NtRp2173
(dp2174
g73
(dp2175
g93
g94
ssg82
g2169
sg75
(lp2176
S'is_restful'
p2177
asbag68
(g89
g70
NtRp2178
(dp2179
g73
(dp2180
g100
g101
ssg82
g2169
sg75
(lp2181
S':'
asbag68
(g89
g70
NtRp2182
(dp2183
g73
(dp2184
sg82
g2169
sg75
(lp2185
g68
(g69
g70
NtRp2186
(dp2187
g73
(dp2188
g81
I5
ssg82
g2182
sg75
(lp2189
g111
asbasbasbag68
(g84
g70
NtRp2190
(dp2191
g73
(dp2192
sg82
g78
sg75
(lp2193
g68
(g89
g70
NtRp2194
(dp2195
g73
(dp2196
g93
g94
ssg82
g2190
sg75
(lp2197
S'now'
p2198
asbag68
(g89
g70
NtRp2199
(dp2200
g73
(dp2201
g100
g101
ssg82
g2190
sg75
(lp2202
S':'
asbag68
(g89
g70
NtRp2203
(dp2204
g73
(dp2205
sg82
g2190
sg75
(lp2206
g68
(g69
g70
NtRp2207
(dp2208
g73
(dp2209
g81
I5
ssg82
g2203
sg75
(lp2210
S'datetime.datetime(2012, 8, 30, 14, 28, 39, 377762)'
p2211
asbasbasbag68
(g84
g70
NtRp2212
(dp2213
g73
(dp2214
sg82
g78
sg75
(lp2215
g68
(g89
g70
NtRp2216
(dp2217
g73
(dp2218
g93
g94
ssg82
g2212
sg75
(lp2219
S'post_vars'
p2220
asbag68
(g89
g70
NtRp2221
(dp2222
g73
(dp2223
g100
g101
ssg82
g2212
sg75
(lp2224
S':'
asbag68
(g89
g70
NtRp2225
(dp2226
g73
(dp2227
sg82
g2212
sg75
(lp2228
g68
(g69
g70
NtRp2229
(dp2230
g73
(dp2231
g81
I5
ssg82
g2225
sg75
(lp2232
g68
(g77
g70
NtRp2233
(dp2234
g73
(dp2235
g81
I4
ssg82
Nsg75
(lp2236
g68
(g84
g70
NtRp2237
(dp2238
g73
(dp2239
sg82
g2233
sg75
(lp2240
g68
(g89
g70
NtRp2241
(dp2242
g73
(dp2243
g93
g94
ssg82
g2237
sg75
(lp2244
S'email'
p2245
asbag68
(g89
g70
NtRp2246
(dp2247
g73
(dp2248
g100
g101
ssg82
g2237
sg75
(lp2249
S':'
asbag68
(g89
g70
NtRp2250
(dp2251
g73
(dp2252
sg82
g2237
sg75
(lp2253
g68
(g69
g70
NtRp2254
(dp2255
g73
(dp2256
g81
I4
ssg82
g2250
sg75
(lp2257
S'alfonso@el-magnifico.org'
p2258
asbasbasbag68
(g84
g70
NtRp2259
(dp2260
g73
(dp2261
sg82
g2233
sg75
(lp2262
g68
(g89
g70
NtRp2263
(dp2264
g73
(dp2265
g93
g94
ssg82
g2259
sg75
(lp2266
S'first_name'
p2267
asbag68
(g89
g70
NtRp2268
(dp2269
g73
(dp2270
g100
g101
ssg82
g2259
sg75
(lp2271
S':'
asbag68
(g89
g70
NtRp2272
(dp2273
g73
(dp2274
sg82
g2259
sg75
(lp2275
g68
(g69
g70
NtRp2276
(dp2277
g73
(dp2278
g81
I4
ssg82
g2272
sg75
(lp2279
S'Alfonso'
p2280
asbasbasbag68
(g84
g70
NtRp2281
(dp2282
g73
(dp2283
sg82
g2233
sg75
(lp2284
g68
(g89
g70
NtRp2285
(dp2286
g73
(dp2287
g93
g94
ssg82
g2281
sg75
(lp2288
S'id'
p2289
asbag68
(g89
g70
NtRp2290
(dp2291
g73
(dp2292
g100
g101
ssg82
g2281
sg75
(lp2293
S':'
asbag68
(g89
g70
NtRp2294
(dp2295
g73
(dp2296
sg82
g2281
sg75
(lp2297
g68
(g69
g70
NtRp2298
(dp2299
g73
(dp2300
g81
I4
ssg82
g2294
sg75
(lp2301
S'1'
asbasbasbag68
(g84
g70
NtRp2302
(dp2303
g73
(dp2304
sg82
g2233
sg75
(lp2305
g68
(g89
g70
NtRp2306
(dp2307
g73
(dp2308
g93
g94
ssg82
g2302
sg75
(lp2309
S'last_name'
p2310
asbag68
(g89
g70
NtRp2311
(dp2312
g73
(dp2313
g100
g101
ssg82
g2302
sg75
(lp2314
S':'
asbag68
(g89
g70
NtRp2315
(dp2316
g73
(dp2317
sg82
g2302
sg75
(lp2318
g68
(g69
g70
NtRp2319
(dp2320
g73
(dp2321
g81
I4
ssg82
g2315
sg75
(lp2322
S'ando'
p2323
asbasbasbag68
(g84
g70
NtRp2324
(dp2325
g73
(dp2326
sg82
g2233
sg75
(lp2327
g68
(g89
g70
NtRp2328
(dp2329
g73
(dp2330
g93
g94
ssg82
g2324
sg75
(lp2331
S'photo'
p2332
asbag68
(g89
g70
NtRp2333
(dp2334
g73
(dp2335
g100
g101
ssg82
g2324
sg75
(lp2336
S':'
asbag68
(g89
g70
NtRp2337
(dp2338
g73
(dp2339
sg82
g2324
sg75
(lp2340
g68
(g69
g70
NtRp2341
(dp2342
g73
(dp2343
g81
I4
ssg82
g2337
sg75
(lp2344
S''
asbasbasbasbasbasbasbag68
(g84
g70
NtRp2345
(dp2346
g73
(dp2347
sg82
g78
sg75
(lp2348
g68
(g89
g70
NtRp2349
(dp2350
g73
(dp2351
g93
g94
ssg82
g2345
sg75
(lp2352
S'raw_args'
p2353
asbag68
(g89
g70
NtRp2354
(dp2355
g73
(dp2356
g100
g101
ssg82
g2345
sg75
(lp2357
S':'
asbag68
(g89
g70
NtRp2358
(dp2359
g73
(dp2360
sg82
g2345
sg75
(lp2361
g68
(g69
g70
NtRp2362
(dp2363
g73
(dp2364
g81
I5
ssg82
g2358
sg75
(lp2365
g170
asbasbasbag68
(g84
g70
NtRp2366
(dp2367
g73
(dp2368
sg82
g78
sg75
(lp2369
g68
(g89
g70
NtRp2370
(dp2371
g73
(dp2372
g93
g94
ssg82
g2366
sg75
(lp2373
S'url'
p2374
asbag68
(g89
g70
NtRp2375
(dp2376
g73
(dp2377
g100
g101
ssg82
g2366
sg75
(lp2378
S':'
asbag68
(g89
g70
NtRp2379
(dp2380
g73
(dp2381
sg82
g2366
sg75
(lp2382
g68
(g69
g70
NtRp2383
(dp2384
g73
(dp2385
g81
I5
ssg82
g2379
sg75
(lp2386
S'/telefam/default/user/profile'
p2387
asbasbasbag68
(g84
g70
NtRp2388
(dp2389
g73
(dp2390
sg82
g78
sg75
(lp2391
g68
(g89
g70
NtRp2392
(dp2393
g73
(dp2394
g93
g94
ssg82
g2388
sg75
(lp2395
S'utcnow'
p2396
asbag68
(g89
g70
NtRp2397
(dp2398
g73
(dp2399
g100
g101
ssg82
g2388
sg75
(lp2400
S':'
asbag68
(g89
g70
NtRp2401
(dp2402
g73
(dp2403
sg82
g2388
sg75
(lp2404
g68
(g69
g70
NtRp2405
(dp2406
g73
(dp2407
g81
I5
ssg82
g2401
sg75
(lp2408
S'datetime.datetime(2012, 8, 30, 12, 28, 39, 377785)'
p2409
asbasbasbag68
(g84
g70
NtRp2410
(dp2411
g73
(dp2412
sg82
g78
sg75
(lp2413
g68
(g89
g70
NtRp2414
(dp2415
g73
(dp2416
g93
g94
ssg82
g2410
sg75
(lp2417
S'uuid'
p2418
asbag68
(g89
g70
NtRp2419
(dp2420
g73
(dp2421
g100
g101
ssg82
g2410
sg75
(lp2422
S':'
asbag68
(g89
g70
NtRp2423
(dp2424
g73
(dp2425
sg82
g2410
sg75
(lp2426
g68
(g69
g70
NtRp2427
(dp2428
g73
(dp2429
g81
I5
ssg82
g2423
sg75
(lp2430
S'telefam/127.0.0.1.2012-08-30.14-28-39.033ff2ed-19eb-4d0a-8675-2f3703a13bf0'
p2431
asbasbasbag68
(g84
g70
NtRp2432
(dp2433
g73
(dp2434
sg82
g78
sg75
(lp2435
g68
(g89
g70
NtRp2436
(dp2437
g73
(dp2438
g93
g94
ssg82
g2432
sg75
(lp2439
S'vars'
p2440
asbag68
(g89
g70
NtRp2441
(dp2442
g73
(dp2443
g100
g101
ssg82
g2432
sg75
(lp2444
S':'
asbag68
(g89
g70
NtRp2445
(dp2446
g73
(dp2447
sg82
g2432
sg75
(lp2448
g68
(g69
g70
NtRp2449
(dp2450
g73
(dp2451
g81
I5
ssg82
g2445
sg75
(lp2452
g68
(g77
g70
NtRp2453
(dp2454
g73
(dp2455
g81
I4
ssg82
Nsg75
(lp2456
g68
(g84
g70
NtRp2457
(dp2458
g73
(dp2459
sg82
g2453
sg75
(lp2460
g68
(g89
g70
NtRp2461
(dp2462
g73
(dp2463
g93
g94
ssg82
g2457
sg75
(lp2464
g2245
asbag68
(g89
g70
NtRp2465
(dp2466
g73
(dp2467
g100
g101
ssg82
g2457
sg75
(lp2468
S':'
asbag68
(g89
g70
NtRp2469
(dp2470
g73
(dp2471
sg82
g2457
sg75
(lp2472
g68
(g69
g70
NtRp2473
(dp2474
g73
(dp2475
g81
I4
ssg82
g2469
sg75
(lp2476
g2258
asbasbasbag68
(g84
g70
NtRp2477
(dp2478
g73
(dp2479
sg82
g2453
sg75
(lp2480
g68
(g89
g70
NtRp2481
(dp2482
g73
(dp2483
g93
g94
ssg82
g2477
sg75
(lp2484
g2267
asbag68
(g89
g70
NtRp2485
(dp2486
g73
(dp2487
g100
g101
ssg82
g2477
sg75
(lp2488
S':'
asbag68
(g89
g70
NtRp2489
(dp2490
g73
(dp2491
sg82
g2477
sg75
(lp2492
g68
(g69
g70
NtRp2493
(dp2494
g73
(dp2495
g81
I4
ssg82
g2489
sg75
(lp2496
g2280
asbasbasbag68
(g84
g70
NtRp2497
(dp2498
g73
(dp2499
sg82
g2453
sg75
(lp2500
g68
(g89
g70
NtRp2501
(dp2502
g73
(dp2503
g93
g94
ssg82
g2497
sg75
(lp2504
g2289
asbag68
(g89
g70
NtRp2505
(dp2506
g73
(dp2507
g100
g101
ssg82
g2497
sg75
(lp2508
S':'
asbag68
(g89
g70
NtRp2509
(dp2510
g73
(dp2511
sg82
g2497
sg75
(lp2512
g68
(g69
g70
NtRp2513
(dp2514
g73
(dp2515
g81
I4
ssg82
g2509
sg75
(lp2516
S'1'
asbasbasbag68
(g84
g70
NtRp2517
(dp2518
g73
(dp2519
sg82
g2453
sg75
(lp2520
g68
(g89
g70
NtRp2521
(dp2522
g73
(dp2523
g93
g94
ssg82
g2517
sg75
(lp2524
g2310
asbag68
(g89
g70
NtRp2525
(dp2526
g73
(dp2527
g100
g101
ssg82
g2517
sg75
(lp2528
S':'
asbag68
(g89
g70
NtRp2529
(dp2530
g73
(dp2531
sg82
g2517
sg75
(lp2532
g68
(g69
g70
NtRp2533
(dp2534
g73
(dp2535
g81
I4
ssg82
g2529
sg75
(lp2536
g2323
asbasbasbag68
(g84
g70
NtRp2537
(dp2538
g73
(dp2539
sg82
g2453
sg75
(lp2540
g68
(g89
g70
NtRp2541
(dp2542
g73
(dp2543
g93
g94
ssg82
g2537
sg75
(lp2544
g2332
asbag68
(g89
g70
NtRp2545
(dp2546
g73
(dp2547
g100
g101
ssg82
g2537
sg75
(lp2548
S':'
asbag68
(g89
g70
NtRp2549
(dp2550
g73
(dp2551
sg82
g2537
sg75
(lp2552
g68
(g69
g70
NtRp2553
(dp2554
g73
(dp2555
g81
I4
ssg82
g2549
sg75
(lp2556
S''
asbasbasbasbasbasbasbag68
(g84
g70
NtRp2557
(dp2558
g73
(dp2559
sg82
g78
sg75
(lp2560
g68
(g89
g70
NtRp2561
(dp2562
g73
(dp2563
g93
g94
ssg82
g2557
sg75
(lp2564
S'wsgi'
p2565
asbag68
(g89
g70
NtRp2566
(dp2567
g73
(dp2568
g100
g101
ssg82
g2557
sg75
(lp2569
S':'
asbag68
(g89
g70
NtRp2570
(dp2571
g73
(dp2572
sg82
g2557
sg75
(lp2573
g68
(g69
g70
NtRp2574
(dp2575
g73
(dp2576
g81
I5
ssg82
g2570
sg75
(lp2577
g68
(g77
g70
NtRp2578
(dp2579
g73
(dp2580
g81
I4
ssg82
Nsg75
(lp2581
g68
(g84
g70
NtRp2582
(dp2583
g73
(dp2584
sg82
g2578
sg75
(lp2585
g68
(g89
g70
NtRp2586
(dp2587
g73
(dp2588
g93
g94
ssg82
g2582
sg75
(lp2589
S'environ'
p2590
asbag68
(g89
g70
NtRp2591
(dp2592
g73
(dp2593
g100
g101
ssg82
g2582
sg75
(lp2594
S':'
asbag68
(g89
g70
NtRp2595
(dp2596
g73
(dp2597
sg82
g2582
sg75
(lp2598
g68
(g69
g70
NtRp2599
(dp2600
g73
(dp2601
g81
I4
ssg82
g2595
sg75
(lp2602
g68
(g77
g70
NtRp2603
(dp2604
g73
(dp2605
g81
I3
ssg82
Nsg75
(lp2606
g68
(g84
g70
NtRp2607
(dp2608
g73
(dp2609
sg82
g2603
sg75
(lp2610
g68
(g89
g70
NtRp2611
(dp2612
g73
(dp2613
g93
g94
ssg82
g2607
sg75
(lp2614
S'CONTENT_LENGTH'
p2615
asbag68
(g89
g70
NtRp2616
(dp2617
g73
(dp2618
g100
g101
ssg82
g2607
sg75
(lp2619
S':'
asbag68
(g89
g70
NtRp2620
(dp2621
g73
(dp2622
sg82
g2607
sg75
(lp2623
g68
(g69
g70
NtRp2624
(dp2625
g73
(dp2626
g81
I3
ssg82
g2620
sg75
(lp2627
g777
asbasbasbag68
(g84
g70
NtRp2628
(dp2629
g73
(dp2630
sg82
g2603
sg75
(lp2631
g68
(g89
g70
NtRp2632
(dp2633
g73
(dp2634
g93
g94
ssg82
g2628
sg75
(lp2635
S'CONTENT_TYPE'
p2636
asbag68
(g89
g70
NtRp2637
(dp2638
g73
(dp2639
g100
g101
ssg82
g2628
sg75
(lp2640
S':'
asbag68
(g89
g70
NtRp2641
(dp2642
g73
(dp2643
sg82
g2628
sg75
(lp2644
g68
(g69
g70
NtRp2645
(dp2646
g73
(dp2647
g81
I3
ssg82
g2641
sg75
(lp2648
g799
asbasbasbag68
(g84
g70
NtRp2649
(dp2650
g73
(dp2651
sg82
g2603
sg75
(lp2652
g68
(g89
g70
NtRp2653
(dp2654
g73
(dp2655
g93
g94
ssg82
g2649
sg75
(lp2656
S'HTTP_ACCEPT'
p2657
asbag68
(g89
g70
NtRp2658
(dp2659
g73
(dp2660
g100
g101
ssg82
g2649
sg75
(lp2661
S':'
asbag68
(g89
g70
NtRp2662
(dp2663
g73
(dp2664
sg82
g2649
sg75
(lp2665
g68
(g69
g70
NtRp2666
(dp2667
g73
(dp2668
g81
I3
ssg82
g2662
sg75
(lp2669
g886
asbasbasbag68
(g84
g70
NtRp2670
(dp2671
g73
(dp2672
sg82
g2603
sg75
(lp2673
g68
(g89
g70
NtRp2674
(dp2675
g73
(dp2676
g93
g94
ssg82
g2670
sg75
(lp2677
S'HTTP_ACCEPT_CHARSET'
p2678
asbag68
(g89
g70
NtRp2679
(dp2680
g73
(dp2681
g100
g101
ssg82
g2670
sg75
(lp2682
S':'
asbag68
(g89
g70
NtRp2683
(dp2684
g73
(dp2685
sg82
g2670
sg75
(lp2686
g68
(g69
g70
NtRp2687
(dp2688
g73
(dp2689
g81
I3
ssg82
g2683
sg75
(lp2690
g908
asbasbasbag68
(g84
g70
NtRp2691
(dp2692
g73
(dp2693
sg82
g2603
sg75
(lp2694
g68
(g89
g70
NtRp2695
(dp2696
g73
(dp2697
g93
g94
ssg82
g2691
sg75
(lp2698
S'HTTP_ACCEPT_ENCODING'
p2699
asbag68
(g89
g70
NtRp2700
(dp2701
g73
(dp2702
g100
g101
ssg82
g2691
sg75
(lp2703
S':'
asbag68
(g89
g70
NtRp2704
(dp2705
g73
(dp2706
sg82
g2691
sg75
(lp2707
g68
(g69
g70
NtRp2708
(dp2709
g73
(dp2710
g81
I3
ssg82
g2704
sg75
(lp2711
g930
asbasbasbag68
(g84
g70
NtRp2712
(dp2713
g73
(dp2714
sg82
g2603
sg75
(lp2715
g68
(g89
g70
NtRp2716
(dp2717
g73
(dp2718
g93
g94
ssg82
g2712
sg75
(lp2719
S'HTTP_ACCEPT_LANGUAGE'
p2720
asbag68
(g89
g70
NtRp2721
(dp2722
g73
(dp2723
g100
g101
ssg82
g2712
sg75
(lp2724
S':'
asbag68
(g89
g70
NtRp2725
(dp2726
g73
(dp2727
sg82
g2712
sg75
(lp2728
g68
(g69
g70
NtRp2729
(dp2730
g73
(dp2731
g81
I3
ssg82
g2725
sg75
(lp2732
g952
asbasbasbag68
(g84
g70
NtRp2733
(dp2734
g73
(dp2735
sg82
g2603
sg75
(lp2736
g68
(g89
g70
NtRp2737
(dp2738
g73
(dp2739
g93
g94
ssg82
g2733
sg75
(lp2740
S'HTTP_CACHE_CONTROL'
p2741
asbag68
(g89
g70
NtRp2742
(dp2743
g73
(dp2744
g100
g101
ssg82
g2733
sg75
(lp2745
S':'
asbag68
(g89
g70
NtRp2746
(dp2747
g73
(dp2748
sg82
g2733
sg75
(lp2749
g68
(g69
g70
NtRp2750
(dp2751
g73
(dp2752
g81
I3
ssg82
g2746
sg75
(lp2753
g974
asbasbasbag68
(g84
g70
NtRp2754
(dp2755
g73
(dp2756
sg82
g2603
sg75
(lp2757
g68
(g89
g70
NtRp2758
(dp2759
g73
(dp2760
g93
g94
ssg82
g2754
sg75
(lp2761
S'HTTP_CONNECTION'
p2762
asbag68
(g89
g70
NtRp2763
(dp2764
g73
(dp2765
g100
g101
ssg82
g2754
sg75
(lp2766
S':'
asbag68
(g89
g70
NtRp2767
(dp2768
g73
(dp2769
sg82
g2754
sg75
(lp2770
g68
(g69
g70
NtRp2771
(dp2772
g73
(dp2773
g81
I3
ssg82
g2767
sg75
(lp2774
g996
asbasbasbag68
(g84
g70
NtRp2775
(dp2776
g73
(dp2777
sg82
g2603
sg75
(lp2778
g68
(g89
g70
NtRp2779
(dp2780
g73
(dp2781
g93
g94
ssg82
g2775
sg75
(lp2782
S'HTTP_CONTENT_LENGTH'
p2783
asbag68
(g89
g70
NtRp2784
(dp2785
g73
(dp2786
g100
g101
ssg82
g2775
sg75
(lp2787
S':'
asbag68
(g89
g70
NtRp2788
(dp2789
g73
(dp2790
sg82
g2775
sg75
(lp2791
g68
(g69
g70
NtRp2792
(dp2793
g73
(dp2794
g81
I3
ssg82
g2788
sg75
(lp2795
g777
asbasbasbag68
(g84
g70
NtRp2796
(dp2797
g73
(dp2798
sg82
g2603
sg75
(lp2799
g68
(g89
g70
NtRp2800
(dp2801
g73
(dp2802
g93
g94
ssg82
g2796
sg75
(lp2803
S'HTTP_CONTENT_TYPE'
p2804
asbag68
(g89
g70
NtRp2805
(dp2806
g73
(dp2807
g100
g101
ssg82
g2796
sg75
(lp2808
S':'
asbag68
(g89
g70
NtRp2809
(dp2810
g73
(dp2811
sg82
g2796
sg75
(lp2812
g68
(g69
g70
NtRp2813
(dp2814
g73
(dp2815
g81
I3
ssg82
g2809
sg75
(lp2816
g799
asbasbasbag68
(g84
g70
NtRp2817
(dp2818
g73
(dp2819
sg82
g2603
sg75
(lp2820
g68
(g89
g70
NtRp2821
(dp2822
g73
(dp2823
g93
g94
ssg82
g2817
sg75
(lp2824
S'HTTP_COOKIE'
p2825
asbag68
(g89
g70
NtRp2826
(dp2827
g73
(dp2828
g100
g101
ssg82
g2817
sg75
(lp2829
S':'
asbag68
(g89
g70
NtRp2830
(dp2831
g73
(dp2832
sg82
g2817
sg75
(lp2833
g68
(g69
g70
NtRp2834
(dp2835
g73
(dp2836
g81
I3
ssg82
g2830
sg75
(lp2837
g1060
asbasbasbag68
(g84
g70
NtRp2838
(dp2839
g73
(dp2840
sg82
g2603
sg75
(lp2841
g68
(g89
g70
NtRp2842
(dp2843
g73
(dp2844
g93
g94
ssg82
g2838
sg75
(lp2845
S'HTTP_HOST'
p2846
asbag68
(g89
g70
NtRp2847
(dp2848
g73
(dp2849
g100
g101
ssg82
g2838
sg75
(lp2850
S':'
asbag68
(g89
g70
NtRp2851
(dp2852
g73
(dp2853
sg82
g2838
sg75
(lp2854
g68
(g69
g70
NtRp2855
(dp2856
g73
(dp2857
g81
I3
ssg82
g2851
sg75
(lp2858
g1082
asbasbasbag68
(g84
g70
NtRp2859
(dp2860
g73
(dp2861
sg82
g2603
sg75
(lp2862
g68
(g89
g70
NtRp2863
(dp2864
g73
(dp2865
g93
g94
ssg82
g2859
sg75
(lp2866
S'HTTP_REFERER'
p2867
asbag68
(g89
g70
NtRp2868
(dp2869
g73
(dp2870
g100
g101
ssg82
g2859
sg75
(lp2871
S':'
asbag68
(g89
g70
NtRp2872
(dp2873
g73
(dp2874
sg82
g2859
sg75
(lp2875
g68
(g69
g70
NtRp2876
(dp2877
g73
(dp2878
g81
I3
ssg82
g2872
sg75
(lp2879
g1104
asbasbasbag68
(g84
g70
NtRp2880
(dp2881
g73
(dp2882
sg82
g2603
sg75
(lp2883
g68
(g89
g70
NtRp2884
(dp2885
g73
(dp2886
g93
g94
ssg82
g2880
sg75
(lp2887
S'HTTP_USER_AGENT'
p2888
asbag68
(g89
g70
NtRp2889
(dp2890
g73
(dp2891
g100
g101
ssg82
g2880
sg75
(lp2892
S':'
asbag68
(g89
g70
NtRp2893
(dp2894
g73
(dp2895
sg82
g2880
sg75
(lp2896
g68
(g69
g70
NtRp2897
(dp2898
g73
(dp2899
g81
I3
ssg82
g2893
sg75
(lp2900
g1126
asbasbasbag68
(g84
g70
NtRp2901
(dp2902
g73
(dp2903
sg82
g2603
sg75
(lp2904
g68
(g89
g70
NtRp2905
(dp2906
g73
(dp2907
g93
g94
ssg82
g2901
sg75
(lp2908
S'PATH_INFO'
p2909
asbag68
(g89
g70
NtRp2910
(dp2911
g73
(dp2912
g100
g101
ssg82
g2901
sg75
(lp2913
S':'
asbag68
(g89
g70
NtRp2914
(dp2915
g73
(dp2916
sg82
g2901
sg75
(lp2917
g68
(g69
g70
NtRp2918
(dp2919
g73
(dp2920
g81
I3
ssg82
g2914
sg75
(lp2921
g1190
asbasbasbag68
(g84
g70
NtRp2922
(dp2923
g73
(dp2924
sg82
g2603
sg75
(lp2925
g68
(g89
g70
NtRp2926
(dp2927
g73
(dp2928
g93
g94
ssg82
g2922
sg75
(lp2929
S'QUERY_STRING'
p2930
asbag68
(g89
g70
NtRp2931
(dp2932
g73
(dp2933
g100
g101
ssg82
g2922
sg75
(lp2934
S':'
asbag68
(g89
g70
NtRp2935
(dp2936
g73
(dp2937
sg82
g2922
sg75
(lp2938
g68
(g69
g70
NtRp2939
(dp2940
g73
(dp2941
g81
I3
ssg82
g2935
sg75
(lp2942
S''
asbasbasbag68
(g84
g70
NtRp2943
(dp2944
g73
(dp2945
sg82
g2603
sg75
(lp2946
g68
(g89
g70
NtRp2947
(dp2948
g73
(dp2949
g93
g94
ssg82
g2943
sg75
(lp2950
S'REMOTE_ADDR'
p2951
asbag68
(g89
g70
NtRp2952
(dp2953
g73
(dp2954
g100
g101
ssg82
g2943
sg75
(lp2955
S':'
asbag68
(g89
g70
NtRp2956
(dp2957
g73
(dp2958
sg82
g2943
sg75
(lp2959
g68
(g69
g70
NtRp2960
(dp2961
g73
(dp2962
g81
I3
ssg82
g2956
sg75
(lp2963
g214
asbasbasbag68
(g84
g70
NtRp2964
(dp2965
g73
(dp2966
sg82
g2603
sg75
(lp2967
g68
(g89
g70
NtRp2968
(dp2969
g73
(dp2970
g93
g94
ssg82
g2964
sg75
(lp2971
S'REMOTE_PORT'
p2972
asbag68
(g89
g70
NtRp2973
(dp2974
g73
(dp2975
g100
g101
ssg82
g2964
sg75
(lp2976
S':'
asbag68
(g89
g70
NtRp2977
(dp2978
g73
(dp2979
sg82
g2964
sg75
(lp2980
g68
(g69
g70
NtRp2981
(dp2982
g73
(dp2983
g81
I3
ssg82
g2977
sg75
(lp2984
g1254
asbasbasbag68
(g84
g70
NtRp2985
(dp2986
g73
(dp2987
sg82
g2603
sg75
(lp2988
g68
(g89
g70
NtRp2989
(dp2990
g73
(dp2991
g93
g94
ssg82
g2985
sg75
(lp2992
S'REQUEST_METHOD'
p2993
asbag68
(g89
g70
NtRp2994
(dp2995
g73
(dp2996
g100
g101
ssg82
g2985
sg75
(lp2997
S':'
asbag68
(g89
g70
NtRp2998
(dp2999
g73
(dp3000
sg82
g2985
sg75
(lp3001
g68
(g69
g70
NtRp3002
(dp3003
g73
(dp3004
g81
I3
ssg82
g2998
sg75
(lp3005
g1276
asbasbasbag68
(g84
g70
NtRp3006
(dp3007
g73
(dp3008
sg82
g2603
sg75
(lp3009
g68
(g89
g70
NtRp3010
(dp3011
g73
(dp3012
g93
g94
ssg82
g3006
sg75
(lp3013
S'SCRIPT_NAME'
p3014
asbag68
(g89
g70
NtRp3015
(dp3016
g73
(dp3017
g100
g101
ssg82
g3006
sg75
(lp3018
S':'
asbag68
(g89
g70
NtRp3019
(dp3020
g73
(dp3021
sg82
g3006
sg75
(lp3022
g68
(g69
g70
NtRp3023
(dp3024
g73
(dp3025
g81
I3
ssg82
g3019
sg75
(lp3026
S''
asbasbasbag68
(g84
g70
NtRp3027
(dp3028
g73
(dp3029
sg82
g2603
sg75
(lp3030
g68
(g89
g70
NtRp3031
(dp3032
g73
(dp3033
g93
g94
ssg82
g3027
sg75
(lp3034
S'SERVER_NAME'
p3035
asbag68
(g89
g70
NtRp3036
(dp3037
g73
(dp3038
g100
g101
ssg82
g3027
sg75
(lp3039
S':'
asbag68
(g89
g70
NtRp3040
(dp3041
g73
(dp3042
sg82
g3027
sg75
(lp3043
g68
(g69
g70
NtRp3044
(dp3045
g73
(dp3046
g81
I3
ssg82
g3040
sg75
(lp3047
g1319
asbasbasbag68
(g84
g70
NtRp3048
(dp3049
g73
(dp3050
sg82
g2603
sg75
(lp3051
g68
(g89
g70
NtRp3052
(dp3053
g73
(dp3054
g93
g94
ssg82
g3048
sg75
(lp3055
S'SERVER_PORT'
p3056
asbag68
(g89
g70
NtRp3057
(dp3058
g73
(dp3059
g100
g101
ssg82
g3048
sg75
(lp3060
S':'
asbag68
(g89
g70
NtRp3061
(dp3062
g73
(dp3063
sg82
g3048
sg75
(lp3064
g68
(g69
g70
NtRp3065
(dp3066
g73
(dp3067
g81
I3
ssg82
g3061
sg75
(lp3068
g1341
asbasbasbag68
(g84
g70
NtRp3069
(dp3070
g73
(dp3071
sg82
g2603
sg75
(lp3072
g68
(g89
g70
NtRp3073
(dp3074
g73
(dp3075
g93
g94
ssg82
g3069
sg75
(lp3076
S'SERVER_PROTOCOL'
p3077
asbag68
(g89
g70
NtRp3078
(dp3079
g73
(dp3080
g100
g101
ssg82
g3069
sg75
(lp3081
S':'
asbag68
(g89
g70
NtRp3082
(dp3083
g73
(dp3084
sg82
g3069
sg75
(lp3085
g68
(g69
g70
NtRp3086
(dp3087
g73
(dp3088
g81
I3
ssg82
g3082
sg75
(lp3089
g1363
asbasbasbag68
(g84
g70
NtRp3090
(dp3091
g73
(dp3092
sg82
g2603
sg75
(lp3093
g68
(g89
g70
NtRp3094
(dp3095
g73
(dp3096
g93
g94
ssg82
g3090
sg75
(lp3097
S'SERVER_SOFTWARE'
p3098
asbag68
(g89
g70
NtRp3099
(dp3100
g73
(dp3101
g100
g101
ssg82
g3090
sg75
(lp3102
S':'
asbag68
(g89
g70
NtRp3103
(dp3104
g73
(dp3105
sg82
g3090
sg75
(lp3106
g68
(g69
g70
NtRp3107
(dp3108
g73
(dp3109
g81
I3
ssg82
g3103
sg75
(lp3110
g1385
asbasbasbag68
(g84
g70
NtRp3111
(dp3112
g73
(dp3113
sg82
g2603
sg75
(lp3114
g68
(g89
g70
NtRp3115
(dp3116
g73
(dp3117
g93
g94
ssg82
g3111
sg75
(lp3118
S'wsgi.errors'
p3119
asbag68
(g89
g70
NtRp3120
(dp3121
g73
(dp3122
g100
g101
ssg82
g3111
sg75
(lp3123
S':'
asbag68
(g89
g70
NtRp3124
(dp3125
g73
(dp3126
sg82
g3111
sg75
(lp3127
g68
(g69
g70
NtRp3128
(dp3129
g73
(dp3130
g81
I3
ssg82
g3124
sg75
(lp3131
S"<open file '<stderr>', mode 'w' at 0xb77800d0>"
p3132
asbasbasbag68
(g84
g70
NtRp3133
(dp3134
g73
(dp3135
sg82
g2603
sg75
(lp3136
g68
(g89
g70
NtRp3137
(dp3138
g73
(dp3139
g93
g94
ssg82
g3133
sg75
(lp3140
S'wsgi.file_wrapper'
p3141
asbag68
(g89
g70
NtRp3142
(dp3143
g73
(dp3144
g100
g101
ssg82
g3133
sg75
(lp3145
S':'
asbag68
(g89
g70
NtRp3146
(dp3147
g73
(dp3148
sg82
g3133
sg75
(lp3149
g68
(g69
g70
NtRp3150
(dp3151
g73
(dp3152
g81
I3
ssg82
g3146
sg75
(lp3153
S'<class wsgiref.util.FileWrapper at 0xa0f9e6c>'
p3154
asbasbasbag68
(g84
g70
NtRp3155
(dp3156
g73
(dp3157
sg82
g2603
sg75
(lp3158
g68
(g89
g70
NtRp3159
(dp3160
g73
(dp3161
g93
g94
ssg82
g3155
sg75
(lp3162
S'wsgi.input'
p3163
asbag68
(g89
g70
NtRp3164
(dp3165
g73
(dp3166
g100
g101
ssg82
g3155
sg75
(lp3167
S':'
asbag68
(g89
g70
NtRp3168
(dp3169
g73
(dp3170
sg82
g3155
sg75
(lp3171
g68
(g69
g70
NtRp3172
(dp3173
g73
(dp3174
g81
I3
ssg82
g3168
sg75
(lp3175
S"<open file '<fdopen>', mode 'w+b' at 0xa582910>"
p3176
asbasbasbag68
(g84
g70
NtRp3177
(dp3178
g73
(dp3179
sg82
g2603
sg75
(lp3180
g68
(g89
g70
NtRp3181
(dp3182
g73
(dp3183
g93
g94
ssg82
g3177
sg75
(lp3184
S'wsgi.multiprocess'
p3185
asbag68
(g89
g70
NtRp3186
(dp3187
g73
(dp3188
g100
g101
ssg82
g3177
sg75
(lp3189
S':'
asbag68
(g89
g70
NtRp3190
(dp3191
g73
(dp3192
sg82
g3177
sg75
(lp3193
g68
(g69
g70
NtRp3194
(dp3195
g73
(dp3196
g81
I3
ssg82
g3190
sg75
(lp3197
g111
asbasbasbag68
(g84
g70
NtRp3198
(dp3199
g73
(dp3200
sg82
g2603
sg75
(lp3201
g68
(g89
g70
NtRp3202
(dp3203
g73
(dp3204
g93
g94
ssg82
g3198
sg75
(lp3205
S'wsgi.multithread'
p3206
asbag68
(g89
g70
NtRp3207
(dp3208
g73
(dp3209
g100
g101
ssg82
g3198
sg75
(lp3210
S':'
asbag68
(g89
g70
NtRp3211
(dp3212
g73
(dp3213
sg82
g3198
sg75
(lp3214
g68
(g69
g70
NtRp3215
(dp3216
g73
(dp3217
g81
I3
ssg82
g3211
sg75
(lp3218
g1625
asbasbasbag68
(g84
g70
NtRp3219
(dp3220
g73
(dp3221
sg82
g2603
sg75
(lp3222
g68
(g89
g70
NtRp3223
(dp3224
g73
(dp3225
g93
g94
ssg82
g3219
sg75
(lp3226
S'wsgi.run_once'
p3227
asbag68
(g89
g70
NtRp3228
(dp3229
g73
(dp3230
g100
g101
ssg82
g3219
sg75
(lp3231
S':'
asbag68
(g89
g70
NtRp3232
(dp3233
g73
(dp3234
sg82
g3219
sg75
(lp3235
g68
(g69
g70
NtRp3236
(dp3237
g73
(dp3238
g81
I3
ssg82
g3232
sg75
(lp3239
g111
asbasbasbag68
(g84
g70
NtRp3240
(dp3241
g73
(dp3242
sg82
g2603
sg75
(lp3243
g68
(g89
g70
NtRp3244
(dp3245
g73
(dp3246
g93
g94
ssg82
g3240
sg75
(lp3247
S'wsgi.url_scheme'
p3248
asbag68
(g89
g70
NtRp3249
(dp3250
g73
(dp3251
g100
g101
ssg82
g3240
sg75
(lp3252
S':'
asbag68
(g89
g70
NtRp3253
(dp3254
g73
(dp3255
sg82
g3240
sg75
(lp3256
g68
(g69
g70
NtRp3257
(dp3258
g73
(dp3259
g81
I3
ssg82
g3253
sg75
(lp3260
g1668
asbasbasbag68
(g84
g70
NtRp3261
(dp3262
g73
(dp3263
sg82
g2603
sg75
(lp3264
g68
(g89
g70
NtRp3265
(dp3266
g73
(dp3267
g93
g94
ssg82
g3261
sg75
(lp3268
S'wsgi.version'
p3269
asbag68
(g89
g70
NtRp3270
(dp3271
g73
(dp3272
g100
g101
ssg82
g3261
sg75
(lp3273
S':'
asbag68
(g89
g70
NtRp3274
(dp3275
g73
(dp3276
sg82
g3261
sg75
(lp3277
g68
(g69
g70
NtRp3278
(dp3279
g73
(dp3280
g81
I3
ssg82
g3274
sg75
(lp3281
S'1'
asbasbasbasbasbasbasbasbasbasbasbasbasbsS'frames'
p3282
(lp3283
(dp3284
S'file'
p3285
S'/home/alfem/alfem/prog/telefam/server/web2py/gluon/restricted.py'
p3286
sS'dump'
p3287
(dp3288
S'code'
p3289
S"'# -*- coding: utf-8 -*-\\n\\n#######################...able = db.galleries.updated_on.writable = False\\n\\n'"
p3290
sS'layer'
p3291
S"'/home/alfem/alfem/prog/telefam/server/web2py/applications/telefam/models/db.py'"
p3292
sS'global compile2'
p3293
S'<function compile2>'
p3294
sS'ccode'
p3295
S'undefined'
p3296
ssS'lnum'
p3297
I204
sS'lines'
p3298
(dp3299
I199
S"    environment['__name__'] = '__restricted__'"
p3300
sI200
S'    try:'
p3301
sI201
S'        if type(code) == types.CodeType:'
p3302
sI202
S'            ccode = code'
p3303
sI203
S'        else:'
p3304
sI204
S'            ccode = compile2(code,layer)'
p3305
sI205
S'        exec ccode in environment'
p3306
sI206
S'    except HTTP:'
p3307
sI207
S'        raise'
p3308
sI208
S'    except RestrictedError:'
p3309
ssS'call'
p3310
S"(code='# -*- coding: utf-8 -*-\\n\\n#######################...able = db.galleries.updated_on.writable = False\\n\\n', environment={'A': <class 'gluon.html.A'>, 'B': <class 'gluon.html.B'>, 'BEAUTIFY': <class 'gluon.html.BEAUTIFY'>, 'BODY': <class 'gluon.html.BODY'>, 'BR': <class 'gluon.html.BR'>, 'BUTTON': <class 'gluon.html.BUTTON'>, 'CAT': <class 'gluon.html.CAT'>, 'CENTER': <class 'gluon.html.CENTER'>, 'CLEANUP': <class 'gluon.validators.CLEANUP'>, 'CODE': <class 'gluon.html.CODE'>, ...}, layer='/home/alfem/alfem/prog/telefam/server/web2py/applications/telefam/models/db.py')"
p3311
sS'func'
p3312
S'restricted'
p3313
sa(dp3314
g3285
S'/home/alfem/alfem/prog/telefam/server/web2py/gluon/restricted.py'
p3315
sg3287
(dp3316
S'builtincompile'
p3317
S'<built-in function compile>'
p3318
sS'code'
p3319
S"'# -*- coding: utf-8 -*-\\n\\n#######################...able = db.galleries.updated_on.writable = False\\n\\n'"
p3320
sS'code.rstrip'
p3321
S'<built-in method rstrip of str object>'
p3322
sS').replace'
p3323
g3296
sS'layer'
p3324
S"'/home/alfem/alfem/prog/telefam/server/web2py/applications/telefam/models/db.py'"
p3325
ssg3297
I189
sg3298
(dp3326
I192
S'    """'
p3327
sI193
S'    runs code in environment and returns the output. if an exception occurs'
p3328
sI184
S''
sI185
S'def compile2(code,layer):'
p3329
sI186
S'    """'
p3330
sI187
S"    The +'\\n' is necessary else compile fails when code ends in a comment."
p3331
sI188
S'    """'
p3332
sI189
S"    return compile(code.rstrip().replace('\\r\\n','\\n')+'\\n', layer, 'exec')"
p3333
sI190
S''
sI191
S"def restricted(code, environment=None, layer='Unknown'):"
p3334
ssg3310
S"(code='# -*- coding: utf-8 -*-\\n\\n#######################...able = db.galleries.updated_on.writable = False\\n\\n', layer='/home/alfem/alfem/prog/telefam/server/web2py/applications/telefam/models/db.py')"
p3335
sg3312
S'compile2'
p3336
sasS'pyver'
p3337
S'Python 2.7.2+: /usr/bin/python'
p3338
sS'session'
p3339
g68
(g69
g70
NtRp3340
(dp3341
g73
(dp3342
sg75
(lp3343
g68
(g77
g70
NtRp3344
(dp3345
g73
(dp3346
g81
I5
ssg82
Nsg75
(lp3347
g68
(g84
g70
NtRp3348
(dp3349
g73
(dp3350
sg82
g3344
sg75
(lp3351
g68
(g89
g70
NtRp3352
(dp3353
g73
(dp3354
g93
g94
ssg82
g3348
sg75
(lp3355
S'auth'
p3356
asbag68
(g89
g70
NtRp3357
(dp3358
g73
(dp3359
g100
g101
ssg82
g3348
sg75
(lp3360
S':'
asbag68
(g89
g70
NtRp3361
(dp3362
g73
(dp3363
sg82
g3348
sg75
(lp3364
g68
(g69
g70
NtRp3365
(dp3366
g73
(dp3367
g81
I5
ssg82
g3361
sg75
(lp3368
g68
(g77
g70
NtRp3369
(dp3370
g73
(dp3371
g81
I4
ssg82
Nsg75
(lp3372
g68
(g84
g70
NtRp3373
(dp3374
g73
(dp3375
sg82
g3369
sg75
(lp3376
g68
(g89
g70
NtRp3377
(dp3378
g73
(dp3379
g93
g94
ssg82
g3373
sg75
(lp3380
S'expiration'
p3381
asbag68
(g89
g70
NtRp3382
(dp3383
g73
(dp3384
g100
g101
ssg82
g3373
sg75
(lp3385
S':'
asbag68
(g89
g70
NtRp3386
(dp3387
g73
(dp3388
sg82
g3373
sg75
(lp3389
g68
(g69
g70
NtRp3390
(dp3391
g73
(dp3392
g81
I4
ssg82
g3386
sg75
(lp3393
S'3600'
p3394
asbasbasbag68
(g84
g70
NtRp3395
(dp3396
g73
(dp3397
sg82
g3369
sg75
(lp3398
g68
(g89
g70
NtRp3399
(dp3400
g73
(dp3401
g93
g94
ssg82
g3395
sg75
(lp3402
S'hmac_key'
p3403
asbag68
(g89
g70
NtRp3404
(dp3405
g73
(dp3406
g100
g101
ssg82
g3395
sg75
(lp3407
S':'
asbag68
(g89
g70
NtRp3408
(dp3409
g73
(dp3410
sg82
g3395
sg75
(lp3411
g68
(g69
g70
NtRp3412
(dp3413
g73
(dp3414
g81
I4
ssg82
g3408
sg75
(lp3415
S'10b16de2-5242-4454-b430-eea577a6d2b9'
p3416
asbasbasbag68
(g84
g70
NtRp3417
(dp3418
g73
(dp3419
sg82
g3369
sg75
(lp3420
g68
(g89
g70
NtRp3421
(dp3422
g73
(dp3423
g93
g94
ssg82
g3417
sg75
(lp3424
S'last_visit'
p3425
asbag68
(g89
g70
NtRp3426
(dp3427
g73
(dp3428
g100
g101
ssg82
g3417
sg75
(lp3429
S':'
asbag68
(g89
g70
NtRp3430
(dp3431
g73
(dp3432
sg82
g3417
sg75
(lp3433
g68
(g69
g70
NtRp3434
(dp3435
g73
(dp3436
g81
I4
ssg82
g3430
sg75
(lp3437
S'datetime.datetime(2012, 8, 30, 14, 22, 3, 381483)'
p3438
asbasbasbag68
(g84
g70
NtRp3439
(dp3440
g73
(dp3441
sg82
g3369
sg75
(lp3442
g68
(g89
g70
NtRp3443
(dp3444
g73
(dp3445
g93
g94
ssg82
g3439
sg75
(lp3446
S'remember'
p3447
asbag68
(g89
g70
NtRp3448
(dp3449
g73
(dp3450
g100
g101
ssg82
g3439
sg75
(lp3451
S':'
asbag68
(g89
g70
NtRp3452
(dp3453
g73
(dp3454
sg82
g3439
sg75
(lp3455
g68
(g69
g70
NtRp3456
(dp3457
g73
(dp3458
g81
I4
ssg82
g3452
sg75
(lp3459
g111
asbasbasbag68
(g84
g70
NtRp3460
(dp3461
g73
(dp3462
sg82
g3369
sg75
(lp3463
g68
(g89
g70
NtRp3464
(dp3465
g73
(dp3466
g93
g94
ssg82
g3460
sg75
(lp3467
S'user'
p3468
asbag68
(g89
g70
NtRp3469
(dp3470
g73
(dp3471
g100
g101
ssg82
g3460
sg75
(lp3472
S':'
asbag68
(g89
g70
NtRp3473
(dp3474
g73
(dp3475
sg82
g3460
sg75
(lp3476
g68
(g69
g70
NtRp3477
(dp3478
g73
(dp3479
g81
I4
ssg82
g3473
sg75
(lp3480
g68
(g77
g70
NtRp3481
(dp3482
g73
(dp3483
g81
I3
ssg82
Nsg75
(lp3484
g68
(g84
g70
NtRp3485
(dp3486
g73
(dp3487
sg82
g3481
sg75
(lp3488
g68
(g89
g70
NtRp3489
(dp3490
g73
(dp3491
g93
g94
ssg82
g3485
sg75
(lp3492
S'email'
p3493
asbag68
(g89
g70
NtRp3494
(dp3495
g73
(dp3496
g100
g101
ssg82
g3485
sg75
(lp3497
S':'
asbag68
(g89
g70
NtRp3498
(dp3499
g73
(dp3500
sg82
g3485
sg75
(lp3501
g68
(g69
g70
NtRp3502
(dp3503
g73
(dp3504
g81
I3
ssg82
g3498
sg75
(lp3505
S'alfonso@el-magnifico.org'
p3506
asbasbasbag68
(g84
g70
NtRp3507
(dp3508
g73
(dp3509
sg82
g3481
sg75
(lp3510
g68
(g89
g70
NtRp3511
(dp3512
g73
(dp3513
g93
g94
ssg82
g3507
sg75
(lp3514
S'first_name'
p3515
asbag68
(g89
g70
NtRp3516
(dp3517
g73
(dp3518
g100
g101
ssg82
g3507
sg75
(lp3519
S':'
asbag68
(g89
g70
NtRp3520
(dp3521
g73
(dp3522
sg82
g3507
sg75
(lp3523
g68
(g69
g70
NtRp3524
(dp3525
g73
(dp3526
g81
I3
ssg82
g3520
sg75
(lp3527
S'Alfonso'
p3528
asbasbasbag68
(g84
g70
NtRp3529
(dp3530
g73
(dp3531
sg82
g3481
sg75
(lp3532
g68
(g89
g70
NtRp3533
(dp3534
g73
(dp3535
g93
g94
ssg82
g3529
sg75
(lp3536
S'id'
p3537
asbag68
(g89
g70
NtRp3538
(dp3539
g73
(dp3540
g100
g101
ssg82
g3529
sg75
(lp3541
S':'
asbag68
(g89
g70
NtRp3542
(dp3543
g73
(dp3544
sg82
g3529
sg75
(lp3545
g68
(g69
g70
NtRp3546
(dp3547
g73
(dp3548
g81
I3
ssg82
g3542
sg75
(lp3549
S'1'
asbasbasbag68
(g84
g70
NtRp3550
(dp3551
g73
(dp3552
sg82
g3481
sg75
(lp3553
g68
(g89
g70
NtRp3554
(dp3555
g73
(dp3556
g93
g94
ssg82
g3550
sg75
(lp3557
S'last_name'
p3558
asbag68
(g89
g70
NtRp3559
(dp3560
g73
(dp3561
g100
g101
ssg82
g3550
sg75
(lp3562
S':'
asbag68
(g89
g70
NtRp3563
(dp3564
g73
(dp3565
sg82
g3550
sg75
(lp3566
g68
(g69
g70
NtRp3567
(dp3568
g73
(dp3569
g81
I3
ssg82
g3563
sg75
(lp3570
S'ando'
p3571
asbasbasbag68
(g84
g70
NtRp3572
(dp3573
g73
(dp3574
sg82
g3481
sg75
(lp3575
g68
(g89
g70
NtRp3576
(dp3577
g73
(dp3578
g93
g94
ssg82
g3572
sg75
(lp3579
S'password'
p3580
asbag68
(g89
g70
NtRp3581
(dp3582
g73
(dp3583
g100
g101
ssg82
g3572
sg75
(lp3584
S':'
asbag68
(g89
g70
NtRp3585
(dp3586
g73
(dp3587
sg82
g3572
sg75
(lp3588
g68
(g69
g70
NtRp3589
(dp3590
g73
(dp3591
g81
I3
ssg82
g3585
sg75
(lp3592
S'12923092f4d9e86e56018b9cdd790947'
p3593
asbasbasbag68
(g84
g70
NtRp3594
(dp3595
g73
(dp3596
sg82
g3481
sg75
(lp3597
g68
(g89
g70
NtRp3598
(dp3599
g73
(dp3600
g93
g94
ssg82
g3594
sg75
(lp3601
S'photo'
p3602
asbag68
(g89
g70
NtRp3603
(dp3604
g73
(dp3605
g100
g101
ssg82
g3594
sg75
(lp3606
S':'
asbag68
(g89
g70
NtRp3607
(dp3608
g73
(dp3609
sg82
g3594
sg75
(lp3610
g68
(g69
g70
NtRp3611
(dp3612
g73
(dp3613
g81
I3
ssg82
g3607
sg75
(lp3614
S'auth_user.photo.8eb953fd3c62034e.616c666f6e736f2e6a7067.jpg'
p3615
asbasbasbag68
(g84
g70
NtRp3616
(dp3617
g73
(dp3618
sg82
g3481
sg75
(lp3619
g68
(g89
g70
NtRp3620
(dp3621
g73
(dp3622
g93
g94
ssg82
g3616
sg75
(lp3623
S'registration_id'
p3624
asbag68
(g89
g70
NtRp3625
(dp3626
g73
(dp3627
g100
g101
ssg82
g3616
sg75
(lp3628
S':'
asbag68
(g89
g70
NtRp3629
(dp3630
g73
(dp3631
sg82
g3616
sg75
(lp3632
g68
(g69
g70
NtRp3633
(dp3634
g73
(dp3635
g81
I3
ssg82
g3629
sg75
(lp3636
S'test'
p3637
asbasbasbag68
(g84
g70
NtRp3638
(dp3639
g73
(dp3640
sg82
g3481
sg75
(lp3641
g68
(g89
g70
NtRp3642
(dp3643
g73
(dp3644
g93
g94
ssg82
g3638
sg75
(lp3645
S'registration_key'
p3646
asbag68
(g89
g70
NtRp3647
(dp3648
g73
(dp3649
g100
g101
ssg82
g3638
sg75
(lp3650
S':'
asbag68
(g89
g70
NtRp3651
(dp3652
g73
(dp3653
sg82
g3638
sg75
(lp3654
g68
(g69
g70
NtRp3655
(dp3656
g73
(dp3657
g81
I3
ssg82
g3651
sg75
(lp3658
S''
asbasbasbag68
(g84
g70
NtRp3659
(dp3660
g73
(dp3661
sg82
g3481
sg75
(lp3662
g68
(g89
g70
NtRp3663
(dp3664
g73
(dp3665
g93
g94
ssg82
g3659
sg75
(lp3666
S'reset_password_key'
p3667
asbag68
(g89
g70
NtRp3668
(dp3669
g73
(dp3670
g100
g101
ssg82
g3659
sg75
(lp3671
S':'
asbag68
(g89
g70
NtRp3672
(dp3673
g73
(dp3674
sg82
g3659
sg75
(lp3675
g68
(g69
g70
NtRp3676
(dp3677
g73
(dp3678
g81
I3
ssg82
g3672
sg75
(lp3679
S''
asbasbasbag68
(g84
g70
NtRp3680
(dp3681
g73
(dp3682
sg82
g3481
sg75
(lp3683
g68
(g89
g70
NtRp3684
(dp3685
g73
(dp3686
g93
g94
ssg82
g3680
sg75
(lp3687
S'updated_on'
p3688
asbag68
(g89
g70
NtRp3689
(dp3690
g73
(dp3691
g100
g101
ssg82
g3680
sg75
(lp3692
S':'
asbag68
(g89
g70
NtRp3693
(dp3694
g73
(dp3695
sg82
g3680
sg75
(lp3696
g68
(g69
g70
NtRp3697
(dp3698
g73
(dp3699
g81
I3
ssg82
g3693
sg75
(lp3700
S'datetime.datetime(2012, 8, 28, 12, 53, 14)'
p3701
asbasbasbasbasbasbasbag68
(g84
g70
NtRp3702
(dp3703
g73
(dp3704
sg82
g3369
sg75
(lp3705
g68
(g89
g70
NtRp3706
(dp3707
g73
(dp3708
g93
g94
ssg82
g3702
sg75
(lp3709
S'user_groups'
p3710
asbag68
(g89
g70
NtRp3711
(dp3712
g73
(dp3713
g100
g101
ssg82
g3702
sg75
(lp3714
S':'
asbag68
(g89
g70
NtRp3715
(dp3716
g73
(dp3717
sg82
g3702
sg75
(lp3718
g68
(g69
g70
NtRp3719
(dp3720
g73
(dp3721
g81
I4
ssg82
g3715
sg75
(lp3722
g68
(g77
g70
NtRp3723
(dp3724
g73
(dp3725
g81
I3
ssg82
Nsg75
(lp3726
sbasbasbasbasbasbasbasbag68
(g84
g70
NtRp3727
(dp3728
g73
(dp3729
sg82
g3344
sg75
(lp3730
g68
(g89
g70
NtRp3731
(dp3732
g73
(dp3733
g93
g94
ssg82
g3727
sg75
(lp3734
S'telefam_description'
p3735
asbag68
(g89
g70
NtRp3736
(dp3737
g73
(dp3738
g100
g101
ssg82
g3727
sg75
(lp3739
S':'
asbag68
(g89
g70
NtRp3740
(dp3741
g73
(dp3742
sg82
g3727
sg75
(lp3743
g68
(g69
g70
NtRp3744
(dp3745
g73
(dp3746
g81
I5
ssg82
g3740
sg75
(lp3747
S'Telefam de Pepi'
p3748
asbasbasbag68
(g84
g70
NtRp3749
(dp3750
g73
(dp3751
sg82
g3344
sg75
(lp3752
g68
(g89
g70
NtRp3753
(dp3754
g73
(dp3755
g93
g94
ssg82
g3749
sg75
(lp3756
S'telefam_id'
p3757
asbag68
(g89
g70
NtRp3758
(dp3759
g73
(dp3760
g100
g101
ssg82
g3749
sg75
(lp3761
S':'
asbag68
(g89
g70
NtRp3762
(dp3763
g73
(dp3764
sg82
g3749
sg75
(lp3765
g68
(g69
g70
NtRp3766
(dp3767
g73
(dp3768
g81
I5
ssg82
g3762
sg75
(lp3769
S'1'
asbasbasbasbasbsS'etype'
p3770
S"<type 'exceptions.IndentationError'>"
p3771
sS'date'
p3772
S'Thu Aug 30 14:28:39 2012'
p3773
sS'response'
p3774
g68
(g69
g70
NtRp3775
(dp3776
g73
(dp3777
sg75
(lp3778
g68
(g77
g70
NtRp3779
(dp3780
g73
(dp3781
g81
I5
ssg82
Nsg75
(lp3782
g68
(g84
g70
NtRp3783
(dp3784
g73
(dp3785
sg82
g3779
sg75
(lp3786
g68
(g89
g70
NtRp3787
(dp3788
g73
(dp3789
g93
g94
ssg82
g3783
sg75
(lp3790
g179
asbag68
(g89
g70
NtRp3791
(dp3792
g73
(dp3793
g100
g101
ssg82
g3783
sg75
(lp3794
S':'
asbag68
(g89
g70
NtRp3795
(dp3796
g73
(dp3797
sg82
g3783
sg75
(lp3798
g68
(g69
g70
NtRp3799
(dp3800
g73
(dp3801
g81
I5
ssg82
g3795
sg75
(lp3802
S'<cStringIO.StringO object at 0xb0c6ae0>'
p3803
asbasbasbag68
(g84
g70
NtRp3804
(dp3805
g73
(dp3806
sg82
g3779
sg75
(lp3807
g68
(g89
g70
NtRp3808
(dp3809
g73
(dp3810
g93
g94
ssg82
g3804
sg75
(lp3811
g245
asbag68
(g89
g70
NtRp3812
(dp3813
g73
(dp3814
g100
g101
ssg82
g3804
sg75
(lp3815
S':'
asbag68
(g89
g70
NtRp3816
(dp3817
g73
(dp3818
sg82
g3804
sg75
(lp3819
g68
(g69
g70
NtRp3820
(dp3821
g73
(dp3822
g81
I5
ssg82
g3816
sg75
(lp3823
g68
(g77
g70
NtRp3824
(dp3825
g73
(dp3826
g81
I4
ssg82
Nsg75
(lp3827
g68
(g84
g70
NtRp3828
(dp3829
g73
(dp3830
sg82
g3824
sg75
(lp3831
g68
(g89
g70
NtRp3832
(dp3833
g73
(dp3834
g93
g94
ssg82
g3828
sg75
(lp3835
S'session_id_telefam'
p3836
asbag68
(g89
g70
NtRp3837
(dp3838
g73
(dp3839
g100
g101
ssg82
g3828
sg75
(lp3840
S':'
asbag68
(g89
g70
NtRp3841
(dp3842
g73
(dp3843
sg82
g3828
sg75
(lp3844
g68
(g69
g70
NtRp3845
(dp3846
g73
(dp3847
g81
I4
ssg82
g3841
sg75
(lp3848
g68
(g77
g70
NtRp3849
(dp3850
g73
(dp3851
g81
I3
ssg82
Nsg75
(lp3852
g68
(g84
g70
NtRp3853
(dp3854
g73
(dp3855
sg82
g3849
sg75
(lp3856
g68
(g89
g70
NtRp3857
(dp3858
g73
(dp3859
g93
g94
ssg82
g3853
sg75
(lp3860
g295
asbag68
(g89
g70
NtRp3861
(dp3862
g73
(dp3863
g100
g101
ssg82
g3853
sg75
(lp3864
S':'
asbag68
(g89
g70
NtRp3865
(dp3866
g73
(dp3867
sg82
g3853
sg75
(lp3868
g68
(g69
g70
NtRp3869
(dp3870
g73
(dp3871
g81
I3
ssg82
g3865
sg75
(lp3872
S''
asbasbasbag68
(g84
g70
NtRp3873
(dp3874
g73
(dp3875
sg82
g3849
sg75
(lp3876
g68
(g89
g70
NtRp3877
(dp3878
g73
(dp3879
g93
g94
ssg82
g3873
sg75
(lp3880
g316
asbag68
(g89
g70
NtRp3881
(dp3882
g73
(dp3883
g100
g101
ssg82
g3873
sg75
(lp3884
S':'
asbag68
(g89
g70
NtRp3885
(dp3886
g73
(dp3887
sg82
g3873
sg75
(lp3888
g68
(g69
g70
NtRp3889
(dp3890
g73
(dp3891
g81
I3
ssg82
g3885
sg75
(lp3892
S''
asbasbasbag68
(g84
g70
NtRp3893
(dp3894
g73
(dp3895
sg82
g3849
sg75
(lp3896
g68
(g89
g70
NtRp3897
(dp3898
g73
(dp3899
g93
g94
ssg82
g3893
sg75
(lp3900
g337
asbag68
(g89
g70
NtRp3901
(dp3902
g73
(dp3903
g100
g101
ssg82
g3893
sg75
(lp3904
S':'
asbag68
(g89
g70
NtRp3905
(dp3906
g73
(dp3907
sg82
g3893
sg75
(lp3908
g68
(g69
g70
NtRp3909
(dp3910
g73
(dp3911
g81
I3
ssg82
g3905
sg75
(lp3912
S''
asbasbasbag68
(g84
g70
NtRp3913
(dp3914
g73
(dp3915
sg82
g3849
sg75
(lp3916
g68
(g89
g70
NtRp3917
(dp3918
g73
(dp3919
g93
g94
ssg82
g3913
sg75
(lp3920
g358
asbag68
(g89
g70
NtRp3921
(dp3922
g73
(dp3923
g100
g101
ssg82
g3913
sg75
(lp3924
S':'
asbag68
(g89
g70
NtRp3925
(dp3926
g73
(dp3927
sg82
g3913
sg75
(lp3928
g68
(g69
g70
NtRp3929
(dp3930
g73
(dp3931
g81
I3
ssg82
g3925
sg75
(lp3932
S''
asbasbasbag68
(g84
g70
NtRp3933
(dp3934
g73
(dp3935
sg82
g3849
sg75
(lp3936
g68
(g89
g70
NtRp3937
(dp3938
g73
(dp3939
g93
g94
ssg82
g3933
sg75
(lp3940
g379
asbag68
(g89
g70
NtRp3941
(dp3942
g73
(dp3943
g100
g101
ssg82
g3933
sg75
(lp3944
S':'
asbag68
(g89
g70
NtRp3945
(dp3946
g73
(dp3947
sg82
g3933
sg75
(lp3948
g68
(g69
g70
NtRp3949
(dp3950
g73
(dp3951
g81
I3
ssg82
g3945
sg75
(lp3952
S''
asbasbasbag68
(g84
g70
NtRp3953
(dp3954
g73
(dp3955
sg82
g3849
sg75
(lp3956
g68
(g89
g70
NtRp3957
(dp3958
g73
(dp3959
g93
g94
ssg82
g3953
sg75
(lp3960
g400
asbag68
(g89
g70
NtRp3961
(dp3962
g73
(dp3963
g100
g101
ssg82
g3953
sg75
(lp3964
S':'
asbag68
(g89
g70
NtRp3965
(dp3966
g73
(dp3967
sg82
g3953
sg75
(lp3968
g68
(g69
g70
NtRp3969
(dp3970
g73
(dp3971
g81
I3
ssg82
g3965
sg75
(lp3972
S'/'
asbasbasbag68
(g84
g70
NtRp3973
(dp3974
g73
(dp3975
sg82
g3849
sg75
(lp3976
g68
(g89
g70
NtRp3977
(dp3978
g73
(dp3979
g93
g94
ssg82
g3973
sg75
(lp3980
g421
asbag68
(g89
g70
NtRp3981
(dp3982
g73
(dp3983
g100
g101
ssg82
g3973
sg75
(lp3984
S':'
asbag68
(g89
g70
NtRp3985
(dp3986
g73
(dp3987
sg82
g3973
sg75
(lp3988
g68
(g69
g70
NtRp3989
(dp3990
g73
(dp3991
g81
I3
ssg82
g3985
sg75
(lp3992
S''
asbasbasbag68
(g84
g70
NtRp3993
(dp3994
g73
(dp3995
sg82
g3849
sg75
(lp3996
g68
(g89
g70
NtRp3997
(dp3998
g73
(dp3999
g93
g94
ssg82
g3993
sg75
(lp4000
g442
asbag68
(g89
g70
NtRp4001
(dp4002
g73
(dp4003
g100
g101
ssg82
g3993
sg75
(lp4004
S':'
asbag68
(g89
g70
NtRp4005
(dp4006
g73
(dp4007
sg82
g3993
sg75
(lp4008
g68
(g69
g70
NtRp4009
(dp4010
g73
(dp4011
g81
I3
ssg82
g4005
sg75
(lp4012
S''
asbasbasbasbasbasbasbasbasbasbasbag68
(g84
g70
NtRp4013
(dp4014
g73
(dp4015
sg82
g3779
sg75
(lp4016
g68
(g89
g70
NtRp4017
(dp4018
g73
(dp4019
g93
g94
ssg82
g4013
sg75
(lp4020
S'delimiters'
p4021
asbag68
(g89
g70
NtRp4022
(dp4023
g73
(dp4024
g100
g101
ssg82
g4013
sg75
(lp4025
S':'
asbag68
(g89
g70
NtRp4026
(dp4027
g73
(dp4028
sg82
g4013
sg75
(lp4029
g68
(g69
g70
NtRp4030
(dp4031
g73
(dp4032
g81
I5
ssg82
g4026
sg75
(lp4033
g68
(g77
g70
NtRp4034
(dp4035
g73
(dp4036
g81
I4
ssg82
Nsg75
(lp4037
g68
(g84
g70
NtRp4038
(dp4039
g73
(dp4040
sg82
g4034
sg75
(lp4041
g68
(g89
g70
NtRp4042
(dp4043
g73
(dp4044
sg82
g4038
sg75
(lp4045
g68
(g69
g70
NtRp4046
(dp4047
g73
(dp4048
g81
I4
ssg82
g4042
sg75
(lp4049
S'{{'
p4050
asbasbasbag68
(g84
g70
NtRp4051
(dp4052
g73
(dp4053
sg82
g4034
sg75
(lp4054
g68
(g89
g70
NtRp4055
(dp4056
g73
(dp4057
sg82
g4051
sg75
(lp4058
g68
(g69
g70
NtRp4059
(dp4060
g73
(dp4061
g81
I4
ssg82
g4055
sg75
(lp4062
S'}}'
p4063
asbasbasbasbasbasbasbag68
(g84
g70
NtRp4064
(dp4065
g73
(dp4066
sg82
g3779
sg75
(lp4067
g68
(g89
g70
NtRp4068
(dp4069
g73
(dp4070
g93
g94
ssg82
g4064
sg75
(lp4071
S'files'
p4072
asbag68
(g89
g70
NtRp4073
(dp4074
g73
(dp4075
g100
g101
ssg82
g4064
sg75
(lp4076
S':'
asbag68
(g89
g70
NtRp4077
(dp4078
g73
(dp4079
sg82
g4064
sg75
(lp4080
g68
(g69
g70
NtRp4081
(dp4082
g73
(dp4083
g81
I5
ssg82
g4077
sg75
(lp4084
g68
(g77
g70
NtRp4085
(dp4086
g73
(dp4087
g81
I4
ssg82
Nsg75
(lp4088
sbasbasbasbag68
(g84
g70
NtRp4089
(dp4090
g73
(dp4091
sg82
g3779
sg75
(lp4092
g68
(g89
g70
NtRp4093
(dp4094
g73
(dp4095
g93
g94
ssg82
g4089
sg75
(lp4096
S'flash'
p4097
asbag68
(g89
g70
NtRp4098
(dp4099
g73
(dp4100
g100
g101
ssg82
g4089
sg75
(lp4101
S':'
asbag68
(g89
g70
NtRp4102
(dp4103
g73
(dp4104
sg82
g4089
sg75
(lp4105
g68
(g69
g70
NtRp4106
(dp4107
g73
(dp4108
g81
I5
ssg82
g4102
sg75
(lp4109
S''
asbasbasbag68
(g84
g70
NtRp4110
(dp4111
g73
(dp4112
sg82
g3779
sg75
(lp4113
g68
(g89
g70
NtRp4114
(dp4115
g73
(dp4116
g93
g94
ssg82
g4110
sg75
(lp4117
S'generic_patterns'
p4118
asbag68
(g89
g70
NtRp4119
(dp4120
g73
(dp4121
g100
g101
ssg82
g4110
sg75
(lp4122
S':'
asbag68
(g89
g70
NtRp4123
(dp4124
g73
(dp4125
sg82
g4110
sg75
(lp4126
g68
(g69
g70
NtRp4127
(dp4128
g73
(dp4129
g81
I5
ssg82
g4123
sg75
(lp4130
g68
(g77
g70
NtRp4131
(dp4132
g73
(dp4133
g81
I4
ssg82
Nsg75
(lp4134
sbasbasbasbag68
(g84
g70
NtRp4135
(dp4136
g73
(dp4137
sg82
g3779
sg75
(lp4138
g68
(g89
g70
NtRp4139
(dp4140
g73
(dp4141
g93
g94
ssg82
g4135
sg75
(lp4142
S'headers'
p4143
asbag68
(g89
g70
NtRp4144
(dp4145
g73
(dp4146
g100
g101
ssg82
g4135
sg75
(lp4147
S':'
asbag68
(g89
g70
NtRp4148
(dp4149
g73
(dp4150
sg82
g4135
sg75
(lp4151
g68
(g69
g70
NtRp4152
(dp4153
g73
(dp4154
g81
I5
ssg82
g4148
sg75
(lp4155
g68
(g77
g70
NtRp4156
(dp4157
g73
(dp4158
g81
I4
ssg82
Nsg75
(lp4159
g68
(g84
g70
NtRp4160
(dp4161
g73
(dp4162
sg82
g4156
sg75
(lp4163
g68
(g89
g70
NtRp4164
(dp4165
g73
(dp4166
g93
g94
ssg82
g4160
sg75
(lp4167
S'Cache-Control'
p4168
asbag68
(g89
g70
NtRp4169
(dp4170
g73
(dp4171
g100
g101
ssg82
g4160
sg75
(lp4172
S':'
asbag68
(g89
g70
NtRp4173
(dp4174
g73
(dp4175
sg82
g4160
sg75
(lp4176
g68
(g69
g70
NtRp4177
(dp4178
g73
(dp4179
g81
I4
ssg82
g4173
sg75
(lp4180
S'no-store, no-cache, must-revalidate, post-check=0, pre-check=0'
p4181
asbasbasbag68
(g84
g70
NtRp4182
(dp4183
g73
(dp4184
sg82
g4156
sg75
(lp4185
g68
(g89
g70
NtRp4186
(dp4187
g73
(dp4188
g93
g94
ssg82
g4182
sg75
(lp4189
S'Content-Type'
p4190
asbag68
(g89
g70
NtRp4191
(dp4192
g73
(dp4193
g100
g101
ssg82
g4182
sg75
(lp4194
S':'
asbag68
(g89
g70
NtRp4195
(dp4196
g73
(dp4197
sg82
g4182
sg75
(lp4198
g68
(g69
g70
NtRp4199
(dp4200
g73
(dp4201
g81
I4
ssg82
g4195
sg75
(lp4202
S'text/html; charset=utf-8'
p4203
asbasbasbag68
(g84
g70
NtRp4204
(dp4205
g73
(dp4206
sg82
g4156
sg75
(lp4207
g68
(g89
g70
NtRp4208
(dp4209
g73
(dp4210
g93
g94
ssg82
g4204
sg75
(lp4211
S'Expires'
p4212
asbag68
(g89
g70
NtRp4213
(dp4214
g73
(dp4215
g100
g101
ssg82
g4204
sg75
(lp4216
S':'
asbag68
(g89
g70
NtRp4217
(dp4218
g73
(dp4219
sg82
g4204
sg75
(lp4220
g68
(g69
g70
NtRp4221
(dp4222
g73
(dp4223
g81
I4
ssg82
g4217
sg75
(lp4224
S'Thu, 30 Aug 2012 12:28:39 GMT'
p4225
asbasbasbag68
(g84
g70
NtRp4226
(dp4227
g73
(dp4228
sg82
g4156
sg75
(lp4229
g68
(g89
g70
NtRp4230
(dp4231
g73
(dp4232
g93
g94
ssg82
g4226
sg75
(lp4233
S'Pragma'
p4234
asbag68
(g89
g70
NtRp4235
(dp4236
g73
(dp4237
g100
g101
ssg82
g4226
sg75
(lp4238
S':'
asbag68
(g89
g70
NtRp4239
(dp4240
g73
(dp4241
sg82
g4226
sg75
(lp4242
g68
(g69
g70
NtRp4243
(dp4244
g73
(dp4245
g81
I4
ssg82
g4239
sg75
(lp4246
S'no-cache'
p4247
asbasbasbag68
(g84
g70
NtRp4248
(dp4249
g73
(dp4250
sg82
g4156
sg75
(lp4251
g68
(g89
g70
NtRp4252
(dp4253
g73
(dp4254
g93
g94
ssg82
g4248
sg75
(lp4255
S'X-Powered-By'
p4256
asbag68
(g89
g70
NtRp4257
(dp4258
g73
(dp4259
g100
g101
ssg82
g4248
sg75
(lp4260
S':'
asbag68
(g89
g70
NtRp4261
(dp4262
g73
(dp4263
sg82
g4248
sg75
(lp4264
g68
(g69
g70
NtRp4265
(dp4266
g73
(dp4267
g81
I4
ssg82
g4261
sg75
(lp4268
S'web2py'
p4269
asbasbasbasbasbasbasbag68
(g84
g70
NtRp4270
(dp4271
g73
(dp4272
sg82
g3779
sg75
(lp4273
g68
(g89
g70
NtRp4274
(dp4275
g73
(dp4276
g93
g94
ssg82
g4270
sg75
(lp4277
S'menu'
p4278
asbag68
(g89
g70
NtRp4279
(dp4280
g73
(dp4281
g100
g101
ssg82
g4270
sg75
(lp4282
S':'
asbag68
(g89
g70
NtRp4283
(dp4284
g73
(dp4285
sg82
g4270
sg75
(lp4286
g68
(g69
g70
NtRp4287
(dp4288
g73
(dp4289
g81
I5
ssg82
g4283
sg75
(lp4290
g68
(g77
g70
NtRp4291
(dp4292
g73
(dp4293
g81
I4
ssg82
Nsg75
(lp4294
sbasbasbasbag68
(g84
g70
NtRp4295
(dp4296
g73
(dp4297
sg82
g3779
sg75
(lp4298
g68
(g89
g70
NtRp4299
(dp4300
g73
(dp4301
g93
g94
ssg82
g4295
sg75
(lp4302
S'meta'
p4303
asbag68
(g89
g70
NtRp4304
(dp4305
g73
(dp4306
g100
g101
ssg82
g4295
sg75
(lp4307
S':'
asbag68
(g89
g70
NtRp4308
(dp4309
g73
(dp4310
sg82
g4295
sg75
(lp4311
g68
(g69
g70
NtRp4312
(dp4313
g73
(dp4314
g81
I5
ssg82
g4308
sg75
(lp4315
g68
(g77
g70
NtRp4316
(dp4317
g73
(dp4318
g81
I4
ssg82
Nsg75
(lp4319
sbasbasbasbag68
(g84
g70
NtRp4320
(dp4321
g73
(dp4322
sg82
g3779
sg75
(lp4323
g68
(g89
g70
NtRp4324
(dp4325
g73
(dp4326
g93
g94
ssg82
g4320
sg75
(lp4327
S'postprocessing'
p4328
asbag68
(g89
g70
NtRp4329
(dp4330
g73
(dp4331
g100
g101
ssg82
g4320
sg75
(lp4332
S':'
asbag68
(g89
g70
NtRp4333
(dp4334
g73
(dp4335
sg82
g4320
sg75
(lp4336
g68
(g69
g70
NtRp4337
(dp4338
g73
(dp4339
g81
I5
ssg82
g4333
sg75
(lp4340
g68
(g77
g70
NtRp4341
(dp4342
g73
(dp4343
g81
I4
ssg82
Nsg75
(lp4344
sbasbasbasbag68
(g84
g70
NtRp4345
(dp4346
g73
(dp4347
sg82
g3779
sg75
(lp4348
g68
(g89
g70
NtRp4349
(dp4350
g73
(dp4351
g93
g94
ssg82
g4345
sg75
(lp4352
S'session_file'
p4353
asbag68
(g89
g70
NtRp4354
(dp4355
g73
(dp4356
g100
g101
ssg82
g4345
sg75
(lp4357
S':'
asbag68
(g89
g70
NtRp4358
(dp4359
g73
(dp4360
sg82
g4345
sg75
(lp4361
g68
(g69
g70
NtRp4362
(dp4363
g73
(dp4364
g81
I5
ssg82
g4358
sg75
(lp4365
S"<open file '/home/alfem/alfem/prog/telefam/server/web2py/applications/telefam/sessions/127.0.0.1-f7f620a6-fd63-4f72-b11a-b8325669ccbf', mode 'rb+' at 0xa582288>"
p4366
asbasbasbag68
(g84
g70
NtRp4367
(dp4368
g73
(dp4369
sg82
g3779
sg75
(lp4370
g68
(g89
g70
NtRp4371
(dp4372
g73
(dp4373
g93
g94
ssg82
g4367
sg75
(lp4374
S'session_filename'
p4375
asbag68
(g89
g70
NtRp4376
(dp4377
g73
(dp4378
g100
g101
ssg82
g4367
sg75
(lp4379
S':'
asbag68
(g89
g70
NtRp4380
(dp4381
g73
(dp4382
sg82
g4367
sg75
(lp4383
g68
(g69
g70
NtRp4384
(dp4385
g73
(dp4386
g81
I5
ssg82
g4380
sg75
(lp4387
S'/home/alfem/alfem/prog/telefam/server/web2py/applications/telefam/sessions/127.0.0.1-f7f620a6-fd63-4f72-b11a-b8325669ccbf'
p4388
asbasbasbag68
(g84
g70
NtRp4389
(dp4390
g73
(dp4391
sg82
g3779
sg75
(lp4392
g68
(g89
g70
NtRp4393
(dp4394
g73
(dp4395
g93
g94
ssg82
g4389
sg75
(lp4396
S'session_id'
p4397
asbag68
(g89
g70
NtRp4398
(dp4399
g73
(dp4400
g100
g101
ssg82
g4389
sg75
(lp4401
S':'
asbag68
(g89
g70
NtRp4402
(dp4403
g73
(dp4404
sg82
g4389
sg75
(lp4405
g68
(g69
g70
NtRp4406
(dp4407
g73
(dp4408
g81
I5
ssg82
g4402
sg75
(lp4409
S'127.0.0.1-f7f620a6-fd63-4f72-b11a-b8325669ccbf'
p4410
asbasbasbag68
(g84
g70
NtRp4411
(dp4412
g73
(dp4413
sg82
g3779
sg75
(lp4414
g68
(g89
g70
NtRp4415
(dp4416
g73
(dp4417
g93
g94
ssg82
g4411
sg75
(lp4418
S'session_id_name'
p4419
asbag68
(g89
g70
NtRp4420
(dp4421
g73
(dp4422
g100
g101
ssg82
g4411
sg75
(lp4423
S':'
asbag68
(g89
g70
NtRp4424
(dp4425
g73
(dp4426
sg82
g4411
sg75
(lp4427
g68
(g69
g70
NtRp4428
(dp4429
g73
(dp4430
g81
I5
ssg82
g4424
sg75
(lp4431
g3836
asbasbasbag68
(g84
g70
NtRp4432
(dp4433
g73
(dp4434
sg82
g3779
sg75
(lp4435
g68
(g89
g70
NtRp4436
(dp4437
g73
(dp4438
g93
g94
ssg82
g4432
sg75
(lp4439
S'session_locked'
p4440
asbag68
(g89
g70
NtRp4441
(dp4442
g73
(dp4443
g100
g101
ssg82
g4432
sg75
(lp4444
S':'
asbag68
(g89
g70
NtRp4445
(dp4446
g73
(dp4447
sg82
g4432
sg75
(lp4448
g68
(g69
g70
NtRp4449
(dp4450
g73
(dp4451
g81
I5
ssg82
g4445
sg75
(lp4452
g1625
asbasbasbag68
(g84
g70
NtRp4453
(dp4454
g73
(dp4455
sg82
g3779
sg75
(lp4456
g68
(g89
g70
NtRp4457
(dp4458
g73
(dp4459
g93
g94
ssg82
g4453
sg75
(lp4460
S'session_new'
p4461
asbag68
(g89
g70
NtRp4462
(dp4463
g73
(dp4464
g100
g101
ssg82
g4453
sg75
(lp4465
S':'
asbag68
(g89
g70
NtRp4466
(dp4467
g73
(dp4468
sg82
g4453
sg75
(lp4469
g68
(g69
g70
NtRp4470
(dp4471
g73
(dp4472
g81
I5
ssg82
g4466
sg75
(lp4473
g111
asbasbasbag68
(g84
g70
NtRp4474
(dp4475
g73
(dp4476
sg82
g3779
sg75
(lp4477
g68
(g89
g70
NtRp4478
(dp4479
g73
(dp4480
g93
g94
ssg82
g4474
sg75
(lp4481
S'status'
p4482
asbag68
(g89
g70
NtRp4483
(dp4484
g73
(dp4485
g100
g101
ssg82
g4474
sg75
(lp4486
S':'
asbag68
(g89
g70
NtRp4487
(dp4488
g73
(dp4489
sg82
g4474
sg75
(lp4490
g68
(g69
g70
NtRp4491
(dp4492
g73
(dp4493
g81
I5
ssg82
g4487
sg75
(lp4494
S'200'
p4495
asbasbasbag68
(g84
g70
NtRp4496
(dp4497
g73
(dp4498
sg82
g3779
sg75
(lp4499
g68
(g89
g70
NtRp4500
(dp4501
g73
(dp4502
g93
g94
ssg82
g4496
sg75
(lp4503
g2418
asbag68
(g89
g70
NtRp4504
(dp4505
g73
(dp4506
g100
g101
ssg82
g4496
sg75
(lp4507
S':'
asbag68
(g89
g70
NtRp4508
(dp4509
g73
(dp4510
sg82
g4496
sg75
(lp4511
g68
(g69
g70
NtRp4512
(dp4513
g73
(dp4514
g81
I5
ssg82
g4508
sg75
(lp4515
g2431
asbasbasbag68
(g84
g70
NtRp4516
(dp4517
g73
(dp4518
sg82
g3779
sg75
(lp4519
g68
(g89
g70
NtRp4520
(dp4521
g73
(dp4522
g93
g94
ssg82
g4516
sg75
(lp4523
S'view'
p4524
asbag68
(g89
g70
NtRp4525
(dp4526
g73
(dp4527
g100
g101
ssg82
g4516
sg75
(lp4528
S':'
asbag68
(g89
g70
NtRp4529
(dp4530
g73
(dp4531
sg82
g4516
sg75
(lp4532
g68
(g69
g70
NtRp4533
(dp4534
g73
(dp4535
g81
I5
ssg82
g4529
sg75
(lp4536
S'default/user.html'
p4537
asbasbasbasbasbsS'locals'
p4538
(dp4539
g4
S"'/home/alfem/alfem/prog/telefam/server/web2py/applications/telefam/models/db.py'"
p4540
sg6
S"'# -*- coding: utf-8 -*-\\n\\n#######################...able = db.galleries.updated_on.writable = False\\n\\n'"
p4541
sssS'traceback'
p4542
S'Traceback (most recent call last):\n  File "/home/alfem/alfem/prog/telefam/server/web2py/gluon/restricted.py", line 204, in restricted\n    ccode = compile2(code,layer)\n  File "/home/alfem/alfem/prog/telefam/server/web2py/gluon/restricted.py", line 189, in compile2\n    return compile(code.rstrip().replace(\'\\r\\n\',\'\\n\')+\'\\n\', layer, \'exec\')\n  File "/home/alfem/alfem/prog/telefam/server/web2py/applications/telefam/models/db.py", line 54\n    user.update_on=request.now\n       ^\nIndentationError: expected an indented block\n'
p4543
s.