(dp1
S'output'
p2
S"<type 'exceptions.SyntaxError'> invalid syntax (api.py, line 63)"
p3
sS'layer'
p4
S'/home/alfem/alfem/prog/telefam/server/web2py/applications/telefam/controllers/api.py'
p5
sS'code'
p6
S'# coding: utf8\n\nimport datetime\n\ndef call():\n    """\n    Returns status of changes to a Telefam device\n    """\n    session.forget()\n    return service()\n\ndef get_telefam_by_key(key):\n    telefams=db(db.telefams.key==key).select()\n    if len(telefams) != 1:\n      return False\n    else:\n      return telefams[0]\n\n@service.json\ndef update_last_connection(key):\n    now=datetime.datetime.now()\n    db(db.telefams.key==key).update(last_connection=now)\n    return now\n\n@service.json\ndef get_status(key):\n# if provided key is invalid then return nothing (note: choose a long key to avoid brute force attacks)\n    telefam=get_telefam_by_key(key)\n    if not telefam:\n        return \n\n    status={}\n\n    status[\'messages\']=db((db.messages.telefam_id==telefam.id) & (db.messages.updated_on > telefam.last_connection)).count()\n\n    status[\'galleries\']=db((db.galleries.telefam_id==telefam.id) & (db.galleries.updated_on > telefam.last_connection)).count()\n\n    return status\n\n# Returns a list of available messages since last conection\n@service.json\ndef get_message_list(key):\n    telefam=get_telefam_by_key(key)\n    if not telefam:\n        return \n\n    messages_since_last_connection=db((db.messages.telefam_id==telefam.id) & (db.messages.updated_on >= telefam.last_connection)).select(db.messages.id, orderby=db.messages.updated_on)\n\n    return messages_since_last_connection\n\n# Returns a message\n@service.json\ndef get_message(key, id):\n    telefam=get_telefam_by_key(key)\n    if not telefam:\n        return \n\n    record=db(db.messages.id==id).select(db.messages.id).first()\n#    message=db.messages(id).select(db.messages.id,db.messages.text)\n\n    message_dict={}\n    for key,value in record.iteritems():\n        if key not in ("update_record", "delete_record")\n        message_dict[key]=value\n\n    return message_dict\n\n\nresponse._vars=response._caller(call)\n'
p7
sS'snapshot'
p8
(dp9
S'exception'
p10
(dp11
S'__getslice__'
p12
S"<method-wrapper '__getslice__' of exceptions.SyntaxError object>"
p13
sS'text'
p14
S'\'        if key not in ("update_record", "delete_record")\\n\''
p15
sS'__str__'
p16
S"<method-wrapper '__str__' of exceptions.SyntaxError object>"
p17
sS'__reduce__'
p18
S'<built-in method __reduce__ of exceptions.SyntaxError object>'
p19
sS'__dict__'
p20
S'{}'
p21
sS'__sizeof__'
p22
S'<built-in method __sizeof__ of exceptions.SyntaxError object>'
p23
sS'__init__'
p24
S"<method-wrapper '__init__' of exceptions.SyntaxError object>"
p25
sS'__setattr__'
p26
S"<method-wrapper '__setattr__' of exceptions.SyntaxError object>"
p27
sS'__reduce_ex__'
p28
S'<built-in method __reduce_ex__ of exceptions.SyntaxError object>'
p29
sS'__new__'
p30
S'<built-in method __new__ of type object>'
p31
sS'__format__'
p32
S'<built-in method __format__ of exceptions.SyntaxError object>'
p33
sS'__class__'
p34
S"<type 'exceptions.SyntaxError'>"
p35
sS'filename'
p36
S"'/home/alfem/alfem/prog/telefam/server/web2py/applications/telefam/controllers/api.py'"
p37
sS'lineno'
p38
S'63'
p39
sS'msg'
p40
S"'invalid syntax'"
p41
sS'__doc__'
p42
S"'Invalid syntax.'"
p43
sS'__getitem__'
p44
S"<method-wrapper '__getitem__' of exceptions.SyntaxError object>"
p45
sS'__setstate__'
p46
S'<built-in method __setstate__ of exceptions.SyntaxError object>'
p47
sS'__getattribute__'
p48
S"<method-wrapper '__getattribute__' of exceptions.SyntaxError object>"
p49
sS'print_file_and_line'
p50
S'None'
p51
sS'args'
p52
S'(\'invalid syntax\', (\'/home/alfem/alfem/prog/telefam/server/web2py/applications/telefam/controllers/api.py\', 63, 57, \'        if key not in ("update_record", "delete_record")\\n\'))'
p53
sS'__subclasshook__'
p54
S'<built-in method __subclasshook__ of type object>'
p55
sS'offset'
p56
S'57'
p57
sS'__unicode__'
p58
S'<built-in method __unicode__ of exceptions.SyntaxError object>'
p59
sS'__delattr__'
p60
S"<method-wrapper '__delattr__' of exceptions.SyntaxError object>"
p61
sS'__repr__'
p62
S"<method-wrapper '__repr__' of exceptions.SyntaxError object>"
p63
sS'__hash__'
p64
S"<method-wrapper '__hash__' of exceptions.SyntaxError object>"
p65
ssS'evalue'
p66
S'invalid syntax (api.py, line 63)'
p67
sS'request'
p68
ccopy_reg
_reconstructor
p69
(cgluon.html
BEAUTIFY
p70
c__builtin__
object
p71
NtRp72
(dp73
S'attributes'
p74
(dp75
sS'components'
p76
(lp77
g69
(cgluon.html
TABLE
p78
g71
NtRp79
(dp80
g74
(dp81
S'level'
p82
I5
ssS'parent'
p83
Nsg76
(lp84
g69
(cgluon.html
TR
p85
g71
NtRp86
(dp87
g74
(dp88
sg83
g79
sg76
(lp89
g69
(cgluon.html
TD
p90
g71
NtRp91
(dp92
g74
(dp93
S'_style'
p94
S'font-weight:bold;vertical-align:top'
p95
ssg83
g86
sg76
(lp96
S'ajax'
p97
asbag69
(g90
g71
NtRp98
(dp99
g74
(dp100
S'_valign'
p101
S'top'
p102
ssg83
g86
sg76
(lp103
S':'
asbag69
(g90
g71
NtRp104
(dp105
g74
(dp106
sg83
g86
sg76
(lp107
g69
(g70
g71
NtRp108
(dp109
g74
(dp110
g82
I5
ssg83
g104
sg76
(lp111
S'False'
p112
asbasbasbag69
(g85
g71
NtRp113
(dp114
g74
(dp115
sg83
g79
sg76
(lp116
g69
(g90
g71
NtRp117
(dp118
g74
(dp119
g94
g95
ssg83
g113
sg76
(lp120
S'application'
p121
asbag69
(g90
g71
NtRp122
(dp123
g74
(dp124
g101
g102
ssg83
g113
sg76
(lp125
S':'
asbag69
(g90
g71
NtRp126
(dp127
g74
(dp128
sg83
g113
sg76
(lp129
g69
(g70
g71
NtRp130
(dp131
g74
(dp132
g82
I5
ssg83
g126
sg76
(lp133
S'telefam'
p134
asbasbasbag69
(g85
g71
NtRp135
(dp136
g74
(dp137
sg83
g79
sg76
(lp138
g69
(g90
g71
NtRp139
(dp140
g74
(dp141
g94
g95
ssg83
g135
sg76
(lp142
g52
asbag69
(g90
g71
NtRp143
(dp144
g74
(dp145
g101
g102
ssg83
g135
sg76
(lp146
S':'
asbag69
(g90
g71
NtRp147
(dp148
g74
(dp149
sg83
g135
sg76
(lp150
g69
(g70
g71
NtRp151
(dp152
g74
(dp153
g82
I5
ssg83
g147
sg76
(lp154
g69
(g78
g71
NtRp155
(dp156
g74
(dp157
g82
I4
ssg83
Nsg76
(lp158
g69
(g85
g71
NtRp159
(dp160
g74
(dp161
sg83
g155
sg76
(lp162
g69
(g90
g71
NtRp163
(dp164
g74
(dp165
sg83
g159
sg76
(lp166
g69
(g70
g71
NtRp167
(dp168
g74
(dp169
g82
I4
ssg83
g163
sg76
(lp170
S'json'
p171
asbasbasbag69
(g85
g71
NtRp172
(dp173
g74
(dp174
sg83
g155
sg76
(lp175
g69
(g90
g71
NtRp176
(dp177
g74
(dp178
sg83
g172
sg76
(lp179
g69
(g70
g71
NtRp180
(dp181
g74
(dp182
g82
I4
ssg83
g176
sg76
(lp183
S'get_message'
p184
asbasbasbasbasbasbasbag69
(g85
g71
NtRp185
(dp186
g74
(dp187
sg83
g79
sg76
(lp188
g69
(g90
g71
NtRp189
(dp190
g74
(dp191
g94
g95
ssg83
g185
sg76
(lp192
S'body'
p193
asbag69
(g90
g71
NtRp194
(dp195
g74
(dp196
g101
g102
ssg83
g185
sg76
(lp197
S':'
asbag69
(g90
g71
NtRp198
(dp199
g74
(dp200
sg83
g185
sg76
(lp201
g69
(g70
g71
NtRp202
(dp203
g74
(dp204
g82
I5
ssg83
g198
sg76
(lp205
S'<cStringIO.StringO object at 0x98c0ca0>'
p206
asbasbasbag69
(g85
g71
NtRp207
(dp208
g74
(dp209
sg83
g79
sg76
(lp210
g69
(g90
g71
NtRp211
(dp212
g74
(dp213
g94
g95
ssg83
g207
sg76
(lp214
S'client'
p215
asbag69
(g90
g71
NtRp216
(dp217
g74
(dp218
g101
g102
ssg83
g207
sg76
(lp219
S':'
asbag69
(g90
g71
NtRp220
(dp221
g74
(dp222
sg83
g207
sg76
(lp223
g69
(g70
g71
NtRp224
(dp225
g74
(dp226
g82
I5
ssg83
g220
sg76
(lp227
S'127.0.0.1'
p228
asbasbasbag69
(g85
g71
NtRp229
(dp230
g74
(dp231
sg83
g79
sg76
(lp232
g69
(g90
g71
NtRp233
(dp234
g74
(dp235
g94
g95
ssg83
g229
sg76
(lp236
S'controller'
p237
asbag69
(g90
g71
NtRp238
(dp239
g74
(dp240
g101
g102
ssg83
g229
sg76
(lp241
S':'
asbag69
(g90
g71
NtRp242
(dp243
g74
(dp244
sg83
g229
sg76
(lp245
g69
(g70
g71
NtRp246
(dp247
g74
(dp248
g82
I5
ssg83
g242
sg76
(lp249
S'api'
p250
asbasbasbag69
(g85
g71
NtRp251
(dp252
g74
(dp253
sg83
g79
sg76
(lp254
g69
(g90
g71
NtRp255
(dp256
g74
(dp257
g94
g95
ssg83
g251
sg76
(lp258
S'cookies'
p259
asbag69
(g90
g71
NtRp260
(dp261
g74
(dp262
g101
g102
ssg83
g251
sg76
(lp263
S':'
asbag69
(g90
g71
NtRp264
(dp265
g74
(dp266
sg83
g251
sg76
(lp267
g69
(g70
g71
NtRp268
(dp269
g74
(dp270
g82
I5
ssg83
g264
sg76
(lp271
g69
(g78
g71
NtRp272
(dp273
g74
(dp274
g82
I4
ssg83
Nsg76
(lp275
g69
(g85
g71
NtRp276
(dp277
g74
(dp278
sg83
g272
sg76
(lp279
g69
(g90
g71
NtRp280
(dp281
g74
(dp282
g94
g95
ssg83
g276
sg76
(lp283
S'session_id_admin'
p284
asbag69
(g90
g71
NtRp285
(dp286
g74
(dp287
g101
g102
ssg83
g276
sg76
(lp288
S':'
asbag69
(g90
g71
NtRp289
(dp290
g74
(dp291
sg83
g276
sg76
(lp292
g69
(g70
g71
NtRp293
(dp294
g74
(dp295
g82
I4
ssg83
g289
sg76
(lp296
g69
(g78
g71
NtRp297
(dp298
g74
(dp299
g82
I3
ssg83
Nsg76
(lp300
g69
(g85
g71
NtRp301
(dp302
g74
(dp303
sg83
g297
sg76
(lp304
g69
(g90
g71
NtRp305
(dp306
g74
(dp307
g94
g95
ssg83
g301
sg76
(lp308
S'comment'
p309
asbag69
(g90
g71
NtRp310
(dp311
g74
(dp312
g101
g102
ssg83
g301
sg76
(lp313
S':'
asbag69
(g90
g71
NtRp314
(dp315
g74
(dp316
sg83
g301
sg76
(lp317
g69
(g70
g71
NtRp318
(dp319
g74
(dp320
g82
I3
ssg83
g314
sg76
(lp321
S''
asbasbasbag69
(g85
g71
NtRp322
(dp323
g74
(dp324
sg83
g297
sg76
(lp325
g69
(g90
g71
NtRp326
(dp327
g74
(dp328
g94
g95
ssg83
g322
sg76
(lp329
S'domain'
p330
asbag69
(g90
g71
NtRp331
(dp332
g74
(dp333
g101
g102
ssg83
g322
sg76
(lp334
S':'
asbag69
(g90
g71
NtRp335
(dp336
g74
(dp337
sg83
g322
sg76
(lp338
g69
(g70
g71
NtRp339
(dp340
g74
(dp341
g82
I3
ssg83
g335
sg76
(lp342
S''
asbasbasbag69
(g85
g71
NtRp343
(dp344
g74
(dp345
sg83
g297
sg76
(lp346
g69
(g90
g71
NtRp347
(dp348
g74
(dp349
g94
g95
ssg83
g343
sg76
(lp350
S'expires'
p351
asbag69
(g90
g71
NtRp352
(dp353
g74
(dp354
g101
g102
ssg83
g343
sg76
(lp355
S':'
asbag69
(g90
g71
NtRp356
(dp357
g74
(dp358
sg83
g343
sg76
(lp359
g69
(g70
g71
NtRp360
(dp361
g74
(dp362
g82
I3
ssg83
g356
sg76
(lp363
S''
asbasbasbag69
(g85
g71
NtRp364
(dp365
g74
(dp366
sg83
g297
sg76
(lp367
g69
(g90
g71
NtRp368
(dp369
g74
(dp370
g94
g95
ssg83
g364
sg76
(lp371
S'httponly'
p372
asbag69
(g90
g71
NtRp373
(dp374
g74
(dp375
g101
g102
ssg83
g364
sg76
(lp376
S':'
asbag69
(g90
g71
NtRp377
(dp378
g74
(dp379
sg83
g364
sg76
(lp380
g69
(g70
g71
NtRp381
(dp382
g74
(dp383
g82
I3
ssg83
g377
sg76
(lp384
S''
asbasbasbag69
(g85
g71
NtRp385
(dp386
g74
(dp387
sg83
g297
sg76
(lp388
g69
(g90
g71
NtRp389
(dp390
g74
(dp391
g94
g95
ssg83
g385
sg76
(lp392
S'max-age'
p393
asbag69
(g90
g71
NtRp394
(dp395
g74
(dp396
g101
g102
ssg83
g385
sg76
(lp397
S':'
asbag69
(g90
g71
NtRp398
(dp399
g74
(dp400
sg83
g385
sg76
(lp401
g69
(g70
g71
NtRp402
(dp403
g74
(dp404
g82
I3
ssg83
g398
sg76
(lp405
S''
asbasbasbag69
(g85
g71
NtRp406
(dp407
g74
(dp408
sg83
g297
sg76
(lp409
g69
(g90
g71
NtRp410
(dp411
g74
(dp412
g94
g95
ssg83
g406
sg76
(lp413
S'path'
p414
asbag69
(g90
g71
NtRp415
(dp416
g74
(dp417
g101
g102
ssg83
g406
sg76
(lp418
S':'
asbag69
(g90
g71
NtRp419
(dp420
g74
(dp421
sg83
g406
sg76
(lp422
g69
(g70
g71
NtRp423
(dp424
g74
(dp425
g82
I3
ssg83
g419
sg76
(lp426
S''
asbasbasbag69
(g85
g71
NtRp427
(dp428
g74
(dp429
sg83
g297
sg76
(lp430
g69
(g90
g71
NtRp431
(dp432
g74
(dp433
g94
g95
ssg83
g427
sg76
(lp434
S'secure'
p435
asbag69
(g90
g71
NtRp436
(dp437
g74
(dp438
g101
g102
ssg83
g427
sg76
(lp439
S':'
asbag69
(g90
g71
NtRp440
(dp441
g74
(dp442
sg83
g427
sg76
(lp443
g69
(g70
g71
NtRp444
(dp445
g74
(dp446
g82
I3
ssg83
g440
sg76
(lp447
S''
asbasbasbag69
(g85
g71
NtRp448
(dp449
g74
(dp450
sg83
g297
sg76
(lp451
g69
(g90
g71
NtRp452
(dp453
g74
(dp454
g94
g95
ssg83
g448
sg76
(lp455
S'version'
p456
asbag69
(g90
g71
NtRp457
(dp458
g74
(dp459
g101
g102
ssg83
g448
sg76
(lp460
S':'
asbag69
(g90
g71
NtRp461
(dp462
g74
(dp463
sg83
g448
sg76
(lp464
g69
(g70
g71
NtRp465
(dp466
g74
(dp467
g82
I3
ssg83
g461
sg76
(lp468
S''
asbasbasbasbasbasbasbag69
(g85
g71
NtRp469
(dp470
g74
(dp471
sg83
g272
sg76
(lp472
g69
(g90
g71
NtRp473
(dp474
g74
(dp475
g94
g95
ssg83
g469
sg76
(lp476
S'session_id_telefam'
p477
asbag69
(g90
g71
NtRp478
(dp479
g74
(dp480
g101
g102
ssg83
g469
sg76
(lp481
S':'
asbag69
(g90
g71
NtRp482
(dp483
g74
(dp484
sg83
g469
sg76
(lp485
g69
(g70
g71
NtRp486
(dp487
g74
(dp488
g82
I4
ssg83
g482
sg76
(lp489
g69
(g78
g71
NtRp490
(dp491
g74
(dp492
g82
I3
ssg83
Nsg76
(lp493
g69
(g85
g71
NtRp494
(dp495
g74
(dp496
sg83
g490
sg76
(lp497
g69
(g90
g71
NtRp498
(dp499
g74
(dp500
g94
g95
ssg83
g494
sg76
(lp501
g309
asbag69
(g90
g71
NtRp502
(dp503
g74
(dp504
g101
g102
ssg83
g494
sg76
(lp505
S':'
asbag69
(g90
g71
NtRp506
(dp507
g74
(dp508
sg83
g494
sg76
(lp509
g69
(g70
g71
NtRp510
(dp511
g74
(dp512
g82
I3
ssg83
g506
sg76
(lp513
S''
asbasbasbag69
(g85
g71
NtRp514
(dp515
g74
(dp516
sg83
g490
sg76
(lp517
g69
(g90
g71
NtRp518
(dp519
g74
(dp520
g94
g95
ssg83
g514
sg76
(lp521
g330
asbag69
(g90
g71
NtRp522
(dp523
g74
(dp524
g101
g102
ssg83
g514
sg76
(lp525
S':'
asbag69
(g90
g71
NtRp526
(dp527
g74
(dp528
sg83
g514
sg76
(lp529
g69
(g70
g71
NtRp530
(dp531
g74
(dp532
g82
I3
ssg83
g526
sg76
(lp533
S''
asbasbasbag69
(g85
g71
NtRp534
(dp535
g74
(dp536
sg83
g490
sg76
(lp537
g69
(g90
g71
NtRp538
(dp539
g74
(dp540
g94
g95
ssg83
g534
sg76
(lp541
g351
asbag69
(g90
g71
NtRp542
(dp543
g74
(dp544
g101
g102
ssg83
g534
sg76
(lp545
S':'
asbag69
(g90
g71
NtRp546
(dp547
g74
(dp548
sg83
g534
sg76
(lp549
g69
(g70
g71
NtRp550
(dp551
g74
(dp552
g82
I3
ssg83
g546
sg76
(lp553
S''
asbasbasbag69
(g85
g71
NtRp554
(dp555
g74
(dp556
sg83
g490
sg76
(lp557
g69
(g90
g71
NtRp558
(dp559
g74
(dp560
g94
g95
ssg83
g554
sg76
(lp561
g372
asbag69
(g90
g71
NtRp562
(dp563
g74
(dp564
g101
g102
ssg83
g554
sg76
(lp565
S':'
asbag69
(g90
g71
NtRp566
(dp567
g74
(dp568
sg83
g554
sg76
(lp569
g69
(g70
g71
NtRp570
(dp571
g74
(dp572
g82
I3
ssg83
g566
sg76
(lp573
S''
asbasbasbag69
(g85
g71
NtRp574
(dp575
g74
(dp576
sg83
g490
sg76
(lp577
g69
(g90
g71
NtRp578
(dp579
g74
(dp580
g94
g95
ssg83
g574
sg76
(lp581
g393
asbag69
(g90
g71
NtRp582
(dp583
g74
(dp584
g101
g102
ssg83
g574
sg76
(lp585
S':'
asbag69
(g90
g71
NtRp586
(dp587
g74
(dp588
sg83
g574
sg76
(lp589
g69
(g70
g71
NtRp590
(dp591
g74
(dp592
g82
I3
ssg83
g586
sg76
(lp593
S''
asbasbasbag69
(g85
g71
NtRp594
(dp595
g74
(dp596
sg83
g490
sg76
(lp597
g69
(g90
g71
NtRp598
(dp599
g74
(dp600
g94
g95
ssg83
g594
sg76
(lp601
g414
asbag69
(g90
g71
NtRp602
(dp603
g74
(dp604
g101
g102
ssg83
g594
sg76
(lp605
S':'
asbag69
(g90
g71
NtRp606
(dp607
g74
(dp608
sg83
g594
sg76
(lp609
g69
(g70
g71
NtRp610
(dp611
g74
(dp612
g82
I3
ssg83
g606
sg76
(lp613
S''
asbasbasbag69
(g85
g71
NtRp614
(dp615
g74
(dp616
sg83
g490
sg76
(lp617
g69
(g90
g71
NtRp618
(dp619
g74
(dp620
g94
g95
ssg83
g614
sg76
(lp621
g435
asbag69
(g90
g71
NtRp622
(dp623
g74
(dp624
g101
g102
ssg83
g614
sg76
(lp625
S':'
asbag69
(g90
g71
NtRp626
(dp627
g74
(dp628
sg83
g614
sg76
(lp629
g69
(g70
g71
NtRp630
(dp631
g74
(dp632
g82
I3
ssg83
g626
sg76
(lp633
S''
asbasbasbag69
(g85
g71
NtRp634
(dp635
g74
(dp636
sg83
g490
sg76
(lp637
g69
(g90
g71
NtRp638
(dp639
g74
(dp640
g94
g95
ssg83
g634
sg76
(lp641
g456
asbag69
(g90
g71
NtRp642
(dp643
g74
(dp644
g101
g102
ssg83
g634
sg76
(lp645
S':'
asbag69
(g90
g71
NtRp646
(dp647
g74
(dp648
sg83
g634
sg76
(lp649
g69
(g70
g71
NtRp650
(dp651
g74
(dp652
g82
I3
ssg83
g646
sg76
(lp653
S''
asbasbasbasbasbasbasbasbasbasbasbag69
(g85
g71
NtRp654
(dp655
g74
(dp656
sg83
g79
sg76
(lp657
g69
(g90
g71
NtRp658
(dp659
g74
(dp660
g94
g95
ssg83
g654
sg76
(lp661
S'env'
p662
asbag69
(g90
g71
NtRp663
(dp664
g74
(dp665
g101
g102
ssg83
g654
sg76
(lp666
S':'
asbag69
(g90
g71
NtRp667
(dp668
g74
(dp669
sg83
g654
sg76
(lp670
g69
(g70
g71
NtRp671
(dp672
g74
(dp673
g82
I5
ssg83
g667
sg76
(lp674
g69
(g78
g71
NtRp675
(dp676
g74
(dp677
g82
I4
ssg83
Nsg76
(lp678
g69
(g85
g71
NtRp679
(dp680
g74
(dp681
sg83
g675
sg76
(lp682
g69
(g90
g71
NtRp683
(dp684
g74
(dp685
g94
g95
ssg83
g679
sg76
(lp686
S'app_folders'
p687
asbag69
(g90
g71
NtRp688
(dp689
g74
(dp690
g101
g102
ssg83
g679
sg76
(lp691
S':'
asbag69
(g90
g71
NtRp692
(dp693
g74
(dp694
sg83
g679
sg76
(lp695
g69
(g70
g71
NtRp696
(dp697
g74
(dp698
g82
I4
ssg83
g692
sg76
(lp699
S"set(['/home/alfem/alfem/prog/telefam/server/web2py/applications/examples/', '/home/alfem/alfem/prog/telefam/server/web2py/applications/admin/', '/home/alfem/alfem/prog/telefam/server/web2py/applications/welcome/', '/home/alfem/alfem/prog/telefam/server/web2py/applications/telefam/'])"
p700
asbasbasbag69
(g85
g71
NtRp701
(dp702
g74
(dp703
sg83
g675
sg76
(lp704
g69
(g90
g71
NtRp705
(dp706
g74
(dp707
g94
g95
ssg83
g701
sg76
(lp708
S'applications_parent'
p709
asbag69
(g90
g71
NtRp710
(dp711
g74
(dp712
g101
g102
ssg83
g701
sg76
(lp713
S':'
asbag69
(g90
g71
NtRp714
(dp715
g74
(dp716
sg83
g701
sg76
(lp717
g69
(g70
g71
NtRp718
(dp719
g74
(dp720
g82
I4
ssg83
g714
sg76
(lp721
S'/home/alfem/alfem/prog/telefam/server/web2py'
p722
asbasbasbag69
(g85
g71
NtRp723
(dp724
g74
(dp725
sg83
g675
sg76
(lp726
g69
(g90
g71
NtRp727
(dp728
g74
(dp729
g94
g95
ssg83
g723
sg76
(lp730
S'cmd_args'
p731
asbag69
(g90
g71
NtRp732
(dp733
g74
(dp734
g101
g102
ssg83
g723
sg76
(lp735
S':'
asbag69
(g90
g71
NtRp736
(dp737
g74
(dp738
sg83
g723
sg76
(lp739
g69
(g70
g71
NtRp740
(dp741
g74
(dp742
g82
I4
ssg83
g736
sg76
(lp743
g69
(g78
g71
NtRp744
(dp745
g74
(dp746
g82
I3
ssg83
Nsg76
(lp747
sbasbasbasbag69
(g85
g71
NtRp748
(dp749
g74
(dp750
sg83
g675
sg76
(lp751
g69
(g90
g71
NtRp752
(dp753
g74
(dp754
g94
g95
ssg83
g748
sg76
(lp755
S'cmd_options'
p756
asbag69
(g90
g71
NtRp757
(dp758
g74
(dp759
g101
g102
ssg83
g748
sg76
(lp760
S':'
asbag69
(g90
g71
NtRp761
(dp762
g74
(dp763
sg83
g748
sg76
(lp764
g69
(g70
g71
NtRp765
(dp766
g74
(dp767
g82
I4
ssg83
g761
sg76
(lp768
S"<Values at 0x946c20c: {'verbose': False, 'ip': '127.0.0.1', 'shutdown_timeout': 5, 'taskbar': False, 'nocron': False, 'pid_filename': 'httpserver.pid', 'maxthreads': None, 'softcron': False, 'server_name': 'acala', 'bpython': False, 'nogui': False, 'port': 8000, 'extcron': False, 'debuglevel': 30, 'test': None, 'folder': '/home/alfem/alfem/prog/telefam/server/web2py', 'config': '', 'import_models': False, 'winservice': '', 'shell': None, 'run': '', 'log_filename': 'httpserver.log', 'args': [''], 'socket_timeout': 5, 'ssl_ca_certificate': None, 'scheduler': None, 'profiler_filename': None, 'ssl_private_key': '', 'password': '1234', 'request_queue_size': 5, 'ssl_certificate': '', 'cronjob': False, 'numthreads': None, 'quiet': False, 'interfaces': None, 'minthreads': None, 'timeout': 10, 'plain': False, 'nobanner': False}>"
p769
asbasbasbag69
(g85
g71
NtRp770
(dp771
g74
(dp772
sg83
g675
sg76
(lp773
g69
(g90
g71
NtRp774
(dp775
g74
(dp776
g94
g95
ssg83
g770
sg76
(lp777
S'db_sessions'
p778
asbag69
(g90
g71
NtRp779
(dp780
g74
(dp781
g101
g102
ssg83
g770
sg76
(lp782
S':'
asbag69
(g90
g71
NtRp783
(dp784
g74
(dp785
sg83
g770
sg76
(lp786
g69
(g70
g71
NtRp787
(dp788
g74
(dp789
g82
I4
ssg83
g783
sg76
(lp790
S'set([])'
p791
asbasbasbag69
(g85
g71
NtRp792
(dp793
g74
(dp794
sg83
g675
sg76
(lp795
g69
(g90
g71
NtRp796
(dp797
g74
(dp798
g94
g95
ssg83
g792
sg76
(lp799
S'debugging'
p800
asbag69
(g90
g71
NtRp801
(dp802
g74
(dp803
g101
g102
ssg83
g792
sg76
(lp804
S':'
asbag69
(g90
g71
NtRp805
(dp806
g74
(dp807
sg83
g792
sg76
(lp808
g69
(g70
g71
NtRp809
(dp810
g74
(dp811
g82
I4
ssg83
g805
sg76
(lp812
g112
asbasbasbag69
(g85
g71
NtRp813
(dp814
g74
(dp815
sg83
g675
sg76
(lp816
g69
(g90
g71
NtRp817
(dp818
g74
(dp819
g94
g95
ssg83
g813
sg76
(lp820
S'gluon_parent'
p821
asbag69
(g90
g71
NtRp822
(dp823
g74
(dp824
g101
g102
ssg83
g813
sg76
(lp825
S':'
asbag69
(g90
g71
NtRp826
(dp827
g74
(dp828
sg83
g813
sg76
(lp829
g69
(g70
g71
NtRp830
(dp831
g74
(dp832
g82
I4
ssg83
g826
sg76
(lp833
S'/home/alfem/alfem/prog/telefam/server/web2py'
p834
asbasbasbag69
(g85
g71
NtRp835
(dp836
g74
(dp837
sg83
g675
sg76
(lp838
g69
(g90
g71
NtRp839
(dp840
g74
(dp841
g94
g95
ssg83
g835
sg76
(lp842
S'http_accept'
p843
asbag69
(g90
g71
NtRp844
(dp845
g74
(dp846
g101
g102
ssg83
g835
sg76
(lp847
S':'
asbag69
(g90
g71
NtRp848
(dp849
g74
(dp850
sg83
g835
sg76
(lp851
g69
(g70
g71
NtRp852
(dp853
g74
(dp854
g82
I4
ssg83
g848
sg76
(lp855
S'text/html,application/xhtml+xml,application/xml;q=0.9,*/*;q=0.8'
p856
asbasbasbag69
(g85
g71
NtRp857
(dp858
g74
(dp859
sg83
g675
sg76
(lp860
g69
(g90
g71
NtRp861
(dp862
g74
(dp863
g94
g95
ssg83
g857
sg76
(lp864
S'http_accept_charset'
p865
asbag69
(g90
g71
NtRp866
(dp867
g74
(dp868
g101
g102
ssg83
g857
sg76
(lp869
S':'
asbag69
(g90
g71
NtRp870
(dp871
g74
(dp872
sg83
g857
sg76
(lp873
g69
(g70
g71
NtRp874
(dp875
g74
(dp876
g82
I4
ssg83
g870
sg76
(lp877
S'ISO-8859-1,utf-8;q=0.7,*;q=0.7'
p878
asbasbasbag69
(g85
g71
NtRp879
(dp880
g74
(dp881
sg83
g675
sg76
(lp882
g69
(g90
g71
NtRp883
(dp884
g74
(dp885
g94
g95
ssg83
g879
sg76
(lp886
S'http_accept_encoding'
p887
asbag69
(g90
g71
NtRp888
(dp889
g74
(dp890
g101
g102
ssg83
g879
sg76
(lp891
S':'
asbag69
(g90
g71
NtRp892
(dp893
g74
(dp894
sg83
g879
sg76
(lp895
g69
(g70
g71
NtRp896
(dp897
g74
(dp898
g82
I4
ssg83
g892
sg76
(lp899
S'gzip, deflate'
p900
asbasbasbag69
(g85
g71
NtRp901
(dp902
g74
(dp903
sg83
g675
sg76
(lp904
g69
(g90
g71
NtRp905
(dp906
g74
(dp907
g94
g95
ssg83
g901
sg76
(lp908
S'http_accept_language'
p909
asbag69
(g90
g71
NtRp910
(dp911
g74
(dp912
g101
g102
ssg83
g901
sg76
(lp913
S':'
asbag69
(g90
g71
NtRp914
(dp915
g74
(dp916
sg83
g901
sg76
(lp917
g69
(g70
g71
NtRp918
(dp919
g74
(dp920
g82
I4
ssg83
g914
sg76
(lp921
S'es-es,es;q=0.8,en-us;q=0.5,en;q=0.3'
p922
asbasbasbag69
(g85
g71
NtRp923
(dp924
g74
(dp925
sg83
g675
sg76
(lp926
g69
(g90
g71
NtRp927
(dp928
g74
(dp929
g94
g95
ssg83
g923
sg76
(lp930
S'http_cache_control'
p931
asbag69
(g90
g71
NtRp932
(dp933
g74
(dp934
g101
g102
ssg83
g923
sg76
(lp935
S':'
asbag69
(g90
g71
NtRp936
(dp937
g74
(dp938
sg83
g923
sg76
(lp939
g69
(g70
g71
NtRp940
(dp941
g74
(dp942
g82
I4
ssg83
g936
sg76
(lp943
S'max-age=0'
p944
asbasbasbag69
(g85
g71
NtRp945
(dp946
g74
(dp947
sg83
g675
sg76
(lp948
g69
(g90
g71
NtRp949
(dp950
g74
(dp951
g94
g95
ssg83
g945
sg76
(lp952
S'http_connection'
p953
asbag69
(g90
g71
NtRp954
(dp955
g74
(dp956
g101
g102
ssg83
g945
sg76
(lp957
S':'
asbag69
(g90
g71
NtRp958
(dp959
g74
(dp960
sg83
g945
sg76
(lp961
g69
(g70
g71
NtRp962
(dp963
g74
(dp964
g82
I4
ssg83
g958
sg76
(lp965
S'keep-alive'
p966
asbasbasbag69
(g85
g71
NtRp967
(dp968
g74
(dp969
sg83
g675
sg76
(lp970
g69
(g90
g71
NtRp971
(dp972
g74
(dp973
g94
g95
ssg83
g967
sg76
(lp974
S'http_cookie'
p975
asbag69
(g90
g71
NtRp976
(dp977
g74
(dp978
g101
g102
ssg83
g967
sg76
(lp979
S':'
asbag69
(g90
g71
NtRp980
(dp981
g74
(dp982
sg83
g967
sg76
(lp983
g69
(g70
g71
NtRp984
(dp985
g74
(dp986
g82
I4
ssg83
g980
sg76
(lp987
S'session_id_telefam=127.0.0.1-f7f620a6-fd63-4f72-b11a-b8325669ccbf; session_id_admin=127.0.0.1-5206745e-be3c-42d6-877d-ed8e8286d258'
p988
asbasbasbag69
(g85
g71
NtRp989
(dp990
g74
(dp991
sg83
g675
sg76
(lp992
g69
(g90
g71
NtRp993
(dp994
g74
(dp995
g94
g95
ssg83
g989
sg76
(lp996
S'http_host'
p997
asbag69
(g90
g71
NtRp998
(dp999
g74
(dp1000
g101
g102
ssg83
g989
sg76
(lp1001
S':'
asbag69
(g90
g71
NtRp1002
(dp1003
g74
(dp1004
sg83
g989
sg76
(lp1005
g69
(g70
g71
NtRp1006
(dp1007
g74
(dp1008
g82
I4
ssg83
g1002
sg76
(lp1009
S'127.0.0.1:8000'
p1010
asbasbasbag69
(g85
g71
NtRp1011
(dp1012
g74
(dp1013
sg83
g675
sg76
(lp1014
g69
(g90
g71
NtRp1015
(dp1016
g74
(dp1017
g94
g95
ssg83
g1011
sg76
(lp1018
S'http_user_agent'
p1019
asbag69
(g90
g71
NtRp1020
(dp1021
g74
(dp1022
g101
g102
ssg83
g1011
sg76
(lp1023
S':'
asbag69
(g90
g71
NtRp1024
(dp1025
g74
(dp1026
sg83
g1011
sg76
(lp1027
g69
(g70
g71
NtRp1028
(dp1029
g74
(dp1030
g82
I4
ssg83
g1024
sg76
(lp1031
S'Mozilla/5.0 (Ubuntu; X11; Linux i686; rv:8.0) Gecko/20100101 Firefox/8.0'
p1032
asbasbasbag69
(g85
g71
NtRp1033
(dp1034
g74
(dp1035
sg83
g675
sg76
(lp1036
g69
(g90
g71
NtRp1037
(dp1038
g74
(dp1039
g94
g95
ssg83
g1033
sg76
(lp1040
S'is_jython'
p1041
asbag69
(g90
g71
NtRp1042
(dp1043
g74
(dp1044
g101
g102
ssg83
g1033
sg76
(lp1045
S':'
asbag69
(g90
g71
NtRp1046
(dp1047
g74
(dp1048
sg83
g1033
sg76
(lp1049
g69
(g70
g71
NtRp1050
(dp1051
g74
(dp1052
g82
I4
ssg83
g1046
sg76
(lp1053
g112
asbasbasbag69
(g85
g71
NtRp1054
(dp1055
g74
(dp1056
sg83
g675
sg76
(lp1057
g69
(g90
g71
NtRp1058
(dp1059
g74
(dp1060
g94
g95
ssg83
g1054
sg76
(lp1061
S'is_pypy'
p1062
asbag69
(g90
g71
NtRp1063
(dp1064
g74
(dp1065
g101
g102
ssg83
g1054
sg76
(lp1066
S':'
asbag69
(g90
g71
NtRp1067
(dp1068
g74
(dp1069
sg83
g1054
sg76
(lp1070
g69
(g70
g71
NtRp1071
(dp1072
g74
(dp1073
g82
I4
ssg83
g1067
sg76
(lp1074
g112
asbasbasbag69
(g85
g71
NtRp1075
(dp1076
g74
(dp1077
sg83
g675
sg76
(lp1078
g69
(g90
g71
NtRp1079
(dp1080
g74
(dp1081
g94
g95
ssg83
g1075
sg76
(lp1082
S'path_info'
p1083
asbag69
(g90
g71
NtRp1084
(dp1085
g74
(dp1086
g101
g102
ssg83
g1075
sg76
(lp1087
S':'
asbag69
(g90
g71
NtRp1088
(dp1089
g74
(dp1090
sg83
g1075
sg76
(lp1091
g69
(g70
g71
NtRp1092
(dp1093
g74
(dp1094
g82
I4
ssg83
g1088
sg76
(lp1095
S'/telefam/api/call/json/get_message'
p1096
asbasbasbag69
(g85
g71
NtRp1097
(dp1098
g74
(dp1099
sg83
g675
sg76
(lp1100
g69
(g90
g71
NtRp1101
(dp1102
g74
(dp1103
g94
g95
ssg83
g1097
sg76
(lp1104
S'query_string'
p1105
asbag69
(g90
g71
NtRp1106
(dp1107
g74
(dp1108
g101
g102
ssg83
g1097
sg76
(lp1109
S':'
asbag69
(g90
g71
NtRp1110
(dp1111
g74
(dp1112
sg83
g1097
sg76
(lp1113
g69
(g70
g71
NtRp1114
(dp1115
g74
(dp1116
g82
I4
ssg83
g1110
sg76
(lp1117
S'key=raspberry314&id=3'
p1118
asbasbasbag69
(g85
g71
NtRp1119
(dp1120
g74
(dp1121
sg83
g675
sg76
(lp1122
g69
(g90
g71
NtRp1123
(dp1124
g74
(dp1125
g94
g95
ssg83
g1119
sg76
(lp1126
S'remote_addr'
p1127
asbag69
(g90
g71
NtRp1128
(dp1129
g74
(dp1130
g101
g102
ssg83
g1119
sg76
(lp1131
S':'
asbag69
(g90
g71
NtRp1132
(dp1133
g74
(dp1134
sg83
g1119
sg76
(lp1135
g69
(g70
g71
NtRp1136
(dp1137
g74
(dp1138
g82
I4
ssg83
g1132
sg76
(lp1139
g228
asbasbasbag69
(g85
g71
NtRp1140
(dp1141
g74
(dp1142
sg83
g675
sg76
(lp1143
g69
(g90
g71
NtRp1144
(dp1145
g74
(dp1146
g94
g95
ssg83
g1140
sg76
(lp1147
S'remote_port'
p1148
asbag69
(g90
g71
NtRp1149
(dp1150
g74
(dp1151
g101
g102
ssg83
g1140
sg76
(lp1152
S':'
asbag69
(g90
g71
NtRp1153
(dp1154
g74
(dp1155
sg83
g1140
sg76
(lp1156
g69
(g70
g71
NtRp1157
(dp1158
g74
(dp1159
g82
I4
ssg83
g1153
sg76
(lp1160
S'35723'
p1161
asbasbasbag69
(g85
g71
NtRp1162
(dp1163
g74
(dp1164
sg83
g675
sg76
(lp1165
g69
(g90
g71
NtRp1166
(dp1167
g74
(dp1168
g94
g95
ssg83
g1162
sg76
(lp1169
S'request_method'
p1170
asbag69
(g90
g71
NtRp1171
(dp1172
g74
(dp1173
g101
g102
ssg83
g1162
sg76
(lp1174
S':'
asbag69
(g90
g71
NtRp1175
(dp1176
g74
(dp1177
sg83
g1162
sg76
(lp1178
g69
(g70
g71
NtRp1179
(dp1180
g74
(dp1181
g82
I4
ssg83
g1175
sg76
(lp1182
S'GET'
p1183
asbasbasbag69
(g85
g71
NtRp1184
(dp1185
g74
(dp1186
sg83
g675
sg76
(lp1187
g69
(g90
g71
NtRp1188
(dp1189
g74
(dp1190
g94
g95
ssg83
g1184
sg76
(lp1191
S'script_name'
p1192
asbag69
(g90
g71
NtRp1193
(dp1194
g74
(dp1195
g101
g102
ssg83
g1184
sg76
(lp1196
S':'
asbag69
(g90
g71
NtRp1197
(dp1198
g74
(dp1199
sg83
g1184
sg76
(lp1200
g69
(g70
g71
NtRp1201
(dp1202
g74
(dp1203
g82
I4
ssg83
g1197
sg76
(lp1204
S''
asbasbasbag69
(g85
g71
NtRp1205
(dp1206
g74
(dp1207
sg83
g675
sg76
(lp1208
g69
(g90
g71
NtRp1209
(dp1210
g74
(dp1211
g94
g95
ssg83
g1205
sg76
(lp1212
S'server_name'
p1213
asbag69
(g90
g71
NtRp1214
(dp1215
g74
(dp1216
g101
g102
ssg83
g1205
sg76
(lp1217
S':'
asbag69
(g90
g71
NtRp1218
(dp1219
g74
(dp1220
sg83
g1205
sg76
(lp1221
g69
(g70
g71
NtRp1222
(dp1223
g74
(dp1224
g82
I4
ssg83
g1218
sg76
(lp1225
S'acala'
p1226
asbasbasbag69
(g85
g71
NtRp1227
(dp1228
g74
(dp1229
sg83
g675
sg76
(lp1230
g69
(g90
g71
NtRp1231
(dp1232
g74
(dp1233
g94
g95
ssg83
g1227
sg76
(lp1234
S'server_port'
p1235
asbag69
(g90
g71
NtRp1236
(dp1237
g74
(dp1238
g101
g102
ssg83
g1227
sg76
(lp1239
S':'
asbag69
(g90
g71
NtRp1240
(dp1241
g74
(dp1242
sg83
g1227
sg76
(lp1243
g69
(g70
g71
NtRp1244
(dp1245
g74
(dp1246
g82
I4
ssg83
g1240
sg76
(lp1247
S'8000'
p1248
asbasbasbag69
(g85
g71
NtRp1249
(dp1250
g74
(dp1251
sg83
g675
sg76
(lp1252
g69
(g90
g71
NtRp1253
(dp1254
g74
(dp1255
g94
g95
ssg83
g1249
sg76
(lp1256
S'server_protocol'
p1257
asbag69
(g90
g71
NtRp1258
(dp1259
g74
(dp1260
g101
g102
ssg83
g1249
sg76
(lp1261
S':'
asbag69
(g90
g71
NtRp1262
(dp1263
g74
(dp1264
sg83
g1249
sg76
(lp1265
g69
(g70
g71
NtRp1266
(dp1267
g74
(dp1268
g82
I4
ssg83
g1262
sg76
(lp1269
S'HTTP/1.1'
p1270
asbasbasbag69
(g85
g71
NtRp1271
(dp1272
g74
(dp1273
sg83
g675
sg76
(lp1274
g69
(g90
g71
NtRp1275
(dp1276
g74
(dp1277
g94
g95
ssg83
g1271
sg76
(lp1278
S'server_software'
p1279
asbag69
(g90
g71
NtRp1280
(dp1281
g74
(dp1282
g101
g102
ssg83
g1271
sg76
(lp1283
S':'
asbag69
(g90
g71
NtRp1284
(dp1285
g74
(dp1286
sg83
g1271
sg76
(lp1287
g69
(g70
g71
NtRp1288
(dp1289
g74
(dp1290
g82
I4
ssg83
g1284
sg76
(lp1291
S'Rocket 1.2.4'
p1292
asbasbasbag69
(g85
g71
NtRp1293
(dp1294
g74
(dp1295
sg83
g675
sg76
(lp1296
g69
(g90
g71
NtRp1297
(dp1298
g74
(dp1299
g94
g95
ssg83
g1293
sg76
(lp1300
S'web2py_crontype'
p1301
asbag69
(g90
g71
NtRp1302
(dp1303
g74
(dp1304
g101
g102
ssg83
g1293
sg76
(lp1305
S':'
asbag69
(g90
g71
NtRp1306
(dp1307
g74
(dp1308
sg83
g1293
sg76
(lp1309
g69
(g70
g71
NtRp1310
(dp1311
g74
(dp1312
g82
I4
ssg83
g1306
sg76
(lp1313
S'hard'
p1314
asbasbasbag69
(g85
g71
NtRp1315
(dp1316
g74
(dp1317
sg83
g675
sg76
(lp1318
g69
(g90
g71
NtRp1319
(dp1320
g74
(dp1321
g94
g95
ssg83
g1315
sg76
(lp1322
S'web2py_path'
p1323
asbag69
(g90
g71
NtRp1324
(dp1325
g74
(dp1326
g101
g102
ssg83
g1315
sg76
(lp1327
S':'
asbag69
(g90
g71
NtRp1328
(dp1329
g74
(dp1330
sg83
g1315
sg76
(lp1331
g69
(g70
g71
NtRp1332
(dp1333
g74
(dp1334
g82
I4
ssg83
g1328
sg76
(lp1335
g722
asbasbasbag69
(g85
g71
NtRp1336
(dp1337
g74
(dp1338
sg83
g675
sg76
(lp1339
g69
(g90
g71
NtRp1340
(dp1341
g74
(dp1342
g94
g95
ssg83
g1336
sg76
(lp1343
S'web2py_version'
p1344
asbag69
(g90
g71
NtRp1345
(dp1346
g74
(dp1347
g101
g102
ssg83
g1336
sg76
(lp1348
S':'
asbag69
(g90
g71
NtRp1349
(dp1350
g74
(dp1351
sg83
g1336
sg76
(lp1352
g69
(g70
g71
NtRp1353
(dp1354
g74
(dp1355
g82
I4
ssg83
g1349
sg76
(lp1356
g69
(g78
g71
NtRp1357
(dp1358
g74
(dp1359
g82
I3
ssg83
Nsg76
(lp1360
g69
(g85
g71
NtRp1361
(dp1362
g74
(dp1363
sg83
g1357
sg76
(lp1364
g69
(g90
g71
NtRp1365
(dp1366
g74
(dp1367
sg83
g1361
sg76
(lp1368
g69
(g70
g71
NtRp1369
(dp1370
g74
(dp1371
g82
I3
ssg83
g1365
sg76
(lp1372
S'1'
asbasbasbag69
(g85
g71
NtRp1373
(dp1374
g74
(dp1375
sg83
g1357
sg76
(lp1376
g69
(g90
g71
NtRp1377
(dp1378
g74
(dp1379
sg83
g1373
sg76
(lp1380
g69
(g70
g71
NtRp1381
(dp1382
g74
(dp1383
g82
I3
ssg83
g1377
sg76
(lp1384
S'99'
p1385
asbasbasbag69
(g85
g71
NtRp1386
(dp1387
g74
(dp1388
sg83
g1357
sg76
(lp1389
g69
(g90
g71
NtRp1390
(dp1391
g74
(dp1392
sg83
g1386
sg76
(lp1393
g69
(g70
g71
NtRp1394
(dp1395
g74
(dp1396
g82
I3
ssg83
g1390
sg76
(lp1397
S'7'
asbasbasbag69
(g85
g71
NtRp1398
(dp1399
g74
(dp1400
sg83
g1357
sg76
(lp1401
g69
(g90
g71
NtRp1402
(dp1403
g74
(dp1404
sg83
g1398
sg76
(lp1405
g69
(g70
g71
NtRp1406
(dp1407
g74
(dp1408
g82
I3
ssg83
g1402
sg76
(lp1409
S'datetime.datetime(2012, 3, 4, 22, 12, 8)'
p1410
asbasbasbag69
(g85
g71
NtRp1411
(dp1412
g74
(dp1413
sg83
g1357
sg76
(lp1414
g69
(g90
g71
NtRp1415
(dp1416
g74
(dp1417
sg83
g1411
sg76
(lp1418
g69
(g70
g71
NtRp1419
(dp1420
g74
(dp1421
g82
I3
ssg83
g1415
sg76
(lp1422
S'stable'
p1423
asbasbasbasbasbasbasbag69
(g85
g71
NtRp1424
(dp1425
g74
(dp1426
sg83
g675
sg76
(lp1427
g69
(g90
g71
NtRp1428
(dp1429
g74
(dp1430
g94
g95
ssg83
g1424
sg76
(lp1431
S'wsgi_errors'
p1432
asbag69
(g90
g71
NtRp1433
(dp1434
g74
(dp1435
g101
g102
ssg83
g1424
sg76
(lp1436
S':'
asbag69
(g90
g71
NtRp1437
(dp1438
g74
(dp1439
sg83
g1424
sg76
(lp1440
g69
(g70
g71
NtRp1441
(dp1442
g74
(dp1443
g82
I4
ssg83
g1437
sg76
(lp1444
S"<open file '<stderr>', mode 'w' at 0xb770a0d0>"
p1445
asbasbasbag69
(g85
g71
NtRp1446
(dp1447
g74
(dp1448
sg83
g675
sg76
(lp1449
g69
(g90
g71
NtRp1450
(dp1451
g74
(dp1452
g94
g95
ssg83
g1446
sg76
(lp1453
S'wsgi_file_wrapper'
p1454
asbag69
(g90
g71
NtRp1455
(dp1456
g74
(dp1457
g101
g102
ssg83
g1446
sg76
(lp1458
S':'
asbag69
(g90
g71
NtRp1459
(dp1460
g74
(dp1461
sg83
g1446
sg76
(lp1462
g69
(g70
g71
NtRp1463
(dp1464
g74
(dp1465
g82
I4
ssg83
g1459
sg76
(lp1466
S'<class wsgiref.util.FileWrapper at 0x943be6c>'
p1467
asbasbasbag69
(g85
g71
NtRp1468
(dp1469
g74
(dp1470
sg83
g675
sg76
(lp1471
g69
(g90
g71
NtRp1472
(dp1473
g74
(dp1474
g94
g95
ssg83
g1468
sg76
(lp1475
S'wsgi_input'
p1476
asbag69
(g90
g71
NtRp1477
(dp1478
g74
(dp1479
g101
g102
ssg83
g1468
sg76
(lp1480
S':'
asbag69
(g90
g71
NtRp1481
(dp1482
g74
(dp1483
sg83
g1468
sg76
(lp1484
g69
(g70
g71
NtRp1485
(dp1486
g74
(dp1487
g82
I4
ssg83
g1481
sg76
(lp1488
S'<socket._fileobject object at 0xbe13d2c>'
p1489
asbasbasbag69
(g85
g71
NtRp1490
(dp1491
g74
(dp1492
sg83
g675
sg76
(lp1493
g69
(g90
g71
NtRp1494
(dp1495
g74
(dp1496
g94
g95
ssg83
g1490
sg76
(lp1497
S'wsgi_multiprocess'
p1498
asbag69
(g90
g71
NtRp1499
(dp1500
g74
(dp1501
g101
g102
ssg83
g1490
sg76
(lp1502
S':'
asbag69
(g90
g71
NtRp1503
(dp1504
g74
(dp1505
sg83
g1490
sg76
(lp1506
g69
(g70
g71
NtRp1507
(dp1508
g74
(dp1509
g82
I4
ssg83
g1503
sg76
(lp1510
g112
asbasbasbag69
(g85
g71
NtRp1511
(dp1512
g74
(dp1513
sg83
g675
sg76
(lp1514
g69
(g90
g71
NtRp1515
(dp1516
g74
(dp1517
g94
g95
ssg83
g1511
sg76
(lp1518
S'wsgi_multithread'
p1519
asbag69
(g90
g71
NtRp1520
(dp1521
g74
(dp1522
g101
g102
ssg83
g1511
sg76
(lp1523
S':'
asbag69
(g90
g71
NtRp1524
(dp1525
g74
(dp1526
sg83
g1511
sg76
(lp1527
g69
(g70
g71
NtRp1528
(dp1529
g74
(dp1530
g82
I4
ssg83
g1524
sg76
(lp1531
S'True'
p1532
asbasbasbag69
(g85
g71
NtRp1533
(dp1534
g74
(dp1535
sg83
g675
sg76
(lp1536
g69
(g90
g71
NtRp1537
(dp1538
g74
(dp1539
g94
g95
ssg83
g1533
sg76
(lp1540
S'wsgi_run_once'
p1541
asbag69
(g90
g71
NtRp1542
(dp1543
g74
(dp1544
g101
g102
ssg83
g1533
sg76
(lp1545
S':'
asbag69
(g90
g71
NtRp1546
(dp1547
g74
(dp1548
sg83
g1533
sg76
(lp1549
g69
(g70
g71
NtRp1550
(dp1551
g74
(dp1552
g82
I4
ssg83
g1546
sg76
(lp1553
g112
asbasbasbag69
(g85
g71
NtRp1554
(dp1555
g74
(dp1556
sg83
g675
sg76
(lp1557
g69
(g90
g71
NtRp1558
(dp1559
g74
(dp1560
g94
g95
ssg83
g1554
sg76
(lp1561
S'wsgi_url_scheme'
p1562
asbag69
(g90
g71
NtRp1563
(dp1564
g74
(dp1565
g101
g102
ssg83
g1554
sg76
(lp1566
S':'
asbag69
(g90
g71
NtRp1567
(dp1568
g74
(dp1569
sg83
g1554
sg76
(lp1570
g69
(g70
g71
NtRp1571
(dp1572
g74
(dp1573
g82
I4
ssg83
g1567
sg76
(lp1574
S'http'
p1575
asbasbasbag69
(g85
g71
NtRp1576
(dp1577
g74
(dp1578
sg83
g675
sg76
(lp1579
g69
(g90
g71
NtRp1580
(dp1581
g74
(dp1582
g94
g95
ssg83
g1576
sg76
(lp1583
S'wsgi_version'
p1584
asbag69
(g90
g71
NtRp1585
(dp1586
g74
(dp1587
g101
g102
ssg83
g1576
sg76
(lp1588
S':'
asbag69
(g90
g71
NtRp1589
(dp1590
g74
(dp1591
sg83
g1576
sg76
(lp1592
g69
(g70
g71
NtRp1593
(dp1594
g74
(dp1595
g82
I4
ssg83
g1589
sg76
(lp1596
g69
(g78
g71
NtRp1597
(dp1598
g74
(dp1599
g82
I3
ssg83
Nsg76
(lp1600
g69
(g85
g71
NtRp1601
(dp1602
g74
(dp1603
sg83
g1597
sg76
(lp1604
g69
(g90
g71
NtRp1605
(dp1606
g74
(dp1607
sg83
g1601
sg76
(lp1608
g69
(g70
g71
NtRp1609
(dp1610
g74
(dp1611
g82
I3
ssg83
g1605
sg76
(lp1612
S'1'
asbasbasbag69
(g85
g71
NtRp1613
(dp1614
g74
(dp1615
sg83
g1597
sg76
(lp1616
g69
(g90
g71
NtRp1617
(dp1618
g74
(dp1619
sg83
g1613
sg76
(lp1620
g69
(g70
g71
NtRp1621
(dp1622
g74
(dp1623
g82
I3
ssg83
g1617
sg76
(lp1624
S'0'
asbasbasbasbasbasbasbasbasbasbasbag69
(g85
g71
NtRp1625
(dp1626
g74
(dp1627
sg83
g79
sg76
(lp1628
g69
(g90
g71
NtRp1629
(dp1630
g74
(dp1631
g94
g95
ssg83
g1625
sg76
(lp1632
S'extension'
p1633
asbag69
(g90
g71
NtRp1634
(dp1635
g74
(dp1636
g101
g102
ssg83
g1625
sg76
(lp1637
S':'
asbag69
(g90
g71
NtRp1638
(dp1639
g74
(dp1640
sg83
g1625
sg76
(lp1641
g69
(g70
g71
NtRp1642
(dp1643
g74
(dp1644
g82
I5
ssg83
g1638
sg76
(lp1645
S'html'
p1646
asbasbasbag69
(g85
g71
NtRp1647
(dp1648
g74
(dp1649
sg83
g79
sg76
(lp1650
g69
(g90
g71
NtRp1651
(dp1652
g74
(dp1653
g94
g95
ssg83
g1647
sg76
(lp1654
S'folder'
p1655
asbag69
(g90
g71
NtRp1656
(dp1657
g74
(dp1658
g101
g102
ssg83
g1647
sg76
(lp1659
S':'
asbag69
(g90
g71
NtRp1660
(dp1661
g74
(dp1662
sg83
g1647
sg76
(lp1663
g69
(g70
g71
NtRp1664
(dp1665
g74
(dp1666
g82
I5
ssg83
g1660
sg76
(lp1667
S'/home/alfem/alfem/prog/telefam/server/web2py/applications/telefam/'
p1668
asbasbasbag69
(g85
g71
NtRp1669
(dp1670
g74
(dp1671
sg83
g79
sg76
(lp1672
g69
(g90
g71
NtRp1673
(dp1674
g74
(dp1675
g94
g95
ssg83
g1669
sg76
(lp1676
S'function'
p1677
asbag69
(g90
g71
NtRp1678
(dp1679
g74
(dp1680
g101
g102
ssg83
g1669
sg76
(lp1681
S':'
asbag69
(g90
g71
NtRp1682
(dp1683
g74
(dp1684
sg83
g1669
sg76
(lp1685
g69
(g70
g71
NtRp1686
(dp1687
g74
(dp1688
g82
I5
ssg83
g1682
sg76
(lp1689
S'call'
p1690
asbasbasbag69
(g85
g71
NtRp1691
(dp1692
g74
(dp1693
sg83
g79
sg76
(lp1694
g69
(g90
g71
NtRp1695
(dp1696
g74
(dp1697
g94
g95
ssg83
g1691
sg76
(lp1698
S'get_vars'
p1699
asbag69
(g90
g71
NtRp1700
(dp1701
g74
(dp1702
g101
g102
ssg83
g1691
sg76
(lp1703
S':'
asbag69
(g90
g71
NtRp1704
(dp1705
g74
(dp1706
sg83
g1691
sg76
(lp1707
g69
(g70
g71
NtRp1708
(dp1709
g74
(dp1710
g82
I5
ssg83
g1704
sg76
(lp1711
g69
(g78
g71
NtRp1712
(dp1713
g74
(dp1714
g82
I4
ssg83
Nsg76
(lp1715
g69
(g85
g71
NtRp1716
(dp1717
g74
(dp1718
sg83
g1712
sg76
(lp1719
g69
(g90
g71
NtRp1720
(dp1721
g74
(dp1722
g94
g95
ssg83
g1716
sg76
(lp1723
S'id'
p1724
asbag69
(g90
g71
NtRp1725
(dp1726
g74
(dp1727
g101
g102
ssg83
g1716
sg76
(lp1728
S':'
asbag69
(g90
g71
NtRp1729
(dp1730
g74
(dp1731
sg83
g1716
sg76
(lp1732
g69
(g70
g71
NtRp1733
(dp1734
g74
(dp1735
g82
I4
ssg83
g1729
sg76
(lp1736
S'3'
asbasbasbag69
(g85
g71
NtRp1737
(dp1738
g74
(dp1739
sg83
g1712
sg76
(lp1740
g69
(g90
g71
NtRp1741
(dp1742
g74
(dp1743
g94
g95
ssg83
g1737
sg76
(lp1744
S'key'
p1745
asbag69
(g90
g71
NtRp1746
(dp1747
g74
(dp1748
g101
g102
ssg83
g1737
sg76
(lp1749
S':'
asbag69
(g90
g71
NtRp1750
(dp1751
g74
(dp1752
sg83
g1737
sg76
(lp1753
g69
(g70
g71
NtRp1754
(dp1755
g74
(dp1756
g82
I4
ssg83
g1750
sg76
(lp1757
S'raspberry314'
p1758
asbasbasbasbasbasbasbag69
(g85
g71
NtRp1759
(dp1760
g74
(dp1761
sg83
g79
sg76
(lp1762
g69
(g90
g71
NtRp1763
(dp1764
g74
(dp1765
g94
g95
ssg83
g1759
sg76
(lp1766
S'global_settings'
p1767
asbag69
(g90
g71
NtRp1768
(dp1769
g74
(dp1770
g101
g102
ssg83
g1759
sg76
(lp1771
S':'
asbag69
(g90
g71
NtRp1772
(dp1773
g74
(dp1774
sg83
g1759
sg76
(lp1775
g69
(g70
g71
NtRp1776
(dp1777
g74
(dp1778
g82
I5
ssg83
g1772
sg76
(lp1779
g69
(g78
g71
NtRp1780
(dp1781
g74
(dp1782
g82
I4
ssg83
Nsg76
(lp1783
g69
(g85
g71
NtRp1784
(dp1785
g74
(dp1786
sg83
g1780
sg76
(lp1787
g69
(g90
g71
NtRp1788
(dp1789
g74
(dp1790
g94
g95
ssg83
g1784
sg76
(lp1791
g687
asbag69
(g90
g71
NtRp1792
(dp1793
g74
(dp1794
g101
g102
ssg83
g1784
sg76
(lp1795
S':'
asbag69
(g90
g71
NtRp1796
(dp1797
g74
(dp1798
sg83
g1784
sg76
(lp1799
g69
(g70
g71
NtRp1800
(dp1801
g74
(dp1802
g82
I4
ssg83
g1796
sg76
(lp1803
S"set(['/home/alfem/alfem/prog/telefam/server/web2py/applications/examples/', '/home/alfem/alfem/prog/telefam/server/web2py/applications/admin/', '/home/alfem/alfem/prog/telefam/server/web2py/applications/welcome/', '/home/alfem/alfem/prog/telefam/server/web2py/applications/telefam/'])"
p1804
asbasbasbag69
(g85
g71
NtRp1805
(dp1806
g74
(dp1807
sg83
g1780
sg76
(lp1808
g69
(g90
g71
NtRp1809
(dp1810
g74
(dp1811
g94
g95
ssg83
g1805
sg76
(lp1812
g709
asbag69
(g90
g71
NtRp1813
(dp1814
g74
(dp1815
g101
g102
ssg83
g1805
sg76
(lp1816
S':'
asbag69
(g90
g71
NtRp1817
(dp1818
g74
(dp1819
sg83
g1805
sg76
(lp1820
g69
(g70
g71
NtRp1821
(dp1822
g74
(dp1823
g82
I4
ssg83
g1817
sg76
(lp1824
g722
asbasbasbag69
(g85
g71
NtRp1825
(dp1826
g74
(dp1827
sg83
g1780
sg76
(lp1828
g69
(g90
g71
NtRp1829
(dp1830
g74
(dp1831
g94
g95
ssg83
g1825
sg76
(lp1832
g731
asbag69
(g90
g71
NtRp1833
(dp1834
g74
(dp1835
g101
g102
ssg83
g1825
sg76
(lp1836
S':'
asbag69
(g90
g71
NtRp1837
(dp1838
g74
(dp1839
sg83
g1825
sg76
(lp1840
g69
(g70
g71
NtRp1841
(dp1842
g74
(dp1843
g82
I4
ssg83
g1837
sg76
(lp1844
g69
(g78
g71
NtRp1845
(dp1846
g74
(dp1847
g82
I3
ssg83
Nsg76
(lp1848
sbasbasbasbag69
(g85
g71
NtRp1849
(dp1850
g74
(dp1851
sg83
g1780
sg76
(lp1852
g69
(g90
g71
NtRp1853
(dp1854
g74
(dp1855
g94
g95
ssg83
g1849
sg76
(lp1856
g756
asbag69
(g90
g71
NtRp1857
(dp1858
g74
(dp1859
g101
g102
ssg83
g1849
sg76
(lp1860
S':'
asbag69
(g90
g71
NtRp1861
(dp1862
g74
(dp1863
sg83
g1849
sg76
(lp1864
g69
(g70
g71
NtRp1865
(dp1866
g74
(dp1867
g82
I4
ssg83
g1861
sg76
(lp1868
S"<Values at 0x946c20c: {'verbose': False, 'ip': '127.0.0.1', 'shutdown_timeout': 5, 'taskbar': False, 'nocron': False, 'pid_filename': 'httpserver.pid', 'maxthreads': None, 'softcron': False, 'server_name': 'acala', 'bpython': False, 'nogui': False, 'port': 8000, 'extcron': False, 'debuglevel': 30, 'test': None, 'folder': '/home/alfem/alfem/prog/telefam/server/web2py', 'config': '', 'import_models': False, 'winservice': '', 'shell': None, 'run': '', 'log_filename': 'httpserver.log', 'args': [''], 'socket_timeout': 5, 'ssl_ca_certificate': None, 'scheduler': None, 'profiler_filename': None, 'ssl_private_key': '', 'password': '1234', 'request_queue_size': 5, 'ssl_certificate': '', 'cronjob': False, 'numthreads': None, 'quiet': False, 'interfaces': None, 'minthreads': None, 'timeout': 10, 'plain': False, 'nobanner': False}>"
p1869
asbasbasbag69
(g85
g71
NtRp1870
(dp1871
g74
(dp1872
sg83
g1780
sg76
(lp1873
g69
(g90
g71
NtRp1874
(dp1875
g74
(dp1876
g94
g95
ssg83
g1870
sg76
(lp1877
g778
asbag69
(g90
g71
NtRp1878
(dp1879
g74
(dp1880
g101
g102
ssg83
g1870
sg76
(lp1881
S':'
asbag69
(g90
g71
NtRp1882
(dp1883
g74
(dp1884
sg83
g1870
sg76
(lp1885
g69
(g70
g71
NtRp1886
(dp1887
g74
(dp1888
g82
I4
ssg83
g1882
sg76
(lp1889
S'set([])'
p1890
asbasbasbag69
(g85
g71
NtRp1891
(dp1892
g74
(dp1893
sg83
g1780
sg76
(lp1894
g69
(g90
g71
NtRp1895
(dp1896
g74
(dp1897
g94
g95
ssg83
g1891
sg76
(lp1898
g800
asbag69
(g90
g71
NtRp1899
(dp1900
g74
(dp1901
g101
g102
ssg83
g1891
sg76
(lp1902
S':'
asbag69
(g90
g71
NtRp1903
(dp1904
g74
(dp1905
sg83
g1891
sg76
(lp1906
g69
(g70
g71
NtRp1907
(dp1908
g74
(dp1909
g82
I4
ssg83
g1903
sg76
(lp1910
g112
asbasbasbag69
(g85
g71
NtRp1911
(dp1912
g74
(dp1913
sg83
g1780
sg76
(lp1914
g69
(g90
g71
NtRp1915
(dp1916
g74
(dp1917
g94
g95
ssg83
g1911
sg76
(lp1918
g821
asbag69
(g90
g71
NtRp1919
(dp1920
g74
(dp1921
g101
g102
ssg83
g1911
sg76
(lp1922
S':'
asbag69
(g90
g71
NtRp1923
(dp1924
g74
(dp1925
sg83
g1911
sg76
(lp1926
g69
(g70
g71
NtRp1927
(dp1928
g74
(dp1929
g82
I4
ssg83
g1923
sg76
(lp1930
g834
asbasbasbag69
(g85
g71
NtRp1931
(dp1932
g74
(dp1933
sg83
g1780
sg76
(lp1934
g69
(g90
g71
NtRp1935
(dp1936
g74
(dp1937
g94
g95
ssg83
g1931
sg76
(lp1938
g1041
asbag69
(g90
g71
NtRp1939
(dp1940
g74
(dp1941
g101
g102
ssg83
g1931
sg76
(lp1942
S':'
asbag69
(g90
g71
NtRp1943
(dp1944
g74
(dp1945
sg83
g1931
sg76
(lp1946
g69
(g70
g71
NtRp1947
(dp1948
g74
(dp1949
g82
I4
ssg83
g1943
sg76
(lp1950
g112
asbasbasbag69
(g85
g71
NtRp1951
(dp1952
g74
(dp1953
sg83
g1780
sg76
(lp1954
g69
(g90
g71
NtRp1955
(dp1956
g74
(dp1957
g94
g95
ssg83
g1951
sg76
(lp1958
g1062
asbag69
(g90
g71
NtRp1959
(dp1960
g74
(dp1961
g101
g102
ssg83
g1951
sg76
(lp1962
S':'
asbag69
(g90
g71
NtRp1963
(dp1964
g74
(dp1965
sg83
g1951
sg76
(lp1966
g69
(g70
g71
NtRp1967
(dp1968
g74
(dp1969
g82
I4
ssg83
g1963
sg76
(lp1970
g112
asbasbasbag69
(g85
g71
NtRp1971
(dp1972
g74
(dp1973
sg83
g1780
sg76
(lp1974
g69
(g90
g71
NtRp1975
(dp1976
g74
(dp1977
g94
g95
ssg83
g1971
sg76
(lp1978
g1301
asbag69
(g90
g71
NtRp1979
(dp1980
g74
(dp1981
g101
g102
ssg83
g1971
sg76
(lp1982
S':'
asbag69
(g90
g71
NtRp1983
(dp1984
g74
(dp1985
sg83
g1971
sg76
(lp1986
g69
(g70
g71
NtRp1987
(dp1988
g74
(dp1989
g82
I4
ssg83
g1983
sg76
(lp1990
g1314
asbasbasbag69
(g85
g71
NtRp1991
(dp1992
g74
(dp1993
sg83
g1780
sg76
(lp1994
g69
(g90
g71
NtRp1995
(dp1996
g74
(dp1997
g94
g95
ssg83
g1991
sg76
(lp1998
g1344
asbag69
(g90
g71
NtRp1999
(dp2000
g74
(dp2001
g101
g102
ssg83
g1991
sg76
(lp2002
S':'
asbag69
(g90
g71
NtRp2003
(dp2004
g74
(dp2005
sg83
g1991
sg76
(lp2006
g69
(g70
g71
NtRp2007
(dp2008
g74
(dp2009
g82
I4
ssg83
g2003
sg76
(lp2010
g69
(g78
g71
NtRp2011
(dp2012
g74
(dp2013
g82
I3
ssg83
Nsg76
(lp2014
g69
(g85
g71
NtRp2015
(dp2016
g74
(dp2017
sg83
g2011
sg76
(lp2018
g69
(g90
g71
NtRp2019
(dp2020
g74
(dp2021
sg83
g2015
sg76
(lp2022
g69
(g70
g71
NtRp2023
(dp2024
g74
(dp2025
g82
I3
ssg83
g2019
sg76
(lp2026
S'1'
asbasbasbag69
(g85
g71
NtRp2027
(dp2028
g74
(dp2029
sg83
g2011
sg76
(lp2030
g69
(g90
g71
NtRp2031
(dp2032
g74
(dp2033
sg83
g2027
sg76
(lp2034
g69
(g70
g71
NtRp2035
(dp2036
g74
(dp2037
g82
I3
ssg83
g2031
sg76
(lp2038
S'99'
p2039
asbasbasbag69
(g85
g71
NtRp2040
(dp2041
g74
(dp2042
sg83
g2011
sg76
(lp2043
g69
(g90
g71
NtRp2044
(dp2045
g74
(dp2046
sg83
g2040
sg76
(lp2047
g69
(g70
g71
NtRp2048
(dp2049
g74
(dp2050
g82
I3
ssg83
g2044
sg76
(lp2051
S'7'
asbasbasbag69
(g85
g71
NtRp2052
(dp2053
g74
(dp2054
sg83
g2011
sg76
(lp2055
g69
(g90
g71
NtRp2056
(dp2057
g74
(dp2058
sg83
g2052
sg76
(lp2059
g69
(g70
g71
NtRp2060
(dp2061
g74
(dp2062
g82
I3
ssg83
g2056
sg76
(lp2063
S'datetime.datetime(2012, 3, 4, 22, 12, 8)'
p2064
asbasbasbag69
(g85
g71
NtRp2065
(dp2066
g74
(dp2067
sg83
g2011
sg76
(lp2068
g69
(g90
g71
NtRp2069
(dp2070
g74
(dp2071
sg83
g2065
sg76
(lp2072
g69
(g70
g71
NtRp2073
(dp2074
g74
(dp2075
g82
I3
ssg83
g2069
sg76
(lp2076
g1423
asbasbasbasbasbasbasbasbasbasbasbag69
(g85
g71
NtRp2077
(dp2078
g74
(dp2079
sg83
g79
sg76
(lp2080
g69
(g90
g71
NtRp2081
(dp2082
g74
(dp2083
g94
g95
ssg83
g2077
sg76
(lp2084
S'is_https'
p2085
asbag69
(g90
g71
NtRp2086
(dp2087
g74
(dp2088
g101
g102
ssg83
g2077
sg76
(lp2089
S':'
asbag69
(g90
g71
NtRp2090
(dp2091
g74
(dp2092
sg83
g2077
sg76
(lp2093
g69
(g70
g71
NtRp2094
(dp2095
g74
(dp2096
g82
I5
ssg83
g2090
sg76
(lp2097
g112
asbasbasbag69
(g85
g71
NtRp2098
(dp2099
g74
(dp2100
sg83
g79
sg76
(lp2101
g69
(g90
g71
NtRp2102
(dp2103
g74
(dp2104
g94
g95
ssg83
g2098
sg76
(lp2105
S'is_local'
p2106
asbag69
(g90
g71
NtRp2107
(dp2108
g74
(dp2109
g101
g102
ssg83
g2098
sg76
(lp2110
S':'
asbag69
(g90
g71
NtRp2111
(dp2112
g74
(dp2113
sg83
g2098
sg76
(lp2114
g69
(g70
g71
NtRp2115
(dp2116
g74
(dp2117
g82
I5
ssg83
g2111
sg76
(lp2118
g1532
asbasbasbag69
(g85
g71
NtRp2119
(dp2120
g74
(dp2121
sg83
g79
sg76
(lp2122
g69
(g90
g71
NtRp2123
(dp2124
g74
(dp2125
g94
g95
ssg83
g2119
sg76
(lp2126
S'is_restful'
p2127
asbag69
(g90
g71
NtRp2128
(dp2129
g74
(dp2130
g101
g102
ssg83
g2119
sg76
(lp2131
S':'
asbag69
(g90
g71
NtRp2132
(dp2133
g74
(dp2134
sg83
g2119
sg76
(lp2135
g69
(g70
g71
NtRp2136
(dp2137
g74
(dp2138
g82
I5
ssg83
g2132
sg76
(lp2139
g112
asbasbasbag69
(g85
g71
NtRp2140
(dp2141
g74
(dp2142
sg83
g79
sg76
(lp2143
g69
(g90
g71
NtRp2144
(dp2145
g74
(dp2146
g94
g95
ssg83
g2140
sg76
(lp2147
S'now'
p2148
asbag69
(g90
g71
NtRp2149
(dp2150
g74
(dp2151
g101
g102
ssg83
g2140
sg76
(lp2152
S':'
asbag69
(g90
g71
NtRp2153
(dp2154
g74
(dp2155
sg83
g2140
sg76
(lp2156
g69
(g70
g71
NtRp2157
(dp2158
g74
(dp2159
g82
I5
ssg83
g2153
sg76
(lp2160
S'datetime.datetime(2012, 8, 29, 13, 55, 40, 396375)'
p2161
asbasbasbag69
(g85
g71
NtRp2162
(dp2163
g74
(dp2164
sg83
g79
sg76
(lp2165
g69
(g90
g71
NtRp2166
(dp2167
g74
(dp2168
g94
g95
ssg83
g2162
sg76
(lp2169
S'post_vars'
p2170
asbag69
(g90
g71
NtRp2171
(dp2172
g74
(dp2173
g101
g102
ssg83
g2162
sg76
(lp2174
S':'
asbag69
(g90
g71
NtRp2175
(dp2176
g74
(dp2177
sg83
g2162
sg76
(lp2178
g69
(g70
g71
NtRp2179
(dp2180
g74
(dp2181
g82
I5
ssg83
g2175
sg76
(lp2182
g69
(g78
g71
NtRp2183
(dp2184
g74
(dp2185
g82
I4
ssg83
Nsg76
(lp2186
sbasbasbasbag69
(g85
g71
NtRp2187
(dp2188
g74
(dp2189
sg83
g79
sg76
(lp2190
g69
(g90
g71
NtRp2191
(dp2192
g74
(dp2193
g94
g95
ssg83
g2187
sg76
(lp2194
S'raw_args'
p2195
asbag69
(g90
g71
NtRp2196
(dp2197
g74
(dp2198
g101
g102
ssg83
g2187
sg76
(lp2199
S':'
asbag69
(g90
g71
NtRp2200
(dp2201
g74
(dp2202
sg83
g2187
sg76
(lp2203
g69
(g70
g71
NtRp2204
(dp2205
g74
(dp2206
g82
I5
ssg83
g2200
sg76
(lp2207
S'json/get_message'
p2208
asbasbasbag69
(g85
g71
NtRp2209
(dp2210
g74
(dp2211
sg83
g79
sg76
(lp2212
g69
(g90
g71
NtRp2213
(dp2214
g74
(dp2215
g94
g95
ssg83
g2209
sg76
(lp2216
S'url'
p2217
asbag69
(g90
g71
NtRp2218
(dp2219
g74
(dp2220
g101
g102
ssg83
g2209
sg76
(lp2221
S':'
asbag69
(g90
g71
NtRp2222
(dp2223
g74
(dp2224
sg83
g2209
sg76
(lp2225
g69
(g70
g71
NtRp2226
(dp2227
g74
(dp2228
g82
I5
ssg83
g2222
sg76
(lp2229
S'/telefam/api/call/json/get_message'
p2230
asbasbasbag69
(g85
g71
NtRp2231
(dp2232
g74
(dp2233
sg83
g79
sg76
(lp2234
g69
(g90
g71
NtRp2235
(dp2236
g74
(dp2237
g94
g95
ssg83
g2231
sg76
(lp2238
S'utcnow'
p2239
asbag69
(g90
g71
NtRp2240
(dp2241
g74
(dp2242
g101
g102
ssg83
g2231
sg76
(lp2243
S':'
asbag69
(g90
g71
NtRp2244
(dp2245
g74
(dp2246
sg83
g2231
sg76
(lp2247
g69
(g70
g71
NtRp2248
(dp2249
g74
(dp2250
g82
I5
ssg83
g2244
sg76
(lp2251
S'datetime.datetime(2012, 8, 29, 11, 55, 40, 396424)'
p2252
asbasbasbag69
(g85
g71
NtRp2253
(dp2254
g74
(dp2255
sg83
g79
sg76
(lp2256
g69
(g90
g71
NtRp2257
(dp2258
g74
(dp2259
g94
g95
ssg83
g2253
sg76
(lp2260
S'uuid'
p2261
asbag69
(g90
g71
NtRp2262
(dp2263
g74
(dp2264
g101
g102
ssg83
g2253
sg76
(lp2265
S':'
asbag69
(g90
g71
NtRp2266
(dp2267
g74
(dp2268
sg83
g2253
sg76
(lp2269
g69
(g70
g71
NtRp2270
(dp2271
g74
(dp2272
g82
I5
ssg83
g2266
sg76
(lp2273
S'telefam/127.0.0.1.2012-08-29.13-55-40.3a33e7b2-60fe-4b21-b4f0-584535d6bc32'
p2274
asbasbasbag69
(g85
g71
NtRp2275
(dp2276
g74
(dp2277
sg83
g79
sg76
(lp2278
g69
(g90
g71
NtRp2279
(dp2280
g74
(dp2281
g94
g95
ssg83
g2275
sg76
(lp2282
S'vars'
p2283
asbag69
(g90
g71
NtRp2284
(dp2285
g74
(dp2286
g101
g102
ssg83
g2275
sg76
(lp2287
S':'
asbag69
(g90
g71
NtRp2288
(dp2289
g74
(dp2290
sg83
g2275
sg76
(lp2291
g69
(g70
g71
NtRp2292
(dp2293
g74
(dp2294
g82
I5
ssg83
g2288
sg76
(lp2295
g69
(g78
g71
NtRp2296
(dp2297
g74
(dp2298
g82
I4
ssg83
Nsg76
(lp2299
g69
(g85
g71
NtRp2300
(dp2301
g74
(dp2302
sg83
g2296
sg76
(lp2303
g69
(g90
g71
NtRp2304
(dp2305
g74
(dp2306
g94
g95
ssg83
g2300
sg76
(lp2307
g1724
asbag69
(g90
g71
NtRp2308
(dp2309
g74
(dp2310
g101
g102
ssg83
g2300
sg76
(lp2311
S':'
asbag69
(g90
g71
NtRp2312
(dp2313
g74
(dp2314
sg83
g2300
sg76
(lp2315
g69
(g70
g71
NtRp2316
(dp2317
g74
(dp2318
g82
I4
ssg83
g2312
sg76
(lp2319
S'3'
asbasbasbag69
(g85
g71
NtRp2320
(dp2321
g74
(dp2322
sg83
g2296
sg76
(lp2323
g69
(g90
g71
NtRp2324
(dp2325
g74
(dp2326
g94
g95
ssg83
g2320
sg76
(lp2327
g1745
asbag69
(g90
g71
NtRp2328
(dp2329
g74
(dp2330
g101
g102
ssg83
g2320
sg76
(lp2331
S':'
asbag69
(g90
g71
NtRp2332
(dp2333
g74
(dp2334
sg83
g2320
sg76
(lp2335
g69
(g70
g71
NtRp2336
(dp2337
g74
(dp2338
g82
I4
ssg83
g2332
sg76
(lp2339
g1758
asbasbasbasbasbasbasbag69
(g85
g71
NtRp2340
(dp2341
g74
(dp2342
sg83
g79
sg76
(lp2343
g69
(g90
g71
NtRp2344
(dp2345
g74
(dp2346
g94
g95
ssg83
g2340
sg76
(lp2347
S'wsgi'
p2348
asbag69
(g90
g71
NtRp2349
(dp2350
g74
(dp2351
g101
g102
ssg83
g2340
sg76
(lp2352
S':'
asbag69
(g90
g71
NtRp2353
(dp2354
g74
(dp2355
sg83
g2340
sg76
(lp2356
g69
(g70
g71
NtRp2357
(dp2358
g74
(dp2359
g82
I5
ssg83
g2353
sg76
(lp2360
g69
(g78
g71
NtRp2361
(dp2362
g74
(dp2363
g82
I4
ssg83
Nsg76
(lp2364
g69
(g85
g71
NtRp2365
(dp2366
g74
(dp2367
sg83
g2361
sg76
(lp2368
g69
(g90
g71
NtRp2369
(dp2370
g74
(dp2371
g94
g95
ssg83
g2365
sg76
(lp2372
S'environ'
p2373
asbag69
(g90
g71
NtRp2374
(dp2375
g74
(dp2376
g101
g102
ssg83
g2365
sg76
(lp2377
S':'
asbag69
(g90
g71
NtRp2378
(dp2379
g74
(dp2380
sg83
g2365
sg76
(lp2381
g69
(g70
g71
NtRp2382
(dp2383
g74
(dp2384
g82
I4
ssg83
g2378
sg76
(lp2385
g69
(g78
g71
NtRp2386
(dp2387
g74
(dp2388
g82
I3
ssg83
Nsg76
(lp2389
g69
(g85
g71
NtRp2390
(dp2391
g74
(dp2392
sg83
g2386
sg76
(lp2393
g69
(g90
g71
NtRp2394
(dp2395
g74
(dp2396
g94
g95
ssg83
g2390
sg76
(lp2397
S'HTTP_ACCEPT'
p2398
asbag69
(g90
g71
NtRp2399
(dp2400
g74
(dp2401
g101
g102
ssg83
g2390
sg76
(lp2402
S':'
asbag69
(g90
g71
NtRp2403
(dp2404
g74
(dp2405
sg83
g2390
sg76
(lp2406
g69
(g70
g71
NtRp2407
(dp2408
g74
(dp2409
g82
I3
ssg83
g2403
sg76
(lp2410
g856
asbasbasbag69
(g85
g71
NtRp2411
(dp2412
g74
(dp2413
sg83
g2386
sg76
(lp2414
g69
(g90
g71
NtRp2415
(dp2416
g74
(dp2417
g94
g95
ssg83
g2411
sg76
(lp2418
S'HTTP_ACCEPT_CHARSET'
p2419
asbag69
(g90
g71
NtRp2420
(dp2421
g74
(dp2422
g101
g102
ssg83
g2411
sg76
(lp2423
S':'
asbag69
(g90
g71
NtRp2424
(dp2425
g74
(dp2426
sg83
g2411
sg76
(lp2427
g69
(g70
g71
NtRp2428
(dp2429
g74
(dp2430
g82
I3
ssg83
g2424
sg76
(lp2431
g878
asbasbasbag69
(g85
g71
NtRp2432
(dp2433
g74
(dp2434
sg83
g2386
sg76
(lp2435
g69
(g90
g71
NtRp2436
(dp2437
g74
(dp2438
g94
g95
ssg83
g2432
sg76
(lp2439
S'HTTP_ACCEPT_ENCODING'
p2440
asbag69
(g90
g71
NtRp2441
(dp2442
g74
(dp2443
g101
g102
ssg83
g2432
sg76
(lp2444
S':'
asbag69
(g90
g71
NtRp2445
(dp2446
g74
(dp2447
sg83
g2432
sg76
(lp2448
g69
(g70
g71
NtRp2449
(dp2450
g74
(dp2451
g82
I3
ssg83
g2445
sg76
(lp2452
g900
asbasbasbag69
(g85
g71
NtRp2453
(dp2454
g74
(dp2455
sg83
g2386
sg76
(lp2456
g69
(g90
g71
NtRp2457
(dp2458
g74
(dp2459
g94
g95
ssg83
g2453
sg76
(lp2460
S'HTTP_ACCEPT_LANGUAGE'
p2461
asbag69
(g90
g71
NtRp2462
(dp2463
g74
(dp2464
g101
g102
ssg83
g2453
sg76
(lp2465
S':'
asbag69
(g90
g71
NtRp2466
(dp2467
g74
(dp2468
sg83
g2453
sg76
(lp2469
g69
(g70
g71
NtRp2470
(dp2471
g74
(dp2472
g82
I3
ssg83
g2466
sg76
(lp2473
g922
asbasbasbag69
(g85
g71
NtRp2474
(dp2475
g74
(dp2476
sg83
g2386
sg76
(lp2477
g69
(g90
g71
NtRp2478
(dp2479
g74
(dp2480
g94
g95
ssg83
g2474
sg76
(lp2481
S'HTTP_CACHE_CONTROL'
p2482
asbag69
(g90
g71
NtRp2483
(dp2484
g74
(dp2485
g101
g102
ssg83
g2474
sg76
(lp2486
S':'
asbag69
(g90
g71
NtRp2487
(dp2488
g74
(dp2489
sg83
g2474
sg76
(lp2490
g69
(g70
g71
NtRp2491
(dp2492
g74
(dp2493
g82
I3
ssg83
g2487
sg76
(lp2494
g944
asbasbasbag69
(g85
g71
NtRp2495
(dp2496
g74
(dp2497
sg83
g2386
sg76
(lp2498
g69
(g90
g71
NtRp2499
(dp2500
g74
(dp2501
g94
g95
ssg83
g2495
sg76
(lp2502
S'HTTP_CONNECTION'
p2503
asbag69
(g90
g71
NtRp2504
(dp2505
g74
(dp2506
g101
g102
ssg83
g2495
sg76
(lp2507
S':'
asbag69
(g90
g71
NtRp2508
(dp2509
g74
(dp2510
sg83
g2495
sg76
(lp2511
g69
(g70
g71
NtRp2512
(dp2513
g74
(dp2514
g82
I3
ssg83
g2508
sg76
(lp2515
g966
asbasbasbag69
(g85
g71
NtRp2516
(dp2517
g74
(dp2518
sg83
g2386
sg76
(lp2519
g69
(g90
g71
NtRp2520
(dp2521
g74
(dp2522
g94
g95
ssg83
g2516
sg76
(lp2523
S'HTTP_COOKIE'
p2524
asbag69
(g90
g71
NtRp2525
(dp2526
g74
(dp2527
g101
g102
ssg83
g2516
sg76
(lp2528
S':'
asbag69
(g90
g71
NtRp2529
(dp2530
g74
(dp2531
sg83
g2516
sg76
(lp2532
g69
(g70
g71
NtRp2533
(dp2534
g74
(dp2535
g82
I3
ssg83
g2529
sg76
(lp2536
g988
asbasbasbag69
(g85
g71
NtRp2537
(dp2538
g74
(dp2539
sg83
g2386
sg76
(lp2540
g69
(g90
g71
NtRp2541
(dp2542
g74
(dp2543
g94
g95
ssg83
g2537
sg76
(lp2544
S'HTTP_HOST'
p2545
asbag69
(g90
g71
NtRp2546
(dp2547
g74
(dp2548
g101
g102
ssg83
g2537
sg76
(lp2549
S':'
asbag69
(g90
g71
NtRp2550
(dp2551
g74
(dp2552
sg83
g2537
sg76
(lp2553
g69
(g70
g71
NtRp2554
(dp2555
g74
(dp2556
g82
I3
ssg83
g2550
sg76
(lp2557
g1010
asbasbasbag69
(g85
g71
NtRp2558
(dp2559
g74
(dp2560
sg83
g2386
sg76
(lp2561
g69
(g90
g71
NtRp2562
(dp2563
g74
(dp2564
g94
g95
ssg83
g2558
sg76
(lp2565
S'HTTP_USER_AGENT'
p2566
asbag69
(g90
g71
NtRp2567
(dp2568
g74
(dp2569
g101
g102
ssg83
g2558
sg76
(lp2570
S':'
asbag69
(g90
g71
NtRp2571
(dp2572
g74
(dp2573
sg83
g2558
sg76
(lp2574
g69
(g70
g71
NtRp2575
(dp2576
g74
(dp2577
g82
I3
ssg83
g2571
sg76
(lp2578
g1032
asbasbasbag69
(g85
g71
NtRp2579
(dp2580
g74
(dp2581
sg83
g2386
sg76
(lp2582
g69
(g90
g71
NtRp2583
(dp2584
g74
(dp2585
g94
g95
ssg83
g2579
sg76
(lp2586
S'PATH_INFO'
p2587
asbag69
(g90
g71
NtRp2588
(dp2589
g74
(dp2590
g101
g102
ssg83
g2579
sg76
(lp2591
S':'
asbag69
(g90
g71
NtRp2592
(dp2593
g74
(dp2594
sg83
g2579
sg76
(lp2595
g69
(g70
g71
NtRp2596
(dp2597
g74
(dp2598
g82
I3
ssg83
g2592
sg76
(lp2599
g1096
asbasbasbag69
(g85
g71
NtRp2600
(dp2601
g74
(dp2602
sg83
g2386
sg76
(lp2603
g69
(g90
g71
NtRp2604
(dp2605
g74
(dp2606
g94
g95
ssg83
g2600
sg76
(lp2607
S'QUERY_STRING'
p2608
asbag69
(g90
g71
NtRp2609
(dp2610
g74
(dp2611
g101
g102
ssg83
g2600
sg76
(lp2612
S':'
asbag69
(g90
g71
NtRp2613
(dp2614
g74
(dp2615
sg83
g2600
sg76
(lp2616
g69
(g70
g71
NtRp2617
(dp2618
g74
(dp2619
g82
I3
ssg83
g2613
sg76
(lp2620
g1118
asbasbasbag69
(g85
g71
NtRp2621
(dp2622
g74
(dp2623
sg83
g2386
sg76
(lp2624
g69
(g90
g71
NtRp2625
(dp2626
g74
(dp2627
g94
g95
ssg83
g2621
sg76
(lp2628
S'REMOTE_ADDR'
p2629
asbag69
(g90
g71
NtRp2630
(dp2631
g74
(dp2632
g101
g102
ssg83
g2621
sg76
(lp2633
S':'
asbag69
(g90
g71
NtRp2634
(dp2635
g74
(dp2636
sg83
g2621
sg76
(lp2637
g69
(g70
g71
NtRp2638
(dp2639
g74
(dp2640
g82
I3
ssg83
g2634
sg76
(lp2641
g228
asbasbasbag69
(g85
g71
NtRp2642
(dp2643
g74
(dp2644
sg83
g2386
sg76
(lp2645
g69
(g90
g71
NtRp2646
(dp2647
g74
(dp2648
g94
g95
ssg83
g2642
sg76
(lp2649
S'REMOTE_PORT'
p2650
asbag69
(g90
g71
NtRp2651
(dp2652
g74
(dp2653
g101
g102
ssg83
g2642
sg76
(lp2654
S':'
asbag69
(g90
g71
NtRp2655
(dp2656
g74
(dp2657
sg83
g2642
sg76
(lp2658
g69
(g70
g71
NtRp2659
(dp2660
g74
(dp2661
g82
I3
ssg83
g2655
sg76
(lp2662
g1161
asbasbasbag69
(g85
g71
NtRp2663
(dp2664
g74
(dp2665
sg83
g2386
sg76
(lp2666
g69
(g90
g71
NtRp2667
(dp2668
g74
(dp2669
g94
g95
ssg83
g2663
sg76
(lp2670
S'REQUEST_METHOD'
p2671
asbag69
(g90
g71
NtRp2672
(dp2673
g74
(dp2674
g101
g102
ssg83
g2663
sg76
(lp2675
S':'
asbag69
(g90
g71
NtRp2676
(dp2677
g74
(dp2678
sg83
g2663
sg76
(lp2679
g69
(g70
g71
NtRp2680
(dp2681
g74
(dp2682
g82
I3
ssg83
g2676
sg76
(lp2683
g1183
asbasbasbag69
(g85
g71
NtRp2684
(dp2685
g74
(dp2686
sg83
g2386
sg76
(lp2687
g69
(g90
g71
NtRp2688
(dp2689
g74
(dp2690
g94
g95
ssg83
g2684
sg76
(lp2691
S'SCRIPT_NAME'
p2692
asbag69
(g90
g71
NtRp2693
(dp2694
g74
(dp2695
g101
g102
ssg83
g2684
sg76
(lp2696
S':'
asbag69
(g90
g71
NtRp2697
(dp2698
g74
(dp2699
sg83
g2684
sg76
(lp2700
g69
(g70
g71
NtRp2701
(dp2702
g74
(dp2703
g82
I3
ssg83
g2697
sg76
(lp2704
S''
asbasbasbag69
(g85
g71
NtRp2705
(dp2706
g74
(dp2707
sg83
g2386
sg76
(lp2708
g69
(g90
g71
NtRp2709
(dp2710
g74
(dp2711
g94
g95
ssg83
g2705
sg76
(lp2712
S'SERVER_NAME'
p2713
asbag69
(g90
g71
NtRp2714
(dp2715
g74
(dp2716
g101
g102
ssg83
g2705
sg76
(lp2717
S':'
asbag69
(g90
g71
NtRp2718
(dp2719
g74
(dp2720
sg83
g2705
sg76
(lp2721
g69
(g70
g71
NtRp2722
(dp2723
g74
(dp2724
g82
I3
ssg83
g2718
sg76
(lp2725
g1226
asbasbasbag69
(g85
g71
NtRp2726
(dp2727
g74
(dp2728
sg83
g2386
sg76
(lp2729
g69
(g90
g71
NtRp2730
(dp2731
g74
(dp2732
g94
g95
ssg83
g2726
sg76
(lp2733
S'SERVER_PORT'
p2734
asbag69
(g90
g71
NtRp2735
(dp2736
g74
(dp2737
g101
g102
ssg83
g2726
sg76
(lp2738
S':'
asbag69
(g90
g71
NtRp2739
(dp2740
g74
(dp2741
sg83
g2726
sg76
(lp2742
g69
(g70
g71
NtRp2743
(dp2744
g74
(dp2745
g82
I3
ssg83
g2739
sg76
(lp2746
g1248
asbasbasbag69
(g85
g71
NtRp2747
(dp2748
g74
(dp2749
sg83
g2386
sg76
(lp2750
g69
(g90
g71
NtRp2751
(dp2752
g74
(dp2753
g94
g95
ssg83
g2747
sg76
(lp2754
S'SERVER_PROTOCOL'
p2755
asbag69
(g90
g71
NtRp2756
(dp2757
g74
(dp2758
g101
g102
ssg83
g2747
sg76
(lp2759
S':'
asbag69
(g90
g71
NtRp2760
(dp2761
g74
(dp2762
sg83
g2747
sg76
(lp2763
g69
(g70
g71
NtRp2764
(dp2765
g74
(dp2766
g82
I3
ssg83
g2760
sg76
(lp2767
g1270
asbasbasbag69
(g85
g71
NtRp2768
(dp2769
g74
(dp2770
sg83
g2386
sg76
(lp2771
g69
(g90
g71
NtRp2772
(dp2773
g74
(dp2774
g94
g95
ssg83
g2768
sg76
(lp2775
S'SERVER_SOFTWARE'
p2776
asbag69
(g90
g71
NtRp2777
(dp2778
g74
(dp2779
g101
g102
ssg83
g2768
sg76
(lp2780
S':'
asbag69
(g90
g71
NtRp2781
(dp2782
g74
(dp2783
sg83
g2768
sg76
(lp2784
g69
(g70
g71
NtRp2785
(dp2786
g74
(dp2787
g82
I3
ssg83
g2781
sg76
(lp2788
g1292
asbasbasbag69
(g85
g71
NtRp2789
(dp2790
g74
(dp2791
sg83
g2386
sg76
(lp2792
g69
(g90
g71
NtRp2793
(dp2794
g74
(dp2795
g94
g95
ssg83
g2789
sg76
(lp2796
S'wsgi.errors'
p2797
asbag69
(g90
g71
NtRp2798
(dp2799
g74
(dp2800
g101
g102
ssg83
g2789
sg76
(lp2801
S':'
asbag69
(g90
g71
NtRp2802
(dp2803
g74
(dp2804
sg83
g2789
sg76
(lp2805
g69
(g70
g71
NtRp2806
(dp2807
g74
(dp2808
g82
I3
ssg83
g2802
sg76
(lp2809
S"<open file '<stderr>', mode 'w' at 0xb770a0d0>"
p2810
asbasbasbag69
(g85
g71
NtRp2811
(dp2812
g74
(dp2813
sg83
g2386
sg76
(lp2814
g69
(g90
g71
NtRp2815
(dp2816
g74
(dp2817
g94
g95
ssg83
g2811
sg76
(lp2818
S'wsgi.file_wrapper'
p2819
asbag69
(g90
g71
NtRp2820
(dp2821
g74
(dp2822
g101
g102
ssg83
g2811
sg76
(lp2823
S':'
asbag69
(g90
g71
NtRp2824
(dp2825
g74
(dp2826
sg83
g2811
sg76
(lp2827
g69
(g70
g71
NtRp2828
(dp2829
g74
(dp2830
g82
I3
ssg83
g2824
sg76
(lp2831
S'<class wsgiref.util.FileWrapper at 0x943be6c>'
p2832
asbasbasbag69
(g85
g71
NtRp2833
(dp2834
g74
(dp2835
sg83
g2386
sg76
(lp2836
g69
(g90
g71
NtRp2837
(dp2838
g74
(dp2839
g94
g95
ssg83
g2833
sg76
(lp2840
S'wsgi.input'
p2841
asbag69
(g90
g71
NtRp2842
(dp2843
g74
(dp2844
g101
g102
ssg83
g2833
sg76
(lp2845
S':'
asbag69
(g90
g71
NtRp2846
(dp2847
g74
(dp2848
sg83
g2833
sg76
(lp2849
g69
(g70
g71
NtRp2850
(dp2851
g74
(dp2852
g82
I3
ssg83
g2846
sg76
(lp2853
S'<cStringIO.StringO object at 0x98c0ca0>'
p2854
asbasbasbag69
(g85
g71
NtRp2855
(dp2856
g74
(dp2857
sg83
g2386
sg76
(lp2858
g69
(g90
g71
NtRp2859
(dp2860
g74
(dp2861
g94
g95
ssg83
g2855
sg76
(lp2862
S'wsgi.multiprocess'
p2863
asbag69
(g90
g71
NtRp2864
(dp2865
g74
(dp2866
g101
g102
ssg83
g2855
sg76
(lp2867
S':'
asbag69
(g90
g71
NtRp2868
(dp2869
g74
(dp2870
sg83
g2855
sg76
(lp2871
g69
(g70
g71
NtRp2872
(dp2873
g74
(dp2874
g82
I3
ssg83
g2868
sg76
(lp2875
g112
asbasbasbag69
(g85
g71
NtRp2876
(dp2877
g74
(dp2878
sg83
g2386
sg76
(lp2879
g69
(g90
g71
NtRp2880
(dp2881
g74
(dp2882
g94
g95
ssg83
g2876
sg76
(lp2883
S'wsgi.multithread'
p2884
asbag69
(g90
g71
NtRp2885
(dp2886
g74
(dp2887
g101
g102
ssg83
g2876
sg76
(lp2888
S':'
asbag69
(g90
g71
NtRp2889
(dp2890
g74
(dp2891
sg83
g2876
sg76
(lp2892
g69
(g70
g71
NtRp2893
(dp2894
g74
(dp2895
g82
I3
ssg83
g2889
sg76
(lp2896
g1532
asbasbasbag69
(g85
g71
NtRp2897
(dp2898
g74
(dp2899
sg83
g2386
sg76
(lp2900
g69
(g90
g71
NtRp2901
(dp2902
g74
(dp2903
g94
g95
ssg83
g2897
sg76
(lp2904
S'wsgi.run_once'
p2905
asbag69
(g90
g71
NtRp2906
(dp2907
g74
(dp2908
g101
g102
ssg83
g2897
sg76
(lp2909
S':'
asbag69
(g90
g71
NtRp2910
(dp2911
g74
(dp2912
sg83
g2897
sg76
(lp2913
g69
(g70
g71
NtRp2914
(dp2915
g74
(dp2916
g82
I3
ssg83
g2910
sg76
(lp2917
g112
asbasbasbag69
(g85
g71
NtRp2918
(dp2919
g74
(dp2920
sg83
g2386
sg76
(lp2921
g69
(g90
g71
NtRp2922
(dp2923
g74
(dp2924
g94
g95
ssg83
g2918
sg76
(lp2925
S'wsgi.url_scheme'
p2926
asbag69
(g90
g71
NtRp2927
(dp2928
g74
(dp2929
g101
g102
ssg83
g2918
sg76
(lp2930
S':'
asbag69
(g90
g71
NtRp2931
(dp2932
g74
(dp2933
sg83
g2918
sg76
(lp2934
g69
(g70
g71
NtRp2935
(dp2936
g74
(dp2937
g82
I3
ssg83
g2931
sg76
(lp2938
g1575
asbasbasbag69
(g85
g71
NtRp2939
(dp2940
g74
(dp2941
sg83
g2386
sg76
(lp2942
g69
(g90
g71
NtRp2943
(dp2944
g74
(dp2945
g94
g95
ssg83
g2939
sg76
(lp2946
S'wsgi.version'
p2947
asbag69
(g90
g71
NtRp2948
(dp2949
g74
(dp2950
g101
g102
ssg83
g2939
sg76
(lp2951
S':'
asbag69
(g90
g71
NtRp2952
(dp2953
g74
(dp2954
sg83
g2939
sg76
(lp2955
g69
(g70
g71
NtRp2956
(dp2957
g74
(dp2958
g82
I3
ssg83
g2952
sg76
(lp2959
S'1'
asbasbasbasbasbasbasbasbasbasbasbasbasbsS'frames'
p2960
(lp2961
(dp2962
S'file'
p2963
S'/home/alfem/alfem/prog/telefam/server/web2py/gluon/restricted.py'
p2964
sS'dump'
p2965
(dp2966
S'code'
p2967
S"'# coding: utf8\\n\\nimport datetime\\n\\ndef call():\\n   ...age_dict\\n\\n\\nresponse._vars=response._caller(call)\\n'"
p2968
sS'layer'
p2969
S"'/home/alfem/alfem/prog/telefam/server/web2py/applications/telefam/controllers/api.py'"
p2970
sS'global compile2'
p2971
S'<function compile2>'
p2972
sS'ccode'
p2973
S'undefined'
p2974
ssS'lnum'
p2975
I204
sS'lines'
p2976
(dp2977
I199
S"    environment['__name__'] = '__restricted__'"
p2978
sI200
S'    try:'
p2979
sI201
S'        if type(code) == types.CodeType:'
p2980
sI202
S'            ccode = code'
p2981
sI203
S'        else:'
p2982
sI204
S'            ccode = compile2(code,layer)'
p2983
sI205
S'        exec ccode in environment'
p2984
sI206
S'    except HTTP:'
p2985
sI207
S'        raise'
p2986
sI208
S'    except RestrictedError:'
p2987
ssS'call'
p2988
S"(code='# coding: utf8\\n\\nimport datetime\\n\\ndef call():\\n   ...age_dict\\n\\n\\nresponse._vars=response._caller(call)\\n', environment={'A': <class 'gluon.html.A'>, 'Auth': <class 'gluon.tools.Auth'>, 'B': <class 'gluon.html.B'>, 'BEAUTIFY': <class 'gluon.html.BEAUTIFY'>, 'BODY': <class 'gluon.html.BODY'>, 'BR': <class 'gluon.html.BR'>, 'BUTTON': <class 'gluon.html.BUTTON'>, 'CAT': <class 'gluon.html.CAT'>, 'CENTER': <class 'gluon.html.CENTER'>, 'CLEANUP': <class 'gluon.validators.CLEANUP'>, ...}, layer='/home/alfem/alfem/prog/telefam/server/web2py/applications/telefam/controllers/api.py')"
p2989
sS'func'
p2990
S'restricted'
p2991
sa(dp2992
g2963
S'/home/alfem/alfem/prog/telefam/server/web2py/gluon/restricted.py'
p2993
sg2965
(dp2994
S'builtincompile'
p2995
S'<built-in function compile>'
p2996
sS'code'
p2997
S"'# coding: utf8\\n\\nimport datetime\\n\\ndef call():\\n   ...age_dict\\n\\n\\nresponse._vars=response._caller(call)\\n'"
p2998
sS'code.rstrip'
p2999
S'<built-in method rstrip of str object>'
p3000
sS').replace'
p3001
g2974
sS'layer'
p3002
S"'/home/alfem/alfem/prog/telefam/server/web2py/applications/telefam/controllers/api.py'"
p3003
ssg2975
I189
sg2976
(dp3004
I192
S'    """'
p3005
sI193
S'    runs code in environment and returns the output. if an exception occurs'
p3006
sI184
S''
sI185
S'def compile2(code,layer):'
p3007
sI186
S'    """'
p3008
sI187
S"    The +'\\n' is necessary else compile fails when code ends in a comment."
p3009
sI188
S'    """'
p3010
sI189
S"    return compile(code.rstrip().replace('\\r\\n','\\n')+'\\n', layer, 'exec')"
p3011
sI190
S''
sI191
S"def restricted(code, environment=None, layer='Unknown'):"
p3012
ssg2988
S"(code='# coding: utf8\\n\\nimport datetime\\n\\ndef call():\\n   ...age_dict\\n\\n\\nresponse._vars=response._caller(call)\\n', layer='/home/alfem/alfem/prog/telefam/server/web2py/applications/telefam/controllers/api.py')"
p3013
sg2990
S'compile2'
p3014
sasS'pyver'
p3015
S'Python 2.7.2+: /usr/bin/python'
p3016
sS'session'
p3017
g69
(g70
g71
NtRp3018
(dp3019
g74
(dp3020
sg76
(lp3021
g69
(g78
g71
NtRp3022
(dp3023
g74
(dp3024
g82
I5
ssg83
Nsg76
(lp3025
g69
(g85
g71
NtRp3026
(dp3027
g74
(dp3028
sg83
g3022
sg76
(lp3029
g69
(g90
g71
NtRp3030
(dp3031
g74
(dp3032
g94
g95
ssg83
g3026
sg76
(lp3033
S'telefam_description'
p3034
asbag69
(g90
g71
NtRp3035
(dp3036
g74
(dp3037
g101
g102
ssg83
g3026
sg76
(lp3038
S':'
asbag69
(g90
g71
NtRp3039
(dp3040
g74
(dp3041
sg83
g3026
sg76
(lp3042
g69
(g70
g71
NtRp3043
(dp3044
g74
(dp3045
g82
I5
ssg83
g3039
sg76
(lp3046
S'Telefam de Pepi'
p3047
asbasbasbag69
(g85
g71
NtRp3048
(dp3049
g74
(dp3050
sg83
g3022
sg76
(lp3051
g69
(g90
g71
NtRp3052
(dp3053
g74
(dp3054
g94
g95
ssg83
g3048
sg76
(lp3055
S'telefam_id'
p3056
asbag69
(g90
g71
NtRp3057
(dp3058
g74
(dp3059
g101
g102
ssg83
g3048
sg76
(lp3060
S':'
asbag69
(g90
g71
NtRp3061
(dp3062
g74
(dp3063
sg83
g3048
sg76
(lp3064
g69
(g70
g71
NtRp3065
(dp3066
g74
(dp3067
g82
I5
ssg83
g3061
sg76
(lp3068
S'1'
asbasbasbasbasbsS'etype'
p3069
S"<type 'exceptions.SyntaxError'>"
p3070
sS'date'
p3071
S'Wed Aug 29 13:55:40 2012'
p3072
sS'response'
p3073
g69
(g70
g71
NtRp3074
(dp3075
g74
(dp3076
sg76
(lp3077
g69
(g78
g71
NtRp3078
(dp3079
g74
(dp3080
g82
I5
ssg83
Nsg76
(lp3081
g69
(g85
g71
NtRp3082
(dp3083
g74
(dp3084
sg83
g3078
sg76
(lp3085
g69
(g90
g71
NtRp3086
(dp3087
g74
(dp3088
g94
g95
ssg83
g3082
sg76
(lp3089
g193
asbag69
(g90
g71
NtRp3090
(dp3091
g74
(dp3092
g101
g102
ssg83
g3082
sg76
(lp3093
S':'
asbag69
(g90
g71
NtRp3094
(dp3095
g74
(dp3096
sg83
g3082
sg76
(lp3097
g69
(g70
g71
NtRp3098
(dp3099
g74
(dp3100
g82
I5
ssg83
g3094
sg76
(lp3101
S'<cStringIO.StringO object at 0x98c01c0>'
p3102
asbasbasbag69
(g85
g71
NtRp3103
(dp3104
g74
(dp3105
sg83
g3078
sg76
(lp3106
g69
(g90
g71
NtRp3107
(dp3108
g74
(dp3109
g94
g95
ssg83
g3103
sg76
(lp3110
g259
asbag69
(g90
g71
NtRp3111
(dp3112
g74
(dp3113
g101
g102
ssg83
g3103
sg76
(lp3114
S':'
asbag69
(g90
g71
NtRp3115
(dp3116
g74
(dp3117
sg83
g3103
sg76
(lp3118
g69
(g70
g71
NtRp3119
(dp3120
g74
(dp3121
g82
I5
ssg83
g3115
sg76
(lp3122
g69
(g78
g71
NtRp3123
(dp3124
g74
(dp3125
g82
I4
ssg83
Nsg76
(lp3126
g69
(g85
g71
NtRp3127
(dp3128
g74
(dp3129
sg83
g3123
sg76
(lp3130
g69
(g90
g71
NtRp3131
(dp3132
g74
(dp3133
g94
g95
ssg83
g3127
sg76
(lp3134
S'session_id_telefam'
p3135
asbag69
(g90
g71
NtRp3136
(dp3137
g74
(dp3138
g101
g102
ssg83
g3127
sg76
(lp3139
S':'
asbag69
(g90
g71
NtRp3140
(dp3141
g74
(dp3142
sg83
g3127
sg76
(lp3143
g69
(g70
g71
NtRp3144
(dp3145
g74
(dp3146
g82
I4
ssg83
g3140
sg76
(lp3147
g69
(g78
g71
NtRp3148
(dp3149
g74
(dp3150
g82
I3
ssg83
Nsg76
(lp3151
g69
(g85
g71
NtRp3152
(dp3153
g74
(dp3154
sg83
g3148
sg76
(lp3155
g69
(g90
g71
NtRp3156
(dp3157
g74
(dp3158
g94
g95
ssg83
g3152
sg76
(lp3159
g309
asbag69
(g90
g71
NtRp3160
(dp3161
g74
(dp3162
g101
g102
ssg83
g3152
sg76
(lp3163
S':'
asbag69
(g90
g71
NtRp3164
(dp3165
g74
(dp3166
sg83
g3152
sg76
(lp3167
g69
(g70
g71
NtRp3168
(dp3169
g74
(dp3170
g82
I3
ssg83
g3164
sg76
(lp3171
S''
asbasbasbag69
(g85
g71
NtRp3172
(dp3173
g74
(dp3174
sg83
g3148
sg76
(lp3175
g69
(g90
g71
NtRp3176
(dp3177
g74
(dp3178
g94
g95
ssg83
g3172
sg76
(lp3179
g330
asbag69
(g90
g71
NtRp3180
(dp3181
g74
(dp3182
g101
g102
ssg83
g3172
sg76
(lp3183
S':'
asbag69
(g90
g71
NtRp3184
(dp3185
g74
(dp3186
sg83
g3172
sg76
(lp3187
g69
(g70
g71
NtRp3188
(dp3189
g74
(dp3190
g82
I3
ssg83
g3184
sg76
(lp3191
S''
asbasbasbag69
(g85
g71
NtRp3192
(dp3193
g74
(dp3194
sg83
g3148
sg76
(lp3195
g69
(g90
g71
NtRp3196
(dp3197
g74
(dp3198
g94
g95
ssg83
g3192
sg76
(lp3199
g351
asbag69
(g90
g71
NtRp3200
(dp3201
g74
(dp3202
g101
g102
ssg83
g3192
sg76
(lp3203
S':'
asbag69
(g90
g71
NtRp3204
(dp3205
g74
(dp3206
sg83
g3192
sg76
(lp3207
g69
(g70
g71
NtRp3208
(dp3209
g74
(dp3210
g82
I3
ssg83
g3204
sg76
(lp3211
S''
asbasbasbag69
(g85
g71
NtRp3212
(dp3213
g74
(dp3214
sg83
g3148
sg76
(lp3215
g69
(g90
g71
NtRp3216
(dp3217
g74
(dp3218
g94
g95
ssg83
g3212
sg76
(lp3219
g372
asbag69
(g90
g71
NtRp3220
(dp3221
g74
(dp3222
g101
g102
ssg83
g3212
sg76
(lp3223
S':'
asbag69
(g90
g71
NtRp3224
(dp3225
g74
(dp3226
sg83
g3212
sg76
(lp3227
g69
(g70
g71
NtRp3228
(dp3229
g74
(dp3230
g82
I3
ssg83
g3224
sg76
(lp3231
S''
asbasbasbag69
(g85
g71
NtRp3232
(dp3233
g74
(dp3234
sg83
g3148
sg76
(lp3235
g69
(g90
g71
NtRp3236
(dp3237
g74
(dp3238
g94
g95
ssg83
g3232
sg76
(lp3239
g393
asbag69
(g90
g71
NtRp3240
(dp3241
g74
(dp3242
g101
g102
ssg83
g3232
sg76
(lp3243
S':'
asbag69
(g90
g71
NtRp3244
(dp3245
g74
(dp3246
sg83
g3232
sg76
(lp3247
g69
(g70
g71
NtRp3248
(dp3249
g74
(dp3250
g82
I3
ssg83
g3244
sg76
(lp3251
S''
asbasbasbag69
(g85
g71
NtRp3252
(dp3253
g74
(dp3254
sg83
g3148
sg76
(lp3255
g69
(g90
g71
NtRp3256
(dp3257
g74
(dp3258
g94
g95
ssg83
g3252
sg76
(lp3259
g414
asbag69
(g90
g71
NtRp3260
(dp3261
g74
(dp3262
g101
g102
ssg83
g3252
sg76
(lp3263
S':'
asbag69
(g90
g71
NtRp3264
(dp3265
g74
(dp3266
sg83
g3252
sg76
(lp3267
g69
(g70
g71
NtRp3268
(dp3269
g74
(dp3270
g82
I3
ssg83
g3264
sg76
(lp3271
S'/'
asbasbasbag69
(g85
g71
NtRp3272
(dp3273
g74
(dp3274
sg83
g3148
sg76
(lp3275
g69
(g90
g71
NtRp3276
(dp3277
g74
(dp3278
g94
g95
ssg83
g3272
sg76
(lp3279
g435
asbag69
(g90
g71
NtRp3280
(dp3281
g74
(dp3282
g101
g102
ssg83
g3272
sg76
(lp3283
S':'
asbag69
(g90
g71
NtRp3284
(dp3285
g74
(dp3286
sg83
g3272
sg76
(lp3287
g69
(g70
g71
NtRp3288
(dp3289
g74
(dp3290
g82
I3
ssg83
g3284
sg76
(lp3291
S''
asbasbasbag69
(g85
g71
NtRp3292
(dp3293
g74
(dp3294
sg83
g3148
sg76
(lp3295
g69
(g90
g71
NtRp3296
(dp3297
g74
(dp3298
g94
g95
ssg83
g3292
sg76
(lp3299
g456
asbag69
(g90
g71
NtRp3300
(dp3301
g74
(dp3302
g101
g102
ssg83
g3292
sg76
(lp3303
S':'
asbag69
(g90
g71
NtRp3304
(dp3305
g74
(dp3306
sg83
g3292
sg76
(lp3307
g69
(g70
g71
NtRp3308
(dp3309
g74
(dp3310
g82
I3
ssg83
g3304
sg76
(lp3311
S''
asbasbasbasbasbasbasbasbasbasbasbag69
(g85
g71
NtRp3312
(dp3313
g74
(dp3314
sg83
g3078
sg76
(lp3315
g69
(g90
g71
NtRp3316
(dp3317
g74
(dp3318
g94
g95
ssg83
g3312
sg76
(lp3319
S'delimiters'
p3320
asbag69
(g90
g71
NtRp3321
(dp3322
g74
(dp3323
g101
g102
ssg83
g3312
sg76
(lp3324
S':'
asbag69
(g90
g71
NtRp3325
(dp3326
g74
(dp3327
sg83
g3312
sg76
(lp3328
g69
(g70
g71
NtRp3329
(dp3330
g74
(dp3331
g82
I5
ssg83
g3325
sg76
(lp3332
g69
(g78
g71
NtRp3333
(dp3334
g74
(dp3335
g82
I4
ssg83
Nsg76
(lp3336
g69
(g85
g71
NtRp3337
(dp3338
g74
(dp3339
sg83
g3333
sg76
(lp3340
g69
(g90
g71
NtRp3341
(dp3342
g74
(dp3343
sg83
g3337
sg76
(lp3344
g69
(g70
g71
NtRp3345
(dp3346
g74
(dp3347
g82
I4
ssg83
g3341
sg76
(lp3348
S'{{'
p3349
asbasbasbag69
(g85
g71
NtRp3350
(dp3351
g74
(dp3352
sg83
g3333
sg76
(lp3353
g69
(g90
g71
NtRp3354
(dp3355
g74
(dp3356
sg83
g3350
sg76
(lp3357
g69
(g70
g71
NtRp3358
(dp3359
g74
(dp3360
g82
I4
ssg83
g3354
sg76
(lp3361
S'}}'
p3362
asbasbasbasbasbasbasbag69
(g85
g71
NtRp3363
(dp3364
g74
(dp3365
sg83
g3078
sg76
(lp3366
g69
(g90
g71
NtRp3367
(dp3368
g74
(dp3369
g94
g95
ssg83
g3363
sg76
(lp3370
S'files'
p3371
asbag69
(g90
g71
NtRp3372
(dp3373
g74
(dp3374
g101
g102
ssg83
g3363
sg76
(lp3375
S':'
asbag69
(g90
g71
NtRp3376
(dp3377
g74
(dp3378
sg83
g3363
sg76
(lp3379
g69
(g70
g71
NtRp3380
(dp3381
g74
(dp3382
g82
I5
ssg83
g3376
sg76
(lp3383
g69
(g78
g71
NtRp3384
(dp3385
g74
(dp3386
g82
I4
ssg83
Nsg76
(lp3387
sbasbasbasbag69
(g85
g71
NtRp3388
(dp3389
g74
(dp3390
sg83
g3078
sg76
(lp3391
g69
(g90
g71
NtRp3392
(dp3393
g74
(dp3394
g94
g95
ssg83
g3388
sg76
(lp3395
S'flash'
p3396
asbag69
(g90
g71
NtRp3397
(dp3398
g74
(dp3399
g101
g102
ssg83
g3388
sg76
(lp3400
S':'
asbag69
(g90
g71
NtRp3401
(dp3402
g74
(dp3403
sg83
g3388
sg76
(lp3404
g69
(g70
g71
NtRp3405
(dp3406
g74
(dp3407
g82
I5
ssg83
g3401
sg76
(lp3408
S'Using Telefam de Pepi'
p3409
asbasbasbag69
(g85
g71
NtRp3410
(dp3411
g74
(dp3412
sg83
g3078
sg76
(lp3413
g69
(g90
g71
NtRp3414
(dp3415
g74
(dp3416
g94
g95
ssg83
g3410
sg76
(lp3417
S'generic_patterns'
p3418
asbag69
(g90
g71
NtRp3419
(dp3420
g74
(dp3421
g101
g102
ssg83
g3410
sg76
(lp3422
S':'
asbag69
(g90
g71
NtRp3423
(dp3424
g74
(dp3425
sg83
g3410
sg76
(lp3426
g69
(g70
g71
NtRp3427
(dp3428
g74
(dp3429
g82
I5
ssg83
g3423
sg76
(lp3430
g69
(g78
g71
NtRp3431
(dp3432
g74
(dp3433
g82
I4
ssg83
Nsg76
(lp3434
g69
(g85
g71
NtRp3435
(dp3436
g74
(dp3437
sg83
g3431
sg76
(lp3438
g69
(g90
g71
NtRp3439
(dp3440
g74
(dp3441
sg83
g3435
sg76
(lp3442
g69
(g70
g71
NtRp3443
(dp3444
g74
(dp3445
g82
I4
ssg83
g3439
sg76
(lp3446
S'*.json'
p3447
asbasbasbasbasbasbasbag69
(g85
g71
NtRp3448
(dp3449
g74
(dp3450
sg83
g3078
sg76
(lp3451
g69
(g90
g71
NtRp3452
(dp3453
g74
(dp3454
g94
g95
ssg83
g3448
sg76
(lp3455
S'headers'
p3456
asbag69
(g90
g71
NtRp3457
(dp3458
g74
(dp3459
g101
g102
ssg83
g3448
sg76
(lp3460
S':'
asbag69
(g90
g71
NtRp3461
(dp3462
g74
(dp3463
sg83
g3448
sg76
(lp3464
g69
(g70
g71
NtRp3465
(dp3466
g74
(dp3467
g82
I5
ssg83
g3461
sg76
(lp3468
g69
(g78
g71
NtRp3469
(dp3470
g74
(dp3471
g82
I4
ssg83
Nsg76
(lp3472
g69
(g85
g71
NtRp3473
(dp3474
g74
(dp3475
sg83
g3469
sg76
(lp3476
g69
(g90
g71
NtRp3477
(dp3478
g74
(dp3479
g94
g95
ssg83
g3473
sg76
(lp3480
S'Cache-Control'
p3481
asbag69
(g90
g71
NtRp3482
(dp3483
g74
(dp3484
g101
g102
ssg83
g3473
sg76
(lp3485
S':'
asbag69
(g90
g71
NtRp3486
(dp3487
g74
(dp3488
sg83
g3473
sg76
(lp3489
g69
(g70
g71
NtRp3490
(dp3491
g74
(dp3492
g82
I4
ssg83
g3486
sg76
(lp3493
S'no-store, no-cache, must-revalidate, post-check=0, pre-check=0'
p3494
asbasbasbag69
(g85
g71
NtRp3495
(dp3496
g74
(dp3497
sg83
g3469
sg76
(lp3498
g69
(g90
g71
NtRp3499
(dp3500
g74
(dp3501
g94
g95
ssg83
g3495
sg76
(lp3502
S'Content-Type'
p3503
asbag69
(g90
g71
NtRp3504
(dp3505
g74
(dp3506
g101
g102
ssg83
g3495
sg76
(lp3507
S':'
asbag69
(g90
g71
NtRp3508
(dp3509
g74
(dp3510
sg83
g3495
sg76
(lp3511
g69
(g70
g71
NtRp3512
(dp3513
g74
(dp3514
g82
I4
ssg83
g3508
sg76
(lp3515
S'text/html; charset=utf-8'
p3516
asbasbasbag69
(g85
g71
NtRp3517
(dp3518
g74
(dp3519
sg83
g3469
sg76
(lp3520
g69
(g90
g71
NtRp3521
(dp3522
g74
(dp3523
g94
g95
ssg83
g3517
sg76
(lp3524
S'Expires'
p3525
asbag69
(g90
g71
NtRp3526
(dp3527
g74
(dp3528
g101
g102
ssg83
g3517
sg76
(lp3529
S':'
asbag69
(g90
g71
NtRp3530
(dp3531
g74
(dp3532
sg83
g3517
sg76
(lp3533
g69
(g70
g71
NtRp3534
(dp3535
g74
(dp3536
g82
I4
ssg83
g3530
sg76
(lp3537
S'Wed, 29 Aug 2012 11:55:40 GMT'
p3538
asbasbasbag69
(g85
g71
NtRp3539
(dp3540
g74
(dp3541
sg83
g3469
sg76
(lp3542
g69
(g90
g71
NtRp3543
(dp3544
g74
(dp3545
g94
g95
ssg83
g3539
sg76
(lp3546
S'Pragma'
p3547
asbag69
(g90
g71
NtRp3548
(dp3549
g74
(dp3550
g101
g102
ssg83
g3539
sg76
(lp3551
S':'
asbag69
(g90
g71
NtRp3552
(dp3553
g74
(dp3554
sg83
g3539
sg76
(lp3555
g69
(g70
g71
NtRp3556
(dp3557
g74
(dp3558
g82
I4
ssg83
g3552
sg76
(lp3559
S'no-cache'
p3560
asbasbasbag69
(g85
g71
NtRp3561
(dp3562
g74
(dp3563
sg83
g3469
sg76
(lp3564
g69
(g90
g71
NtRp3565
(dp3566
g74
(dp3567
g94
g95
ssg83
g3561
sg76
(lp3568
S'X-Powered-By'
p3569
asbag69
(g90
g71
NtRp3570
(dp3571
g74
(dp3572
g101
g102
ssg83
g3561
sg76
(lp3573
S':'
asbag69
(g90
g71
NtRp3574
(dp3575
g74
(dp3576
sg83
g3561
sg76
(lp3577
g69
(g70
g71
NtRp3578
(dp3579
g74
(dp3580
g82
I4
ssg83
g3574
sg76
(lp3581
S'web2py'
p3582
asbasbasbasbasbasbasbag69
(g85
g71
NtRp3583
(dp3584
g74
(dp3585
sg83
g3078
sg76
(lp3586
g69
(g90
g71
NtRp3587
(dp3588
g74
(dp3589
g94
g95
ssg83
g3583
sg76
(lp3590
S'menu'
p3591
asbag69
(g90
g71
NtRp3592
(dp3593
g74
(dp3594
g101
g102
ssg83
g3583
sg76
(lp3595
S':'
asbag69
(g90
g71
NtRp3596
(dp3597
g74
(dp3598
sg83
g3583
sg76
(lp3599
g69
(g70
g71
NtRp3600
(dp3601
g74
(dp3602
g82
I5
ssg83
g3596
sg76
(lp3603
g69
(g78
g71
NtRp3604
(dp3605
g74
(dp3606
g82
I4
ssg83
Nsg76
(lp3607
g69
(g85
g71
NtRp3608
(dp3609
g74
(dp3610
sg83
g3604
sg76
(lp3611
g69
(g90
g71
NtRp3612
(dp3613
g74
(dp3614
sg83
g3608
sg76
(lp3615
g69
(g70
g71
NtRp3616
(dp3617
g74
(dp3618
g82
I4
ssg83
g3612
sg76
(lp3619
g69
(g78
g71
NtRp3620
(dp3621
g74
(dp3622
g82
I3
ssg83
Nsg76
(lp3623
g69
(g85
g71
NtRp3624
(dp3625
g74
(dp3626
sg83
g3620
sg76
(lp3627
g69
(g90
g71
NtRp3628
(dp3629
g74
(dp3630
sg83
g3624
sg76
(lp3631
g69
(g70
g71
NtRp3632
(dp3633
g74
(dp3634
g82
I3
ssg83
g3628
sg76
(lp3635
cgluon.languages
lazyT_unpickle
p3636
(S't\x04\x00\x00\x00Home'
tRp3637
asbasbasbag69
(g85
g71
NtRp3638
(dp3639
g74
(dp3640
sg83
g3620
sg76
(lp3641
g69
(g90
g71
NtRp3642
(dp3643
g74
(dp3644
sg83
g3638
sg76
(lp3645
g69
(g70
g71
NtRp3646
(dp3647
g74
(dp3648
g82
I3
ssg83
g3642
sg76
(lp3649
g112
asbasbasbag69
(g85
g71
NtRp3650
(dp3651
g74
(dp3652
sg83
g3620
sg76
(lp3653
g69
(g90
g71
NtRp3654
(dp3655
g74
(dp3656
sg83
g3650
sg76
(lp3657
g69
(g70
g71
NtRp3658
(dp3659
g74
(dp3660
g82
I3
ssg83
g3654
sg76
(lp3661
S'/telefam/default/index'
p3662
asbasbasbag69
(g85
g71
NtRp3663
(dp3664
g74
(dp3665
sg83
g3620
sg76
(lp3666
g69
(g90
g71
NtRp3667
(dp3668
g74
(dp3669
sg83
g3663
sg76
(lp3670
g69
(g70
g71
NtRp3671
(dp3672
g74
(dp3673
g82
I3
ssg83
g3667
sg76
(lp3674
g69
(g78
g71
NtRp3675
(dp3676
g74
(dp3677
g82
I2
ssg83
Nsg76
(lp3678
sbasbasbasbasbasbasbasbag69
(g85
g71
NtRp3679
(dp3680
g74
(dp3681
sg83
g3604
sg76
(lp3682
g69
(g90
g71
NtRp3683
(dp3684
g74
(dp3685
sg83
g3679
sg76
(lp3686
g69
(g70
g71
NtRp3687
(dp3688
g74
(dp3689
g82
I4
ssg83
g3683
sg76
(lp3690
g69
(g78
g71
NtRp3691
(dp3692
g74
(dp3693
g82
I3
ssg83
Nsg76
(lp3694
g69
(g85
g71
NtRp3695
(dp3696
g74
(dp3697
sg83
g3691
sg76
(lp3698
g69
(g90
g71
NtRp3699
(dp3700
g74
(dp3701
sg83
g3695
sg76
(lp3702
g69
(g70
g71
NtRp3703
(dp3704
g74
(dp3705
g82
I3
ssg83
g3699
sg76
(lp3706
g69
(cgluon.html
SPAN
p3707
g71
NtRp3708
(dp3709
g74
(dp3710
g94
S'color:yellow'
p3711
ssg83
Nsg76
(lp3712
S'Actions'
p3713
asbasbasbasbag69
(g85
g71
NtRp3714
(dp3715
g74
(dp3716
sg83
g3691
sg76
(lp3717
g69
(g90
g71
NtRp3718
(dp3719
g74
(dp3720
sg83
g3714
sg76
(lp3721
g69
(g70
g71
NtRp3722
(dp3723
g74
(dp3724
g82
I3
ssg83
g3718
sg76
(lp3725
g112
asbasbasbag69
(g85
g71
NtRp3726
(dp3727
g74
(dp3728
sg83
g3691
sg76
(lp3729
g69
(g90
g71
NtRp3730
(dp3731
g74
(dp3732
sg83
g3726
sg76
(lp3733
g69
(g70
g71
NtRp3734
(dp3735
g74
(dp3736
g82
I3
ssg83
g3730
sg76
(lp3737
S'None'
p3738
asbasbasbag69
(g85
g71
NtRp3739
(dp3740
g74
(dp3741
sg83
g3691
sg76
(lp3742
g69
(g90
g71
NtRp3743
(dp3744
g74
(dp3745
sg83
g3739
sg76
(lp3746
g69
(g70
g71
NtRp3747
(dp3748
g74
(dp3749
g82
I3
ssg83
g3743
sg76
(lp3750
g69
(g78
g71
NtRp3751
(dp3752
g74
(dp3753
g82
I2
ssg83
Nsg76
(lp3754
g69
(g85
g71
NtRp3755
(dp3756
g74
(dp3757
sg83
g3751
sg76
(lp3758
g69
(g90
g71
NtRp3759
(dp3760
g74
(dp3761
sg83
g3755
sg76
(lp3762
g69
(g70
g71
NtRp3763
(dp3764
g74
(dp3765
g82
I2
ssg83
g3759
sg76
(lp3766
g69
(g78
g71
NtRp3767
(dp3768
g74
(dp3769
g82
I1
ssg83
Nsg76
(lp3770
g69
(g85
g71
NtRp3771
(dp3772
g74
(dp3773
sg83
g3767
sg76
(lp3774
g69
(g90
g71
NtRp3775
(dp3776
g74
(dp3777
sg83
g3771
sg76
(lp3778
g69
(g70
g71
NtRp3779
(dp3780
g74
(dp3781
g82
I1
ssg83
g3775
sg76
(lp3782
g3636
(S't\t\x00\x00\x00Messsages'
tRp3783
asbasbasbag69
(g85
g71
NtRp3784
(dp3785
g74
(dp3786
sg83
g3767
sg76
(lp3787
g69
(g90
g71
NtRp3788
(dp3789
g74
(dp3790
sg83
g3784
sg76
(lp3791
g69
(g70
g71
NtRp3792
(dp3793
g74
(dp3794
g82
I1
ssg83
g3788
sg76
(lp3795
I00
asbasbasbag69
(g85
g71
NtRp3796
(dp3797
g74
(dp3798
sg83
g3767
sg76
(lp3799
g69
(g90
g71
NtRp3800
(dp3801
g74
(dp3802
sg83
g3796
sg76
(lp3803
g69
(g70
g71
NtRp3804
(dp3805
g74
(dp3806
g82
I1
ssg83
g3800
sg76
(lp3807
S'/telefam/messages/index'
p3808
asbasbasbasbasbasbasbag69
(g85
g71
NtRp3809
(dp3810
g74
(dp3811
sg83
g3751
sg76
(lp3812
g69
(g90
g71
NtRp3813
(dp3814
g74
(dp3815
sg83
g3809
sg76
(lp3816
g69
(g70
g71
NtRp3817
(dp3818
g74
(dp3819
g82
I2
ssg83
g3813
sg76
(lp3820
g69
(g78
g71
NtRp3821
(dp3822
g74
(dp3823
g82
I1
ssg83
Nsg76
(lp3824
g69
(g85
g71
NtRp3825
(dp3826
g74
(dp3827
sg83
g3821
sg76
(lp3828
g69
(g90
g71
NtRp3829
(dp3830
g74
(dp3831
sg83
g3825
sg76
(lp3832
g69
(g70
g71
NtRp3833
(dp3834
g74
(dp3835
g82
I1
ssg83
g3829
sg76
(lp3836
g3636
(S's\x0f\x00\x00\x00Photo Galleries'
tRp3837
asbasbasbag69
(g85
g71
NtRp3838
(dp3839
g74
(dp3840
sg83
g3821
sg76
(lp3841
g69
(g90
g71
NtRp3842
(dp3843
g74
(dp3844
sg83
g3838
sg76
(lp3845
g69
(g70
g71
NtRp3846
(dp3847
g74
(dp3848
g82
I1
ssg83
g3842
sg76
(lp3849
I00
asbasbasbag69
(g85
g71
NtRp3850
(dp3851
g74
(dp3852
sg83
g3821
sg76
(lp3853
g69
(g90
g71
NtRp3854
(dp3855
g74
(dp3856
sg83
g3850
sg76
(lp3857
g69
(g70
g71
NtRp3858
(dp3859
g74
(dp3860
g82
I1
ssg83
g3854
sg76
(lp3861
S'/telefam/galleries/index'
p3862
asbasbasbasbasbasbasbag69
(g85
g71
NtRp3863
(dp3864
g74
(dp3865
sg83
g3751
sg76
(lp3866
g69
(g90
g71
NtRp3867
(dp3868
g74
(dp3869
sg83
g3863
sg76
(lp3870
g69
(g70
g71
NtRp3871
(dp3872
g74
(dp3873
g82
I2
ssg83
g3867
sg76
(lp3874
g69
(g78
g71
NtRp3875
(dp3876
g74
(dp3877
g82
I1
ssg83
Nsg76
(lp3878
g69
(g85
g71
NtRp3879
(dp3880
g74
(dp3881
sg83
g3875
sg76
(lp3882
g69
(g90
g71
NtRp3883
(dp3884
g74
(dp3885
sg83
g3879
sg76
(lp3886
g69
(g70
g71
NtRp3887
(dp3888
g74
(dp3889
g82
I1
ssg83
g3883
sg76
(lp3890
g3636
(S't\x05\x00\x00\x00Debug'
tRp3891
asbasbasbag69
(g85
g71
NtRp3892
(dp3893
g74
(dp3894
sg83
g3875
sg76
(lp3895
g69
(g90
g71
NtRp3896
(dp3897
g74
(dp3898
sg83
g3892
sg76
(lp3899
g69
(g70
g71
NtRp3900
(dp3901
g74
(dp3902
g82
I1
ssg83
g3896
sg76
(lp3903
I00
asbasbasbag69
(g85
g71
NtRp3904
(dp3905
g74
(dp3906
sg83
g3875
sg76
(lp3907
g69
(g90
g71
NtRp3908
(dp3909
g74
(dp3910
sg83
g3904
sg76
(lp3911
g69
(g70
g71
NtRp3912
(dp3913
g74
(dp3914
g82
I1
ssg83
g3908
sg76
(lp3915
Nasbasbasbag69
(g85
g71
NtRp3916
(dp3917
g74
(dp3918
sg83
g3875
sg76
(lp3919
g69
(g90
g71
NtRp3920
(dp3921
g74
(dp3922
sg83
g3916
sg76
(lp3923
g69
(g70
g71
NtRp3924
(dp3925
g74
(dp3926
g82
I1
ssg83
g3920
sg76
(lp3927
(lp3928
(g3636
(S's\x08\x00\x00\x00This App'
tRp3929
I00
S'/admin/default/design/telefam'
(lp3930
(g3636
(S't\x0b\x00\x00\x00Controlador'
tRp3931
I00
S'/admin/default/edit/telefam/controllers/api.py'
tp3932
a(g3636
(S't\x05\x00\x00\x00Vista'
tRp3933
I00
S'/admin/default/edit/telefam/views/api/call.html'
tp3934
a(g3636
(S's\x12\x00\x00\x00Dise\xc3\xb1o de p\xc3\xa1gina'
tRp3935
I00
S'/admin/default/edit/telefam/views/layout.html'
tp3936
a(g3636
(S's\x0e\x00\x00\x00Hoja de estilo'
tRp3937
I00
S'/admin/default/edit/telefam/static/css/web2py.css'
tp3938
a(g3636
(S's\x0b\x00\x00\x00Modelo "db"'
tRp3939
I00
S'/admin/default/edit/telefam/models/db.py'
tp3940
a(g3636
(S's\r\x00\x00\x00Modelo "menu"'
tRp3941
I00
S'/admin/default/edit/telefam/models/menu.py'
tp3942
a(g3636
(S's\r\x00\x00\x00Base de datos'
tRp3943
I00
S'/telefam/appadmin/index'
tp3944
a(g3636
(S't\x06\x00\x00\x00Errors'
tRp3945
I00
S'/admin/default/errors/telefam'
tp3946
a(g3636
(S's\t\x00\x00\x00Acerca de'
tRp3947
I00
S'/admin/default/about/telefam'
tp3948
atp3949
a(S'web2py.com'
p3950
I00
S'http://www.web2py.com'
p3951
(lp3952
(g3636
(S't\x08\x00\x00\x00Download'
tRp3953
I00
S'http://www.web2py.com/examples/default/download'
p3954
tp3955
a(g3636
(S't\x07\x00\x00\x00Support'
tRp3956
I00
S'http://www.web2py.com/examples/default/support'
p3957
tp3958
a(g3636
(S't\x04\x00\x00\x00Demo'
tRp3959
I00
S'http://web2py.com/demo_admin'
p3960
tp3961
a(g3636
(S's\x0e\x00\x00\x00Quick Examples'
tRp3962
I00
S'http://web2py.com/examples/default/examples'
p3963
tp3964
a(g3636
(S't\x03\x00\x00\x00FAQ'
tRp3965
I00
S'http://web2py.com/AlterEgo'
p3966
tp3967
a(g3636
(S't\x06\x00\x00\x00Videos'
tRp3968
I00
S'http://www.web2py.com/examples/default/videos/'
p3969
tp3970
a(g3636
(S's\x11\x00\x00\x00Free Applications'
tRp3971
I00
S'http://web2py.com/appliances'
p3972
tp3973
a(g3636
(S't\x07\x00\x00\x00Plugins'
tRp3974
I00
S'http://web2py.com/plugins'
p3975
tp3976
a(g3636
(S't\x07\x00\x00\x00Layouts'
tRp3977
I00
S'http://web2py.com/layouts'
p3978
tp3979
a(g3636
(S't\x07\x00\x00\x00Recipes'
tRp3980
I00
S'http://web2pyslices.com/'
p3981
tp3982
a(g3636
(S't\x08\x00\x00\x00Semantic'
tRp3983
I00
S'http://web2py.com/semantic'
p3984
tp3985
atp3986
a(g3636
(S's\x0e\x00\x00\x00Documentaci\xc3\xb3n'
tRp3987
I00
S'http://www.web2py.com/book'
p3988
(lp3989
(g3636
(S't\x07\x00\x00\x00Preface'
tRp3990
I00
S'http://www.web2py.com/book/default/chapter/00'
p3991
tp3992
a(g3636
(S't\x0c\x00\x00\x00Introduction'
tRp3993
I00
S'http://www.web2py.com/book/default/chapter/01'
p3994
tp3995
a(g3636
(S't\x06\x00\x00\x00Python'
tRp3996
I00
S'http://www.web2py.com/book/default/chapter/02'
p3997
tp3998
a(g3636
(S't\x08\x00\x00\x00Overview'
tRp3999
I00
S'http://www.web2py.com/book/default/chapter/03'
p4000
tp4001
a(g3636
(S's\x08\x00\x00\x00The Core'
tRp4002
I00
S'http://www.web2py.com/book/default/chapter/04'
p4003
tp4004
a(g3636
(S's\t\x00\x00\x00The Views'
tRp4005
I00
S'http://www.web2py.com/book/default/chapter/05'
p4006
tp4007
a(g3636
(S's\r\x00\x00\x00Base de datos'
tRp4008
I00
S'http://www.web2py.com/book/default/chapter/06'
p4009
tp4010
a(g3636
(S's\x14\x00\x00\x00Forms and Validators'
tRp4011
I00
S'http://www.web2py.com/book/default/chapter/07'
p4012
tp4013
a(g3636
(S's\r\x00\x00\x00Email and SMS'
tRp4014
I00
S'http://www.web2py.com/book/default/chapter/08'
p4015
tp4016
a(g3636
(S's\x0e\x00\x00\x00Access Control'
tRp4017
I00
S'http://www.web2py.com/book/default/chapter/09'
p4018
tp4019
a(g3636
(S't\x08\x00\x00\x00Services'
tRp4020
I00
S'http://www.web2py.com/book/default/chapter/10'
p4021
tp4022
a(g3636
(S's\x0c\x00\x00\x00Ajax Recipes'
tRp4023
I00
S'http://www.web2py.com/book/default/chapter/11'
p4024
tp4025
a(g3636
(S's\x16\x00\x00\x00Components and Plugins'
tRp4026
I00
S'http://www.web2py.com/book/default/chapter/12'
p4027
tp4028
a(g3636
(S's\x12\x00\x00\x00Deployment Recipes'
tRp4029
I00
S'http://www.web2py.com/book/default/chapter/13'
p4030
tp4031
a(g3636
(S's\r\x00\x00\x00Other Recipes'
tRp4032
I00
S'http://www.web2py.com/book/default/chapter/14'
p4033
tp4034
a(g3636
(S's\r\x00\x00\x00Buy this book'
tRp4035
I00
S'http://stores.lulu.com/web2py'
p4036
tp4037
atp4038
a(g3636
(S't\t\x00\x00\x00Community'
tRp4039
I00
N(lp4040
(g3636
(S't\x06\x00\x00\x00Groups'
tRp4041
I00
S'http://www.web2py.com/examples/default/usergroups'
p4042
tp4043
a(g3636
(S't\x07\x00\x00\x00Twitter'
tRp4044
I00
S'http://twitter.com/web2py'
p4045
tp4046
a(g3636
(S's\t\x00\x00\x00Live Chat'
tRp4047
I00
S'http://webchat.freenode.net/?channels=web2py'
p4048
tp4049
atp4050
a(g3636
(S't\x07\x00\x00\x00Plugins'
tRp4051
I00
N(lp4052
(S'plugin_wiki'
p4053
I00
S'http://web2py.com/examples/default/download'
p4054
tp4055
a(g3636
(S's\r\x00\x00\x00Other Plugins'
tRp4056
I00
g3975
tp4057
a(g3636
(S's\x0e\x00\x00\x00Layout Plugins'
tRp4058
I00
g3978
tp4059
atp4060
aasbasbasbasbasbasbasbasbasbasbasbasbasbasbasbasbasbasbasbag69
(g85
g71
NtRp4061
(dp4062
g74
(dp4063
sg83
g3078
sg76
(lp4064
g69
(g90
g71
NtRp4065
(dp4066
g74
(dp4067
g94
g95
ssg83
g4061
sg76
(lp4068
S'meta'
p4069
asbag69
(g90
g71
NtRp4070
(dp4071
g74
(dp4072
g101
g102
ssg83
g4061
sg76
(lp4073
S':'
asbag69
(g90
g71
NtRp4074
(dp4075
g74
(dp4076
sg83
g4061
sg76
(lp4077
g69
(g70
g71
NtRp4078
(dp4079
g74
(dp4080
g82
I5
ssg83
g4074
sg76
(lp4081
g69
(g78
g71
NtRp4082
(dp4083
g74
(dp4084
g82
I4
ssg83
Nsg76
(lp4085
g69
(g85
g71
NtRp4086
(dp4087
g74
(dp4088
sg83
g4082
sg76
(lp4089
g69
(g90
g71
NtRp4090
(dp4091
g74
(dp4092
g94
g95
ssg83
g4086
sg76
(lp4093
S'author'
p4094
asbag69
(g90
g71
NtRp4095
(dp4096
g74
(dp4097
g101
g102
ssg83
g4086
sg76
(lp4098
S':'
asbag69
(g90
g71
NtRp4099
(dp4100
g74
(dp4101
sg83
g4086
sg76
(lp4102
g69
(g70
g71
NtRp4103
(dp4104
g74
(dp4105
g82
I4
ssg83
g4099
sg76
(lp4106
S'Alfonso de Cala <alfonso@el-magnifico.org>'
p4107
asbasbasbag69
(g85
g71
NtRp4108
(dp4109
g74
(dp4110
sg83
g4082
sg76
(lp4111
g69
(g90
g71
NtRp4112
(dp4113
g74
(dp4114
g94
g95
ssg83
g4108
sg76
(lp4115
S'copyright'
p4116
asbag69
(g90
g71
NtRp4117
(dp4118
g74
(dp4119
g101
g102
ssg83
g4108
sg76
(lp4120
S':'
asbag69
(g90
g71
NtRp4121
(dp4122
g74
(dp4123
sg83
g4108
sg76
(lp4124
g69
(g70
g71
NtRp4125
(dp4126
g74
(dp4127
g82
I4
ssg83
g4121
sg76
(lp4128
S'Copyright 2012'
p4129
asbasbasbag69
(g85
g71
NtRp4130
(dp4131
g74
(dp4132
sg83
g4082
sg76
(lp4133
g69
(g90
g71
NtRp4134
(dp4135
g74
(dp4136
g94
g95
ssg83
g4130
sg76
(lp4137
S'description'
p4138
asbag69
(g90
g71
NtRp4139
(dp4140
g74
(dp4141
g101
g102
ssg83
g4130
sg76
(lp4142
S':'
asbag69
(g90
g71
NtRp4143
(dp4144
g74
(dp4145
sg83
g4130
sg76
(lp4146
g69
(g70
g71
NtRp4147
(dp4148
g74
(dp4149
g82
I4
ssg83
g4143
sg76
(lp4150
S'Telefam: Sharing content with your family, made easy'
p4151
asbasbasbag69
(g85
g71
NtRp4152
(dp4153
g74
(dp4154
sg83
g4082
sg76
(lp4155
g69
(g90
g71
NtRp4156
(dp4157
g74
(dp4158
g94
g95
ssg83
g4152
sg76
(lp4159
S'generator'
p4160
asbag69
(g90
g71
NtRp4161
(dp4162
g74
(dp4163
g101
g102
ssg83
g4152
sg76
(lp4164
S':'
asbag69
(g90
g71
NtRp4165
(dp4166
g74
(dp4167
sg83
g4152
sg76
(lp4168
g69
(g70
g71
NtRp4169
(dp4170
g74
(dp4171
g82
I4
ssg83
g4165
sg76
(lp4172
S'Web2py Web Framework'
p4173
asbasbasbag69
(g85
g71
NtRp4174
(dp4175
g74
(dp4176
sg83
g4082
sg76
(lp4177
g69
(g90
g71
NtRp4178
(dp4179
g74
(dp4180
g94
g95
ssg83
g4174
sg76
(lp4181
S'keywords'
p4182
asbag69
(g90
g71
NtRp4183
(dp4184
g74
(dp4185
g101
g102
ssg83
g4174
sg76
(lp4186
S':'
asbag69
(g90
g71
NtRp4187
(dp4188
g74
(dp4189
sg83
g4174
sg76
(lp4190
g69
(g70
g71
NtRp4191
(dp4192
g74
(dp4193
g82
I4
ssg83
g4187
sg76
(lp4194
S'telefam, social, network, tv, raspberrypi'
p4195
asbasbasbasbasbasbasbag69
(g85
g71
NtRp4196
(dp4197
g74
(dp4198
sg83
g3078
sg76
(lp4199
g69
(g90
g71
NtRp4200
(dp4201
g74
(dp4202
g94
g95
ssg83
g4196
sg76
(lp4203
S'postprocessing'
p4204
asbag69
(g90
g71
NtRp4205
(dp4206
g74
(dp4207
g101
g102
ssg83
g4196
sg76
(lp4208
S':'
asbag69
(g90
g71
NtRp4209
(dp4210
g74
(dp4211
sg83
g4196
sg76
(lp4212
g69
(g70
g71
NtRp4213
(dp4214
g74
(dp4215
g82
I5
ssg83
g4209
sg76
(lp4216
g69
(g78
g71
NtRp4217
(dp4218
g74
(dp4219
g82
I4
ssg83
Nsg76
(lp4220
sbasbasbasbag69
(g85
g71
NtRp4221
(dp4222
g74
(dp4223
sg83
g3078
sg76
(lp4224
g69
(g90
g71
NtRp4225
(dp4226
g74
(dp4227
g94
g95
ssg83
g4221
sg76
(lp4228
S'session_file'
p4229
asbag69
(g90
g71
NtRp4230
(dp4231
g74
(dp4232
g101
g102
ssg83
g4221
sg76
(lp4233
S':'
asbag69
(g90
g71
NtRp4234
(dp4235
g74
(dp4236
sg83
g4221
sg76
(lp4237
g69
(g70
g71
NtRp4238
(dp4239
g74
(dp4240
g82
I5
ssg83
g4234
sg76
(lp4241
S"<open file '/home/alfem/alfem/prog/telefam/server/web2py/applications/telefam/sessions/127.0.0.1-f7f620a6-fd63-4f72-b11a-b8325669ccbf', mode 'rb+' at 0xa75e020>"
p4242
asbasbasbag69
(g85
g71
NtRp4243
(dp4244
g74
(dp4245
sg83
g3078
sg76
(lp4246
g69
(g90
g71
NtRp4247
(dp4248
g74
(dp4249
g94
g95
ssg83
g4243
sg76
(lp4250
S'session_filename'
p4251
asbag69
(g90
g71
NtRp4252
(dp4253
g74
(dp4254
g101
g102
ssg83
g4243
sg76
(lp4255
S':'
asbag69
(g90
g71
NtRp4256
(dp4257
g74
(dp4258
sg83
g4243
sg76
(lp4259
g69
(g70
g71
NtRp4260
(dp4261
g74
(dp4262
g82
I5
ssg83
g4256
sg76
(lp4263
S'/home/alfem/alfem/prog/telefam/server/web2py/applications/telefam/sessions/127.0.0.1-f7f620a6-fd63-4f72-b11a-b8325669ccbf'
p4264
asbasbasbag69
(g85
g71
NtRp4265
(dp4266
g74
(dp4267
sg83
g3078
sg76
(lp4268
g69
(g90
g71
NtRp4269
(dp4270
g74
(dp4271
g94
g95
ssg83
g4265
sg76
(lp4272
S'session_id'
p4273
asbag69
(g90
g71
NtRp4274
(dp4275
g74
(dp4276
g101
g102
ssg83
g4265
sg76
(lp4277
S':'
asbag69
(g90
g71
NtRp4278
(dp4279
g74
(dp4280
sg83
g4265
sg76
(lp4281
g69
(g70
g71
NtRp4282
(dp4283
g74
(dp4284
g82
I5
ssg83
g4278
sg76
(lp4285
S'127.0.0.1-f7f620a6-fd63-4f72-b11a-b8325669ccbf'
p4286
asbasbasbag69
(g85
g71
NtRp4287
(dp4288
g74
(dp4289
sg83
g3078
sg76
(lp4290
g69
(g90
g71
NtRp4291
(dp4292
g74
(dp4293
g94
g95
ssg83
g4287
sg76
(lp4294
S'session_id_name'
p4295
asbag69
(g90
g71
NtRp4296
(dp4297
g74
(dp4298
g101
g102
ssg83
g4287
sg76
(lp4299
S':'
asbag69
(g90
g71
NtRp4300
(dp4301
g74
(dp4302
sg83
g4287
sg76
(lp4303
g69
(g70
g71
NtRp4304
(dp4305
g74
(dp4306
g82
I5
ssg83
g4300
sg76
(lp4307
g3135
asbasbasbag69
(g85
g71
NtRp4308
(dp4309
g74
(dp4310
sg83
g3078
sg76
(lp4311
g69
(g90
g71
NtRp4312
(dp4313
g74
(dp4314
g94
g95
ssg83
g4308
sg76
(lp4315
S'session_locked'
p4316
asbag69
(g90
g71
NtRp4317
(dp4318
g74
(dp4319
g101
g102
ssg83
g4308
sg76
(lp4320
S':'
asbag69
(g90
g71
NtRp4321
(dp4322
g74
(dp4323
sg83
g4308
sg76
(lp4324
g69
(g70
g71
NtRp4325
(dp4326
g74
(dp4327
g82
I5
ssg83
g4321
sg76
(lp4328
g1532
asbasbasbag69
(g85
g71
NtRp4329
(dp4330
g74
(dp4331
sg83
g3078
sg76
(lp4332
g69
(g90
g71
NtRp4333
(dp4334
g74
(dp4335
g94
g95
ssg83
g4329
sg76
(lp4336
S'session_new'
p4337
asbag69
(g90
g71
NtRp4338
(dp4339
g74
(dp4340
g101
g102
ssg83
g4329
sg76
(lp4341
S':'
asbag69
(g90
g71
NtRp4342
(dp4343
g74
(dp4344
sg83
g4329
sg76
(lp4345
g69
(g70
g71
NtRp4346
(dp4347
g74
(dp4348
g82
I5
ssg83
g4342
sg76
(lp4349
g112
asbasbasbag69
(g85
g71
NtRp4350
(dp4351
g74
(dp4352
sg83
g3078
sg76
(lp4353
g69
(g90
g71
NtRp4354
(dp4355
g74
(dp4356
g94
g95
ssg83
g4350
sg76
(lp4357
S'status'
p4358
asbag69
(g90
g71
NtRp4359
(dp4360
g74
(dp4361
g101
g102
ssg83
g4350
sg76
(lp4362
S':'
asbag69
(g90
g71
NtRp4363
(dp4364
g74
(dp4365
sg83
g4350
sg76
(lp4366
g69
(g70
g71
NtRp4367
(dp4368
g74
(dp4369
g82
I5
ssg83
g4363
sg76
(lp4370
S'200'
p4371
asbasbasbag69
(g85
g71
NtRp4372
(dp4373
g74
(dp4374
sg83
g3078
sg76
(lp4375
g69
(g90
g71
NtRp4376
(dp4377
g74
(dp4378
g94
g95
ssg83
g4372
sg76
(lp4379
S'subtitle'
p4380
asbag69
(g90
g71
NtRp4381
(dp4382
g74
(dp4383
g101
g102
ssg83
g4372
sg76
(lp4384
S':'
asbag69
(g90
g71
NtRp4385
(dp4386
g74
(dp4387
sg83
g4372
sg76
(lp4388
g69
(g70
g71
NtRp4389
(dp4390
g74
(dp4391
g82
I5
ssg83
g4385
sg76
(lp4392
g3636
(S's+\x00\x00\x00Sharing content with your family, made easy'
tRp4393
asbasbasbag69
(g85
g71
NtRp4394
(dp4395
g74
(dp4396
sg83
g3078
sg76
(lp4397
g69
(g90
g71
NtRp4398
(dp4399
g74
(dp4400
g94
g95
ssg83
g4394
sg76
(lp4401
S'title'
p4402
asbag69
(g90
g71
NtRp4403
(dp4404
g74
(dp4405
g101
g102
ssg83
g4394
sg76
(lp4406
S':'
asbag69
(g90
g71
NtRp4407
(dp4408
g74
(dp4409
sg83
g4394
sg76
(lp4410
g69
(g70
g71
NtRp4411
(dp4412
g74
(dp4413
g82
I5
ssg83
g4407
sg76
(lp4414
S'Telefam'
p4415
asbasbasbag69
(g85
g71
NtRp4416
(dp4417
g74
(dp4418
sg83
g3078
sg76
(lp4419
g69
(g90
g71
NtRp4420
(dp4421
g74
(dp4422
g94
g95
ssg83
g4416
sg76
(lp4423
g2261
asbag69
(g90
g71
NtRp4424
(dp4425
g74
(dp4426
g101
g102
ssg83
g4416
sg76
(lp4427
S':'
asbag69
(g90
g71
NtRp4428
(dp4429
g74
(dp4430
sg83
g4416
sg76
(lp4431
g69
(g70
g71
NtRp4432
(dp4433
g74
(dp4434
g82
I5
ssg83
g4428
sg76
(lp4435
g2274
asbasbasbag69
(g85
g71
NtRp4436
(dp4437
g74
(dp4438
sg83
g3078
sg76
(lp4439
g69
(g90
g71
NtRp4440
(dp4441
g74
(dp4442
g94
g95
ssg83
g4436
sg76
(lp4443
S'view'
p4444
asbag69
(g90
g71
NtRp4445
(dp4446
g74
(dp4447
g101
g102
ssg83
g4436
sg76
(lp4448
S':'
asbag69
(g90
g71
NtRp4449
(dp4450
g74
(dp4451
sg83
g4436
sg76
(lp4452
g69
(g70
g71
NtRp4453
(dp4454
g74
(dp4455
g82
I5
ssg83
g4449
sg76
(lp4456
S'api/call.html'
p4457
asbasbasbasbasbsS'locals'
p4458
(dp4459
g4
S"'/home/alfem/alfem/prog/telefam/server/web2py/applications/telefam/controllers/api.py'"
p4460
sg6
S"'# coding: utf8\\n\\nimport datetime\\n\\ndef call():\\n   ...age_dict\\n\\n\\nresponse._vars=response._caller(call)\\n'"
p4461
sssS'traceback'
p4462
S'Traceback (most recent call last):\n  File "/home/alfem/alfem/prog/telefam/server/web2py/gluon/restricted.py", line 204, in restricted\n    ccode = compile2(code,layer)\n  File "/home/alfem/alfem/prog/telefam/server/web2py/gluon/restricted.py", line 189, in compile2\n    return compile(code.rstrip().replace(\'\\r\\n\',\'\\n\')+\'\\n\', layer, \'exec\')\n  File "/home/alfem/alfem/prog/telefam/server/web2py/applications/telefam/controllers/api.py", line 63\n    if key not in ("update_record", "delete_record")\n                                                   ^\nSyntaxError: invalid syntax\n'
p4463
s.