(dp1
S'output'
p2
S"<type 'exceptions.NameError'> name 'form' is not defined"
p3
sS'layer'
p4
S'/home/alfem/alfem/prog/telefam/server/web2py/applications/telefam/models/db.py'
p5
sS'code'
p6
S'# -*- coding: utf-8 -*-\n\n#########################################################################\n## This scaffolding model makes your app work on Google App Engine too\n## File is released under public domain and you can use without limitations\n#########################################################################\n\n## if SSL/HTTPS is properly configured and you want all HTTP requests to\n## be redirected to HTTPS, uncomment the line below:\n# request.requires_https()\n\nif not request.env.web2py_runtime_gae:\n    ## if NOT running on Google App Engine use SQLite or other DB\n    db = DAL(\'sqlite:///home/alfem/alfem/prog/telefam/server/telefam.db\')\nelse:\n    ## connect to Google BigTable (optional \'google:datastore://namespace\')\n    db = DAL(\'google:datastore\')\n    ## store sessions and tickets there\n    session.connect(request, response, db = db)\n    ## or store session in Memcache, Redis, etc.\n    ## from gluon.contrib.memdb import MEMDB\n    ## from google.appengine.api.memcache import Client\n    ## session.connect(request, response, db = MEMDB(Client()))\n\n## by default give a view/generic.extension to all actions from localhost\n## none otherwise. a pattern can be \'controller/function.extension\'\n\n#response.generic_patterns = [\'*\'] if request.is_local else []\n\nresponse.generic_patterns = [\'*.json\'] \n\n\n## (optional) optimize handling of static files\n# response.optimize_css = \'concat,minify,inline\'\n# response.optimize_js = \'concat,minify,inline\'\n\n#########################################################################\n## Here is sample code if you need for\n## - email capabilities\n## - authentication (registration, login, logout, ... )\n## - authorization (role based authorization)\n## - services (xml, csv, json, xmlrpc, jsonrpc, amf, rss)\n## - old style crud actions\n## (more options discussed in gluon/tools.py)\n#########################################################################\n\nfrom gluon.tools import Auth, Crud, Service, PluginManager, prettydate\nauth = Auth(db, hmac_key=Auth.get_or_create_key())\nauth.settings.extra_fields[\'auth_user\']= [\n    Field(\'photo\',\'upload\',autodelete=True),\n    Field(\'updated_on\',\'datetime\', default=request.now, readable=False, writable=False)]\n\ndef update(form):\n    user.update_on=request.now\n    form.first_name="TTT"\n    return form\nauth.settings.login_onaccept.append(update(form))\n\ncrud, service, plugins = Crud(db), Service(), PluginManager()\n\n## create all tables needed by auth if not custom tables\nauth.define_tables()\n\n## configure email\nmail=auth.settings.mailer\nmail.settings.server = \'smtp.el-magnifico.org\'\nmail.settings.sender = \'alfonso@el-magnifico.org\'\nmail.settings.login = \'alfonso:alfemi\'\n\n## configure auth policy\nauth.settings.registration_requires_verification = False\nauth.settings.registration_requires_approval = False\nauth.settings.reset_password_requires_verification = True\n\n## if you need to use OpenID, Facebook, MySpace, Twitter, Linkedin, etc.\n## register with janrain.com, write your domain:api_key in private/janrain.key\n#from gluon.contrib.login_methods.rpx_account import use_janrain\n#use_janrain(auth,filename=\'private/janrain.key\')\n\n#########################################################################\n## Define your tables below (or better in another model file) for example\n##\n## >>> db.define_table(\'mytable\',Field(\'myfield\',\'string\'))\n##\n## Fields can be \'string\',\'text\',\'password\',\'integer\',\'double\',\'boolean\'\n##       \'date\',\'time\',\'datetime\',\'blob\',\'upload\', \'reference TABLENAME\'\n## There is an implicit \'id integer autoincrement\' field\n## Consult manual for more options, validators, etc.\n##\n## More API examples for controllers:\n##\n## >>> db.mytable.insert(myfield=\'value\')\n## >>> rows=db(db.mytable.myfield==\'value\').select(db.mytable.ALL)\n## >>> for row in rows: print row.id, row.myfield\n#########################################################################\n\ndb.define_table(\'telefams\',\n   Field(\'description\',length=80),\n   Field(\'user_id\', db.auth_user, default=auth.user_id),\n   Field(\'key\', length=32),\n   Field(\'last_connection\', \'datetime\'))\n   \ndb.telefams.description.requires = IS_NOT_EMPTY()\ndb.telefams.user_id.requires = IS_IN_DB(db, db.auth_user.id)\ndb.telefams.user_id.readable = db.telefams.user_id.writable = False\ndb.telefams.last_connection.writable = False\n\ndb.define_table(\'messages\',\n   Field(\'user_id\', db.auth_user, default=auth.user_id),\n   Field(\'telefam_id\', db.telefams, default=session.telefam_id),\n   Field(\'text\',\'text\',length=512),\n   Field(\'photo\',\'upload\',autodelete=True),\n   Field(\'sound\',\'upload\'),\n   Field(\'status\', default="New"),\n   Field(\'created_on\', \'datetime\', default=request.now),\n   Field(\'read_on\', \'datetime\'),\n   Field(\'updated_on\', \'datetime\', default=request.now)\n   )\n\ndb.messages.user_id.requires = IS_IN_DB(db, db.auth_user.id)\ndb.messages.user_id.readable = db.messages.user_id.writable = False\ndb.messages.telefam_id.requires = IS_IN_DB(db, db.telefams.id)\ndb.messages.telefam_id.readable = db.messages.telefam_id.writable = False\ndb.messages.text.requires = IS_NOT_EMPTY()\ndb.messages.status.readable = db.messages.status.writable = False\ndb.messages.status.requires= IS_IN_SET([\'New\', \'Sent\', \'Read\'])\ndb.messages.user_id.readable = False\ndb.messages.telefam_id.readable = False\ndb.messages.created_on.writable = False\ndb.messages.read_on.writable = False\ndb.messages.updated_on.readable = db.messages.updated_on.writable = False\n\ndb.define_table(\'galleries\',\n   Field(\'user_id\', db.auth_user, default=auth.user_id),\n   Field(\'telefam_id\', db.telefams, default=session.telefam_id),\n   Field(\'description\',length=80),\n   Field(\'service\', default="flickr"),\n   Field(\'url\',default="http://www.flickr.com/photos/..."),\n   Field(\'status\', default="New"),\n   Field(\'created_on\', \'datetime\', default=request.now),\n   Field(\'read_on\', \'datetime\'),\n   Field(\'updated_on\', \'datetime\', default=request.now)\n   )\n\ndb.galleries.user_id.requires = IS_IN_DB(db, db.auth_user.id)\ndb.galleries.user_id.readable = db.galleries.user_id.writable = False\ndb.galleries.telefam_id.requires = IS_IN_DB(db, db.telefams.id)\ndb.galleries.telefam_id.readable = db.galleries.telefam_id.writable = False\ndb.galleries.description.requires = IS_NOT_EMPTY()\ndb.galleries.service.requires= IS_IN_SET([\'Flickr\'])\ndb.galleries.status.readable = db.galleries.status.writable = False\ndb.galleries.status.requires= IS_IN_SET([\'New\', \'Sent\', \'Read\'])\ndb.galleries.user_id.readable = False\ndb.galleries.telefam_id.readable = False\ndb.galleries.created_on.writable = False\ndb.galleries.read_on.writable = False\ndb.galleries.updated_on.readable = db.galleries.updated_on.writable = False\n\n'
p7
sS'snapshot'
p8
(dp9
S'exception'
p10
(dp11
S'__hash__'
p12
S"<method-wrapper '__hash__' of exceptions.NameError object>"
p13
sS'__setattr__'
p14
S"<method-wrapper '__setattr__' of exceptions.NameError object>"
p15
sS'__reduce_ex__'
p16
S'<built-in method __reduce_ex__ of exceptions.NameError object>'
p17
sS'__getslice__'
p18
S"<method-wrapper '__getslice__' of exceptions.NameError object>"
p19
sS'__getitem__'
p20
S"<method-wrapper '__getitem__' of exceptions.NameError object>"
p21
sS'__setstate__'
p22
S'<built-in method __setstate__ of exceptions.NameError object>'
p23
sS'__reduce__'
p24
S'<built-in method __reduce__ of exceptions.NameError object>'
p25
sS'__str__'
p26
S"<method-wrapper '__str__' of exceptions.NameError object>"
p27
sS'__format__'
p28
S'<built-in method __format__ of exceptions.NameError object>'
p29
sS'__getattribute__'
p30
S"<method-wrapper '__getattribute__' of exceptions.NameError object>"
p31
sS'__class__'
p32
S"<type 'exceptions.NameError'>"
p33
sS'__unicode__'
p34
S'<built-in method __unicode__ of exceptions.NameError object>'
p35
sS'__delattr__'
p36
S"<method-wrapper '__delattr__' of exceptions.NameError object>"
p37
sS'__subclasshook__'
p38
S'<built-in method __subclasshook__ of type object>'
p39
sS'__repr__'
p40
S"<method-wrapper '__repr__' of exceptions.NameError object>"
p41
sS'args'
p42
S'("name \'form\' is not defined",)'
p43
sS'__dict__'
p44
S'{}'
p45
sS'__sizeof__'
p46
S'<built-in method __sizeof__ of exceptions.NameError object>'
p47
sS'__doc__'
p48
S"'Name not found globally.'"
p49
sS'__init__'
p50
S"<method-wrapper '__init__' of exceptions.NameError object>"
p51
sS'__new__'
p52
S'<built-in method __new__ of type object>'
p53
ssS'evalue'
p54
S"name 'form' is not defined"
p55
sS'request'
p56
ccopy_reg
_reconstructor
p57
(cgluon.html
BEAUTIFY
p58
c__builtin__
object
p59
NtRp60
(dp61
S'attributes'
p62
(dp63
sS'components'
p64
(lp65
g57
(cgluon.html
TABLE
p66
g59
NtRp67
(dp68
g62
(dp69
S'level'
p70
I5
ssS'parent'
p71
Nsg64
(lp72
g57
(cgluon.html
TR
p73
g59
NtRp74
(dp75
g62
(dp76
sg71
g67
sg64
(lp77
g57
(cgluon.html
TD
p78
g59
NtRp79
(dp80
g62
(dp81
S'_style'
p82
S'font-weight:bold;vertical-align:top'
p83
ssg71
g74
sg64
(lp84
S'ajax'
p85
asbag57
(g78
g59
NtRp86
(dp87
g62
(dp88
S'_valign'
p89
S'top'
p90
ssg71
g74
sg64
(lp91
S':'
asbag57
(g78
g59
NtRp92
(dp93
g62
(dp94
sg71
g74
sg64
(lp95
g57
(g58
g59
NtRp96
(dp97
g62
(dp98
g70
I5
ssg71
g92
sg64
(lp99
S'False'
p100
asbasbasbag57
(g73
g59
NtRp101
(dp102
g62
(dp103
sg71
g67
sg64
(lp104
g57
(g78
g59
NtRp105
(dp106
g62
(dp107
g82
g83
ssg71
g101
sg64
(lp108
S'application'
p109
asbag57
(g78
g59
NtRp110
(dp111
g62
(dp112
g89
g90
ssg71
g101
sg64
(lp113
S':'
asbag57
(g78
g59
NtRp114
(dp115
g62
(dp116
sg71
g101
sg64
(lp117
g57
(g58
g59
NtRp118
(dp119
g62
(dp120
g70
I5
ssg71
g114
sg64
(lp121
S'telefam'
p122
asbasbasbag57
(g73
g59
NtRp123
(dp124
g62
(dp125
sg71
g67
sg64
(lp126
g57
(g78
g59
NtRp127
(dp128
g62
(dp129
g82
g83
ssg71
g123
sg64
(lp130
g42
asbag57
(g78
g59
NtRp131
(dp132
g62
(dp133
g89
g90
ssg71
g123
sg64
(lp134
S':'
asbag57
(g78
g59
NtRp135
(dp136
g62
(dp137
sg71
g123
sg64
(lp138
g57
(g58
g59
NtRp139
(dp140
g62
(dp141
g70
I5
ssg71
g135
sg64
(lp142
g57
(g66
g59
NtRp143
(dp144
g62
(dp145
g70
I4
ssg71
Nsg64
(lp146
g57
(g73
g59
NtRp147
(dp148
g62
(dp149
sg71
g143
sg64
(lp150
g57
(g78
g59
NtRp151
(dp152
g62
(dp153
sg71
g147
sg64
(lp154
g57
(g58
g59
NtRp155
(dp156
g62
(dp157
g70
I4
ssg71
g151
sg64
(lp158
S'profile'
p159
asbasbasbasbasbasbasbag57
(g73
g59
NtRp160
(dp161
g62
(dp162
sg71
g67
sg64
(lp163
g57
(g78
g59
NtRp164
(dp165
g62
(dp166
g82
g83
ssg71
g160
sg64
(lp167
S'body'
p168
asbag57
(g78
g59
NtRp169
(dp170
g62
(dp171
g89
g90
ssg71
g160
sg64
(lp172
S':'
asbag57
(g78
g59
NtRp173
(dp174
g62
(dp175
sg71
g160
sg64
(lp176
g57
(g58
g59
NtRp177
(dp178
g62
(dp179
g70
I5
ssg71
g173
sg64
(lp180
S"<open file '<fdopen>', mode 'w+b' at 0xa67b700>"
p181
asbasbasbag57
(g73
g59
NtRp182
(dp183
g62
(dp184
sg71
g67
sg64
(lp185
g57
(g78
g59
NtRp186
(dp187
g62
(dp188
g82
g83
ssg71
g182
sg64
(lp189
S'client'
p190
asbag57
(g78
g59
NtRp191
(dp192
g62
(dp193
g89
g90
ssg71
g182
sg64
(lp194
S':'
asbag57
(g78
g59
NtRp195
(dp196
g62
(dp197
sg71
g182
sg64
(lp198
g57
(g58
g59
NtRp199
(dp200
g62
(dp201
g70
I5
ssg71
g195
sg64
(lp202
S'127.0.0.1'
p203
asbasbasbag57
(g73
g59
NtRp204
(dp205
g62
(dp206
sg71
g67
sg64
(lp207
g57
(g78
g59
NtRp208
(dp209
g62
(dp210
g82
g83
ssg71
g204
sg64
(lp211
S'controller'
p212
asbag57
(g78
g59
NtRp213
(dp214
g62
(dp215
g89
g90
ssg71
g204
sg64
(lp216
S':'
asbag57
(g78
g59
NtRp217
(dp218
g62
(dp219
sg71
g204
sg64
(lp220
g57
(g58
g59
NtRp221
(dp222
g62
(dp223
g70
I5
ssg71
g217
sg64
(lp224
S'default'
p225
asbasbasbag57
(g73
g59
NtRp226
(dp227
g62
(dp228
sg71
g67
sg64
(lp229
g57
(g78
g59
NtRp230
(dp231
g62
(dp232
g82
g83
ssg71
g226
sg64
(lp233
S'cookies'
p234
asbag57
(g78
g59
NtRp235
(dp236
g62
(dp237
g89
g90
ssg71
g226
sg64
(lp238
S':'
asbag57
(g78
g59
NtRp239
(dp240
g62
(dp241
sg71
g226
sg64
(lp242
g57
(g58
g59
NtRp243
(dp244
g62
(dp245
g70
I5
ssg71
g239
sg64
(lp246
g57
(g66
g59
NtRp247
(dp248
g62
(dp249
g70
I4
ssg71
Nsg64
(lp250
g57
(g73
g59
NtRp251
(dp252
g62
(dp253
sg71
g247
sg64
(lp254
g57
(g78
g59
NtRp255
(dp256
g62
(dp257
g82
g83
ssg71
g251
sg64
(lp258
S'session_id_admin'
p259
asbag57
(g78
g59
NtRp260
(dp261
g62
(dp262
g89
g90
ssg71
g251
sg64
(lp263
S':'
asbag57
(g78
g59
NtRp264
(dp265
g62
(dp266
sg71
g251
sg64
(lp267
g57
(g58
g59
NtRp268
(dp269
g62
(dp270
g70
I4
ssg71
g264
sg64
(lp271
g57
(g66
g59
NtRp272
(dp273
g62
(dp274
g70
I3
ssg71
Nsg64
(lp275
g57
(g73
g59
NtRp276
(dp277
g62
(dp278
sg71
g272
sg64
(lp279
g57
(g78
g59
NtRp280
(dp281
g62
(dp282
g82
g83
ssg71
g276
sg64
(lp283
S'comment'
p284
asbag57
(g78
g59
NtRp285
(dp286
g62
(dp287
g89
g90
ssg71
g276
sg64
(lp288
S':'
asbag57
(g78
g59
NtRp289
(dp290
g62
(dp291
sg71
g276
sg64
(lp292
g57
(g58
g59
NtRp293
(dp294
g62
(dp295
g70
I3
ssg71
g289
sg64
(lp296
S''
asbasbasbag57
(g73
g59
NtRp297
(dp298
g62
(dp299
sg71
g272
sg64
(lp300
g57
(g78
g59
NtRp301
(dp302
g62
(dp303
g82
g83
ssg71
g297
sg64
(lp304
S'domain'
p305
asbag57
(g78
g59
NtRp306
(dp307
g62
(dp308
g89
g90
ssg71
g297
sg64
(lp309
S':'
asbag57
(g78
g59
NtRp310
(dp311
g62
(dp312
sg71
g297
sg64
(lp313
g57
(g58
g59
NtRp314
(dp315
g62
(dp316
g70
I3
ssg71
g310
sg64
(lp317
S''
asbasbasbag57
(g73
g59
NtRp318
(dp319
g62
(dp320
sg71
g272
sg64
(lp321
g57
(g78
g59
NtRp322
(dp323
g62
(dp324
g82
g83
ssg71
g318
sg64
(lp325
S'expires'
p326
asbag57
(g78
g59
NtRp327
(dp328
g62
(dp329
g89
g90
ssg71
g318
sg64
(lp330
S':'
asbag57
(g78
g59
NtRp331
(dp332
g62
(dp333
sg71
g318
sg64
(lp334
g57
(g58
g59
NtRp335
(dp336
g62
(dp337
g70
I3
ssg71
g331
sg64
(lp338
S''
asbasbasbag57
(g73
g59
NtRp339
(dp340
g62
(dp341
sg71
g272
sg64
(lp342
g57
(g78
g59
NtRp343
(dp344
g62
(dp345
g82
g83
ssg71
g339
sg64
(lp346
S'httponly'
p347
asbag57
(g78
g59
NtRp348
(dp349
g62
(dp350
g89
g90
ssg71
g339
sg64
(lp351
S':'
asbag57
(g78
g59
NtRp352
(dp353
g62
(dp354
sg71
g339
sg64
(lp355
g57
(g58
g59
NtRp356
(dp357
g62
(dp358
g70
I3
ssg71
g352
sg64
(lp359
S''
asbasbasbag57
(g73
g59
NtRp360
(dp361
g62
(dp362
sg71
g272
sg64
(lp363
g57
(g78
g59
NtRp364
(dp365
g62
(dp366
g82
g83
ssg71
g360
sg64
(lp367
S'max-age'
p368
asbag57
(g78
g59
NtRp369
(dp370
g62
(dp371
g89
g90
ssg71
g360
sg64
(lp372
S':'
asbag57
(g78
g59
NtRp373
(dp374
g62
(dp375
sg71
g360
sg64
(lp376
g57
(g58
g59
NtRp377
(dp378
g62
(dp379
g70
I3
ssg71
g373
sg64
(lp380
S''
asbasbasbag57
(g73
g59
NtRp381
(dp382
g62
(dp383
sg71
g272
sg64
(lp384
g57
(g78
g59
NtRp385
(dp386
g62
(dp387
g82
g83
ssg71
g381
sg64
(lp388
S'path'
p389
asbag57
(g78
g59
NtRp390
(dp391
g62
(dp392
g89
g90
ssg71
g381
sg64
(lp393
S':'
asbag57
(g78
g59
NtRp394
(dp395
g62
(dp396
sg71
g381
sg64
(lp397
g57
(g58
g59
NtRp398
(dp399
g62
(dp400
g70
I3
ssg71
g394
sg64
(lp401
S''
asbasbasbag57
(g73
g59
NtRp402
(dp403
g62
(dp404
sg71
g272
sg64
(lp405
g57
(g78
g59
NtRp406
(dp407
g62
(dp408
g82
g83
ssg71
g402
sg64
(lp409
S'secure'
p410
asbag57
(g78
g59
NtRp411
(dp412
g62
(dp413
g89
g90
ssg71
g402
sg64
(lp414
S':'
asbag57
(g78
g59
NtRp415
(dp416
g62
(dp417
sg71
g402
sg64
(lp418
g57
(g58
g59
NtRp419
(dp420
g62
(dp421
g70
I3
ssg71
g415
sg64
(lp422
S''
asbasbasbag57
(g73
g59
NtRp423
(dp424
g62
(dp425
sg71
g272
sg64
(lp426
g57
(g78
g59
NtRp427
(dp428
g62
(dp429
g82
g83
ssg71
g423
sg64
(lp430
S'version'
p431
asbag57
(g78
g59
NtRp432
(dp433
g62
(dp434
g89
g90
ssg71
g423
sg64
(lp435
S':'
asbag57
(g78
g59
NtRp436
(dp437
g62
(dp438
sg71
g423
sg64
(lp439
g57
(g58
g59
NtRp440
(dp441
g62
(dp442
g70
I3
ssg71
g436
sg64
(lp443
S''
asbasbasbasbasbasbasbag57
(g73
g59
NtRp444
(dp445
g62
(dp446
sg71
g247
sg64
(lp447
g57
(g78
g59
NtRp448
(dp449
g62
(dp450
g82
g83
ssg71
g444
sg64
(lp451
S'session_id_telefam'
p452
asbag57
(g78
g59
NtRp453
(dp454
g62
(dp455
g89
g90
ssg71
g444
sg64
(lp456
S':'
asbag57
(g78
g59
NtRp457
(dp458
g62
(dp459
sg71
g444
sg64
(lp460
g57
(g58
g59
NtRp461
(dp462
g62
(dp463
g70
I4
ssg71
g457
sg64
(lp464
g57
(g66
g59
NtRp465
(dp466
g62
(dp467
g70
I3
ssg71
Nsg64
(lp468
g57
(g73
g59
NtRp469
(dp470
g62
(dp471
sg71
g465
sg64
(lp472
g57
(g78
g59
NtRp473
(dp474
g62
(dp475
g82
g83
ssg71
g469
sg64
(lp476
g284
asbag57
(g78
g59
NtRp477
(dp478
g62
(dp479
g89
g90
ssg71
g469
sg64
(lp480
S':'
asbag57
(g78
g59
NtRp481
(dp482
g62
(dp483
sg71
g469
sg64
(lp484
g57
(g58
g59
NtRp485
(dp486
g62
(dp487
g70
I3
ssg71
g481
sg64
(lp488
S''
asbasbasbag57
(g73
g59
NtRp489
(dp490
g62
(dp491
sg71
g465
sg64
(lp492
g57
(g78
g59
NtRp493
(dp494
g62
(dp495
g82
g83
ssg71
g489
sg64
(lp496
g305
asbag57
(g78
g59
NtRp497
(dp498
g62
(dp499
g89
g90
ssg71
g489
sg64
(lp500
S':'
asbag57
(g78
g59
NtRp501
(dp502
g62
(dp503
sg71
g489
sg64
(lp504
g57
(g58
g59
NtRp505
(dp506
g62
(dp507
g70
I3
ssg71
g501
sg64
(lp508
S''
asbasbasbag57
(g73
g59
NtRp509
(dp510
g62
(dp511
sg71
g465
sg64
(lp512
g57
(g78
g59
NtRp513
(dp514
g62
(dp515
g82
g83
ssg71
g509
sg64
(lp516
g326
asbag57
(g78
g59
NtRp517
(dp518
g62
(dp519
g89
g90
ssg71
g509
sg64
(lp520
S':'
asbag57
(g78
g59
NtRp521
(dp522
g62
(dp523
sg71
g509
sg64
(lp524
g57
(g58
g59
NtRp525
(dp526
g62
(dp527
g70
I3
ssg71
g521
sg64
(lp528
S''
asbasbasbag57
(g73
g59
NtRp529
(dp530
g62
(dp531
sg71
g465
sg64
(lp532
g57
(g78
g59
NtRp533
(dp534
g62
(dp535
g82
g83
ssg71
g529
sg64
(lp536
g347
asbag57
(g78
g59
NtRp537
(dp538
g62
(dp539
g89
g90
ssg71
g529
sg64
(lp540
S':'
asbag57
(g78
g59
NtRp541
(dp542
g62
(dp543
sg71
g529
sg64
(lp544
g57
(g58
g59
NtRp545
(dp546
g62
(dp547
g70
I3
ssg71
g541
sg64
(lp548
S''
asbasbasbag57
(g73
g59
NtRp549
(dp550
g62
(dp551
sg71
g465
sg64
(lp552
g57
(g78
g59
NtRp553
(dp554
g62
(dp555
g82
g83
ssg71
g549
sg64
(lp556
g368
asbag57
(g78
g59
NtRp557
(dp558
g62
(dp559
g89
g90
ssg71
g549
sg64
(lp560
S':'
asbag57
(g78
g59
NtRp561
(dp562
g62
(dp563
sg71
g549
sg64
(lp564
g57
(g58
g59
NtRp565
(dp566
g62
(dp567
g70
I3
ssg71
g561
sg64
(lp568
S''
asbasbasbag57
(g73
g59
NtRp569
(dp570
g62
(dp571
sg71
g465
sg64
(lp572
g57
(g78
g59
NtRp573
(dp574
g62
(dp575
g82
g83
ssg71
g569
sg64
(lp576
g389
asbag57
(g78
g59
NtRp577
(dp578
g62
(dp579
g89
g90
ssg71
g569
sg64
(lp580
S':'
asbag57
(g78
g59
NtRp581
(dp582
g62
(dp583
sg71
g569
sg64
(lp584
g57
(g58
g59
NtRp585
(dp586
g62
(dp587
g70
I3
ssg71
g581
sg64
(lp588
S''
asbasbasbag57
(g73
g59
NtRp589
(dp590
g62
(dp591
sg71
g465
sg64
(lp592
g57
(g78
g59
NtRp593
(dp594
g62
(dp595
g82
g83
ssg71
g589
sg64
(lp596
g410
asbag57
(g78
g59
NtRp597
(dp598
g62
(dp599
g89
g90
ssg71
g589
sg64
(lp600
S':'
asbag57
(g78
g59
NtRp601
(dp602
g62
(dp603
sg71
g589
sg64
(lp604
g57
(g58
g59
NtRp605
(dp606
g62
(dp607
g70
I3
ssg71
g601
sg64
(lp608
S''
asbasbasbag57
(g73
g59
NtRp609
(dp610
g62
(dp611
sg71
g465
sg64
(lp612
g57
(g78
g59
NtRp613
(dp614
g62
(dp615
g82
g83
ssg71
g609
sg64
(lp616
g431
asbag57
(g78
g59
NtRp617
(dp618
g62
(dp619
g89
g90
ssg71
g609
sg64
(lp620
S':'
asbag57
(g78
g59
NtRp621
(dp622
g62
(dp623
sg71
g609
sg64
(lp624
g57
(g58
g59
NtRp625
(dp626
g62
(dp627
g70
I3
ssg71
g621
sg64
(lp628
S''
asbasbasbasbasbasbasbasbasbasbasbag57
(g73
g59
NtRp629
(dp630
g62
(dp631
sg71
g67
sg64
(lp632
g57
(g78
g59
NtRp633
(dp634
g62
(dp635
g82
g83
ssg71
g629
sg64
(lp636
S'env'
p637
asbag57
(g78
g59
NtRp638
(dp639
g62
(dp640
g89
g90
ssg71
g629
sg64
(lp641
S':'
asbag57
(g78
g59
NtRp642
(dp643
g62
(dp644
sg71
g629
sg64
(lp645
g57
(g58
g59
NtRp646
(dp647
g62
(dp648
g70
I5
ssg71
g642
sg64
(lp649
g57
(g66
g59
NtRp650
(dp651
g62
(dp652
g70
I4
ssg71
Nsg64
(lp653
g57
(g73
g59
NtRp654
(dp655
g62
(dp656
sg71
g650
sg64
(lp657
g57
(g78
g59
NtRp658
(dp659
g62
(dp660
g82
g83
ssg71
g654
sg64
(lp661
S'app_folders'
p662
asbag57
(g78
g59
NtRp663
(dp664
g62
(dp665
g89
g90
ssg71
g654
sg64
(lp666
S':'
asbag57
(g78
g59
NtRp667
(dp668
g62
(dp669
sg71
g654
sg64
(lp670
g57
(g58
g59
NtRp671
(dp672
g62
(dp673
g70
I4
ssg71
g667
sg64
(lp674
S"set(['/home/alfem/alfem/prog/telefam/server/web2py/applications/admin/', '/home/alfem/alfem/prog/telefam/server/web2py/applications/telefam/'])"
p675
asbasbasbag57
(g73
g59
NtRp676
(dp677
g62
(dp678
sg71
g650
sg64
(lp679
g57
(g78
g59
NtRp680
(dp681
g62
(dp682
g82
g83
ssg71
g676
sg64
(lp683
S'applications_parent'
p684
asbag57
(g78
g59
NtRp685
(dp686
g62
(dp687
g89
g90
ssg71
g676
sg64
(lp688
S':'
asbag57
(g78
g59
NtRp689
(dp690
g62
(dp691
sg71
g676
sg64
(lp692
g57
(g58
g59
NtRp693
(dp694
g62
(dp695
g70
I4
ssg71
g689
sg64
(lp696
S'/home/alfem/alfem/prog/telefam/server/web2py'
p697
asbasbasbag57
(g73
g59
NtRp698
(dp699
g62
(dp700
sg71
g650
sg64
(lp701
g57
(g78
g59
NtRp702
(dp703
g62
(dp704
g82
g83
ssg71
g698
sg64
(lp705
S'cmd_args'
p706
asbag57
(g78
g59
NtRp707
(dp708
g62
(dp709
g89
g90
ssg71
g698
sg64
(lp710
S':'
asbag57
(g78
g59
NtRp711
(dp712
g62
(dp713
sg71
g698
sg64
(lp714
g57
(g58
g59
NtRp715
(dp716
g62
(dp717
g70
I4
ssg71
g711
sg64
(lp718
g57
(g66
g59
NtRp719
(dp720
g62
(dp721
g70
I3
ssg71
Nsg64
(lp722
sbasbasbasbag57
(g73
g59
NtRp723
(dp724
g62
(dp725
sg71
g650
sg64
(lp726
g57
(g78
g59
NtRp727
(dp728
g62
(dp729
g82
g83
ssg71
g723
sg64
(lp730
S'cmd_options'
p731
asbag57
(g78
g59
NtRp732
(dp733
g62
(dp734
g89
g90
ssg71
g723
sg64
(lp735
S':'
asbag57
(g78
g59
NtRp736
(dp737
g62
(dp738
sg71
g723
sg64
(lp739
g57
(g58
g59
NtRp740
(dp741
g62
(dp742
g70
I4
ssg71
g736
sg64
(lp743
S"<Values at 0xa12a20c: {'verbose': False, 'ip': '127.0.0.1', 'shutdown_timeout': 5, 'taskbar': False, 'nocron': False, 'pid_filename': 'httpserver.pid', 'maxthreads': None, 'softcron': False, 'server_name': 'acala', 'bpython': False, 'nogui': False, 'port': 8000, 'extcron': False, 'debuglevel': 30, 'test': None, 'folder': '/home/alfem/alfem/prog/telefam/server/web2py', 'config': '', 'import_models': False, 'winservice': '', 'shell': None, 'run': '', 'log_filename': 'httpserver.log', 'args': [''], 'socket_timeout': 5, 'ssl_ca_certificate': None, 'scheduler': None, 'profiler_filename': None, 'ssl_private_key': '', 'password': '1234', 'request_queue_size': 5, 'ssl_certificate': '', 'cronjob': False, 'numthreads': None, 'quiet': False, 'interfaces': None, 'minthreads': None, 'timeout': 10, 'plain': False, 'nobanner': False}>"
p744
asbasbasbag57
(g73
g59
NtRp745
(dp746
g62
(dp747
sg71
g650
sg64
(lp748
g57
(g78
g59
NtRp749
(dp750
g62
(dp751
g82
g83
ssg71
g745
sg64
(lp752
S'content_length'
p753
asbag57
(g78
g59
NtRp754
(dp755
g62
(dp756
g89
g90
ssg71
g745
sg64
(lp757
S':'
asbag57
(g78
g59
NtRp758
(dp759
g62
(dp760
sg71
g745
sg64
(lp761
g57
(g58
g59
NtRp762
(dp763
g62
(dp764
g70
I4
ssg71
g758
sg64
(lp765
S'1109'
p766
asbasbasbag57
(g73
g59
NtRp767
(dp768
g62
(dp769
sg71
g650
sg64
(lp770
g57
(g78
g59
NtRp771
(dp772
g62
(dp773
g82
g83
ssg71
g767
sg64
(lp774
S'content_type'
p775
asbag57
(g78
g59
NtRp776
(dp777
g62
(dp778
g89
g90
ssg71
g767
sg64
(lp779
S':'
asbag57
(g78
g59
NtRp780
(dp781
g62
(dp782
sg71
g767
sg64
(lp783
g57
(g58
g59
NtRp784
(dp785
g62
(dp786
g70
I4
ssg71
g780
sg64
(lp787
S'multipart/form-data; boundary=---------------------------16467998811275750631765629557'
p788
asbasbasbag57
(g73
g59
NtRp789
(dp790
g62
(dp791
sg71
g650
sg64
(lp792
g57
(g78
g59
NtRp793
(dp794
g62
(dp795
g82
g83
ssg71
g789
sg64
(lp796
S'db_sessions'
p797
asbag57
(g78
g59
NtRp798
(dp799
g62
(dp800
g89
g90
ssg71
g789
sg64
(lp801
S':'
asbag57
(g78
g59
NtRp802
(dp803
g62
(dp804
sg71
g789
sg64
(lp805
g57
(g58
g59
NtRp806
(dp807
g62
(dp808
g70
I4
ssg71
g802
sg64
(lp809
S'set([])'
p810
asbasbasbag57
(g73
g59
NtRp811
(dp812
g62
(dp813
sg71
g650
sg64
(lp814
g57
(g78
g59
NtRp815
(dp816
g62
(dp817
g82
g83
ssg71
g811
sg64
(lp818
S'debugging'
p819
asbag57
(g78
g59
NtRp820
(dp821
g62
(dp822
g89
g90
ssg71
g811
sg64
(lp823
S':'
asbag57
(g78
g59
NtRp824
(dp825
g62
(dp826
sg71
g811
sg64
(lp827
g57
(g58
g59
NtRp828
(dp829
g62
(dp830
g70
I4
ssg71
g824
sg64
(lp831
g100
asbasbasbag57
(g73
g59
NtRp832
(dp833
g62
(dp834
sg71
g650
sg64
(lp835
g57
(g78
g59
NtRp836
(dp837
g62
(dp838
g82
g83
ssg71
g832
sg64
(lp839
S'gluon_parent'
p840
asbag57
(g78
g59
NtRp841
(dp842
g62
(dp843
g89
g90
ssg71
g832
sg64
(lp844
S':'
asbag57
(g78
g59
NtRp845
(dp846
g62
(dp847
sg71
g832
sg64
(lp848
g57
(g58
g59
NtRp849
(dp850
g62
(dp851
g70
I4
ssg71
g845
sg64
(lp852
S'/home/alfem/alfem/prog/telefam/server/web2py'
p853
asbasbasbag57
(g73
g59
NtRp854
(dp855
g62
(dp856
sg71
g650
sg64
(lp857
g57
(g78
g59
NtRp858
(dp859
g62
(dp860
g82
g83
ssg71
g854
sg64
(lp861
S'http_accept'
p862
asbag57
(g78
g59
NtRp863
(dp864
g62
(dp865
g89
g90
ssg71
g854
sg64
(lp866
S':'
asbag57
(g78
g59
NtRp867
(dp868
g62
(dp869
sg71
g854
sg64
(lp870
g57
(g58
g59
NtRp871
(dp872
g62
(dp873
g70
I4
ssg71
g867
sg64
(lp874
S'text/html,application/xhtml+xml,application/xml;q=0.9,*/*;q=0.8'
p875
asbasbasbag57
(g73
g59
NtRp876
(dp877
g62
(dp878
sg71
g650
sg64
(lp879
g57
(g78
g59
NtRp880
(dp881
g62
(dp882
g82
g83
ssg71
g876
sg64
(lp883
S'http_accept_charset'
p884
asbag57
(g78
g59
NtRp885
(dp886
g62
(dp887
g89
g90
ssg71
g876
sg64
(lp888
S':'
asbag57
(g78
g59
NtRp889
(dp890
g62
(dp891
sg71
g876
sg64
(lp892
g57
(g58
g59
NtRp893
(dp894
g62
(dp895
g70
I4
ssg71
g889
sg64
(lp896
S'ISO-8859-1,utf-8;q=0.7,*;q=0.7'
p897
asbasbasbag57
(g73
g59
NtRp898
(dp899
g62
(dp900
sg71
g650
sg64
(lp901
g57
(g78
g59
NtRp902
(dp903
g62
(dp904
g82
g83
ssg71
g898
sg64
(lp905
S'http_accept_encoding'
p906
asbag57
(g78
g59
NtRp907
(dp908
g62
(dp909
g89
g90
ssg71
g898
sg64
(lp910
S':'
asbag57
(g78
g59
NtRp911
(dp912
g62
(dp913
sg71
g898
sg64
(lp914
g57
(g58
g59
NtRp915
(dp916
g62
(dp917
g70
I4
ssg71
g911
sg64
(lp918
S'gzip, deflate'
p919
asbasbasbag57
(g73
g59
NtRp920
(dp921
g62
(dp922
sg71
g650
sg64
(lp923
g57
(g78
g59
NtRp924
(dp925
g62
(dp926
g82
g83
ssg71
g920
sg64
(lp927
S'http_accept_language'
p928
asbag57
(g78
g59
NtRp929
(dp930
g62
(dp931
g89
g90
ssg71
g920
sg64
(lp932
S':'
asbag57
(g78
g59
NtRp933
(dp934
g62
(dp935
sg71
g920
sg64
(lp936
g57
(g58
g59
NtRp937
(dp938
g62
(dp939
g70
I4
ssg71
g933
sg64
(lp940
S'es-es,es;q=0.8,en-us;q=0.5,en;q=0.3'
p941
asbasbasbag57
(g73
g59
NtRp942
(dp943
g62
(dp944
sg71
g650
sg64
(lp945
g57
(g78
g59
NtRp946
(dp947
g62
(dp948
g82
g83
ssg71
g942
sg64
(lp949
S'http_cache_control'
p950
asbag57
(g78
g59
NtRp951
(dp952
g62
(dp953
g89
g90
ssg71
g942
sg64
(lp954
S':'
asbag57
(g78
g59
NtRp955
(dp956
g62
(dp957
sg71
g942
sg64
(lp958
g57
(g58
g59
NtRp959
(dp960
g62
(dp961
g70
I4
ssg71
g955
sg64
(lp962
S'max-age=0'
p963
asbasbasbag57
(g73
g59
NtRp964
(dp965
g62
(dp966
sg71
g650
sg64
(lp967
g57
(g78
g59
NtRp968
(dp969
g62
(dp970
g82
g83
ssg71
g964
sg64
(lp971
S'http_connection'
p972
asbag57
(g78
g59
NtRp973
(dp974
g62
(dp975
g89
g90
ssg71
g964
sg64
(lp976
S':'
asbag57
(g78
g59
NtRp977
(dp978
g62
(dp979
sg71
g964
sg64
(lp980
g57
(g58
g59
NtRp981
(dp982
g62
(dp983
g70
I4
ssg71
g977
sg64
(lp984
S'keep-alive'
p985
asbasbasbag57
(g73
g59
NtRp986
(dp987
g62
(dp988
sg71
g650
sg64
(lp989
g57
(g78
g59
NtRp990
(dp991
g62
(dp992
g82
g83
ssg71
g986
sg64
(lp993
S'http_content_length'
p994
asbag57
(g78
g59
NtRp995
(dp996
g62
(dp997
g89
g90
ssg71
g986
sg64
(lp998
S':'
asbag57
(g78
g59
NtRp999
(dp1000
g62
(dp1001
sg71
g986
sg64
(lp1002
g57
(g58
g59
NtRp1003
(dp1004
g62
(dp1005
g70
I4
ssg71
g999
sg64
(lp1006
g766
asbasbasbag57
(g73
g59
NtRp1007
(dp1008
g62
(dp1009
sg71
g650
sg64
(lp1010
g57
(g78
g59
NtRp1011
(dp1012
g62
(dp1013
g82
g83
ssg71
g1007
sg64
(lp1014
S'http_content_type'
p1015
asbag57
(g78
g59
NtRp1016
(dp1017
g62
(dp1018
g89
g90
ssg71
g1007
sg64
(lp1019
S':'
asbag57
(g78
g59
NtRp1020
(dp1021
g62
(dp1022
sg71
g1007
sg64
(lp1023
g57
(g58
g59
NtRp1024
(dp1025
g62
(dp1026
g70
I4
ssg71
g1020
sg64
(lp1027
g788
asbasbasbag57
(g73
g59
NtRp1028
(dp1029
g62
(dp1030
sg71
g650
sg64
(lp1031
g57
(g78
g59
NtRp1032
(dp1033
g62
(dp1034
g82
g83
ssg71
g1028
sg64
(lp1035
S'http_cookie'
p1036
asbag57
(g78
g59
NtRp1037
(dp1038
g62
(dp1039
g89
g90
ssg71
g1028
sg64
(lp1040
S':'
asbag57
(g78
g59
NtRp1041
(dp1042
g62
(dp1043
sg71
g1028
sg64
(lp1044
g57
(g58
g59
NtRp1045
(dp1046
g62
(dp1047
g70
I4
ssg71
g1041
sg64
(lp1048
S'session_id_telefam=127.0.0.1-f7f620a6-fd63-4f72-b11a-b8325669ccbf; session_id_admin=127.0.0.1-eece3669-f609-4c4d-b7c8-7f75ae979e67'
p1049
asbasbasbag57
(g73
g59
NtRp1050
(dp1051
g62
(dp1052
sg71
g650
sg64
(lp1053
g57
(g78
g59
NtRp1054
(dp1055
g62
(dp1056
g82
g83
ssg71
g1050
sg64
(lp1057
S'http_host'
p1058
asbag57
(g78
g59
NtRp1059
(dp1060
g62
(dp1061
g89
g90
ssg71
g1050
sg64
(lp1062
S':'
asbag57
(g78
g59
NtRp1063
(dp1064
g62
(dp1065
sg71
g1050
sg64
(lp1066
g57
(g58
g59
NtRp1067
(dp1068
g62
(dp1069
g70
I4
ssg71
g1063
sg64
(lp1070
S'127.0.0.1:8000'
p1071
asbasbasbag57
(g73
g59
NtRp1072
(dp1073
g62
(dp1074
sg71
g650
sg64
(lp1075
g57
(g78
g59
NtRp1076
(dp1077
g62
(dp1078
g82
g83
ssg71
g1072
sg64
(lp1079
S'http_referer'
p1080
asbag57
(g78
g59
NtRp1081
(dp1082
g62
(dp1083
g89
g90
ssg71
g1072
sg64
(lp1084
S':'
asbag57
(g78
g59
NtRp1085
(dp1086
g62
(dp1087
sg71
g1072
sg64
(lp1088
g57
(g58
g59
NtRp1089
(dp1090
g62
(dp1091
g70
I4
ssg71
g1085
sg64
(lp1092
S'http://127.0.0.1:8000/telefam/default/user/profile'
p1093
asbasbasbag57
(g73
g59
NtRp1094
(dp1095
g62
(dp1096
sg71
g650
sg64
(lp1097
g57
(g78
g59
NtRp1098
(dp1099
g62
(dp1100
g82
g83
ssg71
g1094
sg64
(lp1101
S'http_user_agent'
p1102
asbag57
(g78
g59
NtRp1103
(dp1104
g62
(dp1105
g89
g90
ssg71
g1094
sg64
(lp1106
S':'
asbag57
(g78
g59
NtRp1107
(dp1108
g62
(dp1109
sg71
g1094
sg64
(lp1110
g57
(g58
g59
NtRp1111
(dp1112
g62
(dp1113
g70
I4
ssg71
g1107
sg64
(lp1114
S'Mozilla/5.0 (Ubuntu; X11; Linux i686; rv:8.0) Gecko/20100101 Firefox/8.0'
p1115
asbasbasbag57
(g73
g59
NtRp1116
(dp1117
g62
(dp1118
sg71
g650
sg64
(lp1119
g57
(g78
g59
NtRp1120
(dp1121
g62
(dp1122
g82
g83
ssg71
g1116
sg64
(lp1123
S'is_jython'
p1124
asbag57
(g78
g59
NtRp1125
(dp1126
g62
(dp1127
g89
g90
ssg71
g1116
sg64
(lp1128
S':'
asbag57
(g78
g59
NtRp1129
(dp1130
g62
(dp1131
sg71
g1116
sg64
(lp1132
g57
(g58
g59
NtRp1133
(dp1134
g62
(dp1135
g70
I4
ssg71
g1129
sg64
(lp1136
g100
asbasbasbag57
(g73
g59
NtRp1137
(dp1138
g62
(dp1139
sg71
g650
sg64
(lp1140
g57
(g78
g59
NtRp1141
(dp1142
g62
(dp1143
g82
g83
ssg71
g1137
sg64
(lp1144
S'is_pypy'
p1145
asbag57
(g78
g59
NtRp1146
(dp1147
g62
(dp1148
g89
g90
ssg71
g1137
sg64
(lp1149
S':'
asbag57
(g78
g59
NtRp1150
(dp1151
g62
(dp1152
sg71
g1137
sg64
(lp1153
g57
(g58
g59
NtRp1154
(dp1155
g62
(dp1156
g70
I4
ssg71
g1150
sg64
(lp1157
g100
asbasbasbag57
(g73
g59
NtRp1158
(dp1159
g62
(dp1160
sg71
g650
sg64
(lp1161
g57
(g78
g59
NtRp1162
(dp1163
g62
(dp1164
g82
g83
ssg71
g1158
sg64
(lp1165
S'path_info'
p1166
asbag57
(g78
g59
NtRp1167
(dp1168
g62
(dp1169
g89
g90
ssg71
g1158
sg64
(lp1170
S':'
asbag57
(g78
g59
NtRp1171
(dp1172
g62
(dp1173
sg71
g1158
sg64
(lp1174
g57
(g58
g59
NtRp1175
(dp1176
g62
(dp1177
g70
I4
ssg71
g1171
sg64
(lp1178
S'/telefam/default/user/profile'
p1179
asbasbasbag57
(g73
g59
NtRp1180
(dp1181
g62
(dp1182
sg71
g650
sg64
(lp1183
g57
(g78
g59
NtRp1184
(dp1185
g62
(dp1186
g82
g83
ssg71
g1180
sg64
(lp1187
S'query_string'
p1188
asbag57
(g78
g59
NtRp1189
(dp1190
g62
(dp1191
g89
g90
ssg71
g1180
sg64
(lp1192
S':'
asbag57
(g78
g59
NtRp1193
(dp1194
g62
(dp1195
sg71
g1180
sg64
(lp1196
g57
(g58
g59
NtRp1197
(dp1198
g62
(dp1199
g70
I4
ssg71
g1193
sg64
(lp1200
S''
asbasbasbag57
(g73
g59
NtRp1201
(dp1202
g62
(dp1203
sg71
g650
sg64
(lp1204
g57
(g78
g59
NtRp1205
(dp1206
g62
(dp1207
g82
g83
ssg71
g1201
sg64
(lp1208
S'remote_addr'
p1209
asbag57
(g78
g59
NtRp1210
(dp1211
g62
(dp1212
g89
g90
ssg71
g1201
sg64
(lp1213
S':'
asbag57
(g78
g59
NtRp1214
(dp1215
g62
(dp1216
sg71
g1201
sg64
(lp1217
g57
(g58
g59
NtRp1218
(dp1219
g62
(dp1220
g70
I4
ssg71
g1214
sg64
(lp1221
g203
asbasbasbag57
(g73
g59
NtRp1222
(dp1223
g62
(dp1224
sg71
g650
sg64
(lp1225
g57
(g78
g59
NtRp1226
(dp1227
g62
(dp1228
g82
g83
ssg71
g1222
sg64
(lp1229
S'remote_port'
p1230
asbag57
(g78
g59
NtRp1231
(dp1232
g62
(dp1233
g89
g90
ssg71
g1222
sg64
(lp1234
S':'
asbag57
(g78
g59
NtRp1235
(dp1236
g62
(dp1237
sg71
g1222
sg64
(lp1238
g57
(g58
g59
NtRp1239
(dp1240
g62
(dp1241
g70
I4
ssg71
g1235
sg64
(lp1242
S'59864'
p1243
asbasbasbag57
(g73
g59
NtRp1244
(dp1245
g62
(dp1246
sg71
g650
sg64
(lp1247
g57
(g78
g59
NtRp1248
(dp1249
g62
(dp1250
g82
g83
ssg71
g1244
sg64
(lp1251
S'request_method'
p1252
asbag57
(g78
g59
NtRp1253
(dp1254
g62
(dp1255
g89
g90
ssg71
g1244
sg64
(lp1256
S':'
asbag57
(g78
g59
NtRp1257
(dp1258
g62
(dp1259
sg71
g1244
sg64
(lp1260
g57
(g58
g59
NtRp1261
(dp1262
g62
(dp1263
g70
I4
ssg71
g1257
sg64
(lp1264
S'POST'
p1265
asbasbasbag57
(g73
g59
NtRp1266
(dp1267
g62
(dp1268
sg71
g650
sg64
(lp1269
g57
(g78
g59
NtRp1270
(dp1271
g62
(dp1272
g82
g83
ssg71
g1266
sg64
(lp1273
S'script_name'
p1274
asbag57
(g78
g59
NtRp1275
(dp1276
g62
(dp1277
g89
g90
ssg71
g1266
sg64
(lp1278
S':'
asbag57
(g78
g59
NtRp1279
(dp1280
g62
(dp1281
sg71
g1266
sg64
(lp1282
g57
(g58
g59
NtRp1283
(dp1284
g62
(dp1285
g70
I4
ssg71
g1279
sg64
(lp1286
S''
asbasbasbag57
(g73
g59
NtRp1287
(dp1288
g62
(dp1289
sg71
g650
sg64
(lp1290
g57
(g78
g59
NtRp1291
(dp1292
g62
(dp1293
g82
g83
ssg71
g1287
sg64
(lp1294
S'server_name'
p1295
asbag57
(g78
g59
NtRp1296
(dp1297
g62
(dp1298
g89
g90
ssg71
g1287
sg64
(lp1299
S':'
asbag57
(g78
g59
NtRp1300
(dp1301
g62
(dp1302
sg71
g1287
sg64
(lp1303
g57
(g58
g59
NtRp1304
(dp1305
g62
(dp1306
g70
I4
ssg71
g1300
sg64
(lp1307
S'acala'
p1308
asbasbasbag57
(g73
g59
NtRp1309
(dp1310
g62
(dp1311
sg71
g650
sg64
(lp1312
g57
(g78
g59
NtRp1313
(dp1314
g62
(dp1315
g82
g83
ssg71
g1309
sg64
(lp1316
S'server_port'
p1317
asbag57
(g78
g59
NtRp1318
(dp1319
g62
(dp1320
g89
g90
ssg71
g1309
sg64
(lp1321
S':'
asbag57
(g78
g59
NtRp1322
(dp1323
g62
(dp1324
sg71
g1309
sg64
(lp1325
g57
(g58
g59
NtRp1326
(dp1327
g62
(dp1328
g70
I4
ssg71
g1322
sg64
(lp1329
S'8000'
p1330
asbasbasbag57
(g73
g59
NtRp1331
(dp1332
g62
(dp1333
sg71
g650
sg64
(lp1334
g57
(g78
g59
NtRp1335
(dp1336
g62
(dp1337
g82
g83
ssg71
g1331
sg64
(lp1338
S'server_protocol'
p1339
asbag57
(g78
g59
NtRp1340
(dp1341
g62
(dp1342
g89
g90
ssg71
g1331
sg64
(lp1343
S':'
asbag57
(g78
g59
NtRp1344
(dp1345
g62
(dp1346
sg71
g1331
sg64
(lp1347
g57
(g58
g59
NtRp1348
(dp1349
g62
(dp1350
g70
I4
ssg71
g1344
sg64
(lp1351
S'HTTP/1.1'
p1352
asbasbasbag57
(g73
g59
NtRp1353
(dp1354
g62
(dp1355
sg71
g650
sg64
(lp1356
g57
(g78
g59
NtRp1357
(dp1358
g62
(dp1359
g82
g83
ssg71
g1353
sg64
(lp1360
S'server_software'
p1361
asbag57
(g78
g59
NtRp1362
(dp1363
g62
(dp1364
g89
g90
ssg71
g1353
sg64
(lp1365
S':'
asbag57
(g78
g59
NtRp1366
(dp1367
g62
(dp1368
sg71
g1353
sg64
(lp1369
g57
(g58
g59
NtRp1370
(dp1371
g62
(dp1372
g70
I4
ssg71
g1366
sg64
(lp1373
S'Rocket 1.2.4'
p1374
asbasbasbag57
(g73
g59
NtRp1375
(dp1376
g62
(dp1377
sg71
g650
sg64
(lp1378
g57
(g78
g59
NtRp1379
(dp1380
g62
(dp1381
g82
g83
ssg71
g1375
sg64
(lp1382
S'web2py_crontype'
p1383
asbag57
(g78
g59
NtRp1384
(dp1385
g62
(dp1386
g89
g90
ssg71
g1375
sg64
(lp1387
S':'
asbag57
(g78
g59
NtRp1388
(dp1389
g62
(dp1390
sg71
g1375
sg64
(lp1391
g57
(g58
g59
NtRp1392
(dp1393
g62
(dp1394
g70
I4
ssg71
g1388
sg64
(lp1395
S'hard'
p1396
asbasbasbag57
(g73
g59
NtRp1397
(dp1398
g62
(dp1399
sg71
g650
sg64
(lp1400
g57
(g78
g59
NtRp1401
(dp1402
g62
(dp1403
g82
g83
ssg71
g1397
sg64
(lp1404
S'web2py_path'
p1405
asbag57
(g78
g59
NtRp1406
(dp1407
g62
(dp1408
g89
g90
ssg71
g1397
sg64
(lp1409
S':'
asbag57
(g78
g59
NtRp1410
(dp1411
g62
(dp1412
sg71
g1397
sg64
(lp1413
g57
(g58
g59
NtRp1414
(dp1415
g62
(dp1416
g70
I4
ssg71
g1410
sg64
(lp1417
g697
asbasbasbag57
(g73
g59
NtRp1418
(dp1419
g62
(dp1420
sg71
g650
sg64
(lp1421
g57
(g78
g59
NtRp1422
(dp1423
g62
(dp1424
g82
g83
ssg71
g1418
sg64
(lp1425
S'web2py_version'
p1426
asbag57
(g78
g59
NtRp1427
(dp1428
g62
(dp1429
g89
g90
ssg71
g1418
sg64
(lp1430
S':'
asbag57
(g78
g59
NtRp1431
(dp1432
g62
(dp1433
sg71
g1418
sg64
(lp1434
g57
(g58
g59
NtRp1435
(dp1436
g62
(dp1437
g70
I4
ssg71
g1431
sg64
(lp1438
g57
(g66
g59
NtRp1439
(dp1440
g62
(dp1441
g70
I3
ssg71
Nsg64
(lp1442
g57
(g73
g59
NtRp1443
(dp1444
g62
(dp1445
sg71
g1439
sg64
(lp1446
g57
(g78
g59
NtRp1447
(dp1448
g62
(dp1449
sg71
g1443
sg64
(lp1450
g57
(g58
g59
NtRp1451
(dp1452
g62
(dp1453
g70
I3
ssg71
g1447
sg64
(lp1454
S'1'
asbasbasbag57
(g73
g59
NtRp1455
(dp1456
g62
(dp1457
sg71
g1439
sg64
(lp1458
g57
(g78
g59
NtRp1459
(dp1460
g62
(dp1461
sg71
g1455
sg64
(lp1462
g57
(g58
g59
NtRp1463
(dp1464
g62
(dp1465
g70
I3
ssg71
g1459
sg64
(lp1466
S'99'
p1467
asbasbasbag57
(g73
g59
NtRp1468
(dp1469
g62
(dp1470
sg71
g1439
sg64
(lp1471
g57
(g78
g59
NtRp1472
(dp1473
g62
(dp1474
sg71
g1468
sg64
(lp1475
g57
(g58
g59
NtRp1476
(dp1477
g62
(dp1478
g70
I3
ssg71
g1472
sg64
(lp1479
S'7'
asbasbasbag57
(g73
g59
NtRp1480
(dp1481
g62
(dp1482
sg71
g1439
sg64
(lp1483
g57
(g78
g59
NtRp1484
(dp1485
g62
(dp1486
sg71
g1480
sg64
(lp1487
g57
(g58
g59
NtRp1488
(dp1489
g62
(dp1490
g70
I3
ssg71
g1484
sg64
(lp1491
S'datetime.datetime(2012, 3, 4, 22, 12, 8)'
p1492
asbasbasbag57
(g73
g59
NtRp1493
(dp1494
g62
(dp1495
sg71
g1439
sg64
(lp1496
g57
(g78
g59
NtRp1497
(dp1498
g62
(dp1499
sg71
g1493
sg64
(lp1500
g57
(g58
g59
NtRp1501
(dp1502
g62
(dp1503
g70
I3
ssg71
g1497
sg64
(lp1504
S'stable'
p1505
asbasbasbasbasbasbasbag57
(g73
g59
NtRp1506
(dp1507
g62
(dp1508
sg71
g650
sg64
(lp1509
g57
(g78
g59
NtRp1510
(dp1511
g62
(dp1512
g82
g83
ssg71
g1506
sg64
(lp1513
S'wsgi_errors'
p1514
asbag57
(g78
g59
NtRp1515
(dp1516
g62
(dp1517
g89
g90
ssg71
g1506
sg64
(lp1518
S':'
asbag57
(g78
g59
NtRp1519
(dp1520
g62
(dp1521
sg71
g1506
sg64
(lp1522
g57
(g58
g59
NtRp1523
(dp1524
g62
(dp1525
g70
I4
ssg71
g1519
sg64
(lp1526
S"<open file '<stderr>', mode 'w' at 0xb77800d0>"
p1527
asbasbasbag57
(g73
g59
NtRp1528
(dp1529
g62
(dp1530
sg71
g650
sg64
(lp1531
g57
(g78
g59
NtRp1532
(dp1533
g62
(dp1534
g82
g83
ssg71
g1528
sg64
(lp1535
S'wsgi_file_wrapper'
p1536
asbag57
(g78
g59
NtRp1537
(dp1538
g62
(dp1539
g89
g90
ssg71
g1528
sg64
(lp1540
S':'
asbag57
(g78
g59
NtRp1541
(dp1542
g62
(dp1543
sg71
g1528
sg64
(lp1544
g57
(g58
g59
NtRp1545
(dp1546
g62
(dp1547
g70
I4
ssg71
g1541
sg64
(lp1548
S'<class wsgiref.util.FileWrapper at 0xa0f9e6c>'
p1549
asbasbasbag57
(g73
g59
NtRp1550
(dp1551
g62
(dp1552
sg71
g650
sg64
(lp1553
g57
(g78
g59
NtRp1554
(dp1555
g62
(dp1556
g82
g83
ssg71
g1550
sg64
(lp1557
S'wsgi_input'
p1558
asbag57
(g78
g59
NtRp1559
(dp1560
g62
(dp1561
g89
g90
ssg71
g1550
sg64
(lp1562
S':'
asbag57
(g78
g59
NtRp1563
(dp1564
g62
(dp1565
sg71
g1550
sg64
(lp1566
g57
(g58
g59
NtRp1567
(dp1568
g62
(dp1569
g70
I4
ssg71
g1563
sg64
(lp1570
S'<socket._fileobject object at 0xb005cac>'
p1571
asbasbasbag57
(g73
g59
NtRp1572
(dp1573
g62
(dp1574
sg71
g650
sg64
(lp1575
g57
(g78
g59
NtRp1576
(dp1577
g62
(dp1578
g82
g83
ssg71
g1572
sg64
(lp1579
S'wsgi_multiprocess'
p1580
asbag57
(g78
g59
NtRp1581
(dp1582
g62
(dp1583
g89
g90
ssg71
g1572
sg64
(lp1584
S':'
asbag57
(g78
g59
NtRp1585
(dp1586
g62
(dp1587
sg71
g1572
sg64
(lp1588
g57
(g58
g59
NtRp1589
(dp1590
g62
(dp1591
g70
I4
ssg71
g1585
sg64
(lp1592
g100
asbasbasbag57
(g73
g59
NtRp1593
(dp1594
g62
(dp1595
sg71
g650
sg64
(lp1596
g57
(g78
g59
NtRp1597
(dp1598
g62
(dp1599
g82
g83
ssg71
g1593
sg64
(lp1600
S'wsgi_multithread'
p1601
asbag57
(g78
g59
NtRp1602
(dp1603
g62
(dp1604
g89
g90
ssg71
g1593
sg64
(lp1605
S':'
asbag57
(g78
g59
NtRp1606
(dp1607
g62
(dp1608
sg71
g1593
sg64
(lp1609
g57
(g58
g59
NtRp1610
(dp1611
g62
(dp1612
g70
I4
ssg71
g1606
sg64
(lp1613
S'True'
p1614
asbasbasbag57
(g73
g59
NtRp1615
(dp1616
g62
(dp1617
sg71
g650
sg64
(lp1618
g57
(g78
g59
NtRp1619
(dp1620
g62
(dp1621
g82
g83
ssg71
g1615
sg64
(lp1622
S'wsgi_run_once'
p1623
asbag57
(g78
g59
NtRp1624
(dp1625
g62
(dp1626
g89
g90
ssg71
g1615
sg64
(lp1627
S':'
asbag57
(g78
g59
NtRp1628
(dp1629
g62
(dp1630
sg71
g1615
sg64
(lp1631
g57
(g58
g59
NtRp1632
(dp1633
g62
(dp1634
g70
I4
ssg71
g1628
sg64
(lp1635
g100
asbasbasbag57
(g73
g59
NtRp1636
(dp1637
g62
(dp1638
sg71
g650
sg64
(lp1639
g57
(g78
g59
NtRp1640
(dp1641
g62
(dp1642
g82
g83
ssg71
g1636
sg64
(lp1643
S'wsgi_url_scheme'
p1644
asbag57
(g78
g59
NtRp1645
(dp1646
g62
(dp1647
g89
g90
ssg71
g1636
sg64
(lp1648
S':'
asbag57
(g78
g59
NtRp1649
(dp1650
g62
(dp1651
sg71
g1636
sg64
(lp1652
g57
(g58
g59
NtRp1653
(dp1654
g62
(dp1655
g70
I4
ssg71
g1649
sg64
(lp1656
S'http'
p1657
asbasbasbag57
(g73
g59
NtRp1658
(dp1659
g62
(dp1660
sg71
g650
sg64
(lp1661
g57
(g78
g59
NtRp1662
(dp1663
g62
(dp1664
g82
g83
ssg71
g1658
sg64
(lp1665
S'wsgi_version'
p1666
asbag57
(g78
g59
NtRp1667
(dp1668
g62
(dp1669
g89
g90
ssg71
g1658
sg64
(lp1670
S':'
asbag57
(g78
g59
NtRp1671
(dp1672
g62
(dp1673
sg71
g1658
sg64
(lp1674
g57
(g58
g59
NtRp1675
(dp1676
g62
(dp1677
g70
I4
ssg71
g1671
sg64
(lp1678
g57
(g66
g59
NtRp1679
(dp1680
g62
(dp1681
g70
I3
ssg71
Nsg64
(lp1682
g57
(g73
g59
NtRp1683
(dp1684
g62
(dp1685
sg71
g1679
sg64
(lp1686
g57
(g78
g59
NtRp1687
(dp1688
g62
(dp1689
sg71
g1683
sg64
(lp1690
g57
(g58
g59
NtRp1691
(dp1692
g62
(dp1693
g70
I3
ssg71
g1687
sg64
(lp1694
S'1'
asbasbasbag57
(g73
g59
NtRp1695
(dp1696
g62
(dp1697
sg71
g1679
sg64
(lp1698
g57
(g78
g59
NtRp1699
(dp1700
g62
(dp1701
sg71
g1695
sg64
(lp1702
g57
(g58
g59
NtRp1703
(dp1704
g62
(dp1705
g70
I3
ssg71
g1699
sg64
(lp1706
S'0'
asbasbasbasbasbasbasbasbasbasbasbag57
(g73
g59
NtRp1707
(dp1708
g62
(dp1709
sg71
g67
sg64
(lp1710
g57
(g78
g59
NtRp1711
(dp1712
g62
(dp1713
g82
g83
ssg71
g1707
sg64
(lp1714
S'extension'
p1715
asbag57
(g78
g59
NtRp1716
(dp1717
g62
(dp1718
g89
g90
ssg71
g1707
sg64
(lp1719
S':'
asbag57
(g78
g59
NtRp1720
(dp1721
g62
(dp1722
sg71
g1707
sg64
(lp1723
g57
(g58
g59
NtRp1724
(dp1725
g62
(dp1726
g70
I5
ssg71
g1720
sg64
(lp1727
S'html'
p1728
asbasbasbag57
(g73
g59
NtRp1729
(dp1730
g62
(dp1731
sg71
g67
sg64
(lp1732
g57
(g78
g59
NtRp1733
(dp1734
g62
(dp1735
g82
g83
ssg71
g1729
sg64
(lp1736
S'folder'
p1737
asbag57
(g78
g59
NtRp1738
(dp1739
g62
(dp1740
g89
g90
ssg71
g1729
sg64
(lp1741
S':'
asbag57
(g78
g59
NtRp1742
(dp1743
g62
(dp1744
sg71
g1729
sg64
(lp1745
g57
(g58
g59
NtRp1746
(dp1747
g62
(dp1748
g70
I5
ssg71
g1742
sg64
(lp1749
S'/home/alfem/alfem/prog/telefam/server/web2py/applications/telefam/'
p1750
asbasbasbag57
(g73
g59
NtRp1751
(dp1752
g62
(dp1753
sg71
g67
sg64
(lp1754
g57
(g78
g59
NtRp1755
(dp1756
g62
(dp1757
g82
g83
ssg71
g1751
sg64
(lp1758
S'function'
p1759
asbag57
(g78
g59
NtRp1760
(dp1761
g62
(dp1762
g89
g90
ssg71
g1751
sg64
(lp1763
S':'
asbag57
(g78
g59
NtRp1764
(dp1765
g62
(dp1766
sg71
g1751
sg64
(lp1767
g57
(g58
g59
NtRp1768
(dp1769
g62
(dp1770
g70
I5
ssg71
g1764
sg64
(lp1771
S'user'
p1772
asbasbasbag57
(g73
g59
NtRp1773
(dp1774
g62
(dp1775
sg71
g67
sg64
(lp1776
g57
(g78
g59
NtRp1777
(dp1778
g62
(dp1779
g82
g83
ssg71
g1773
sg64
(lp1780
S'get_vars'
p1781
asbag57
(g78
g59
NtRp1782
(dp1783
g62
(dp1784
g89
g90
ssg71
g1773
sg64
(lp1785
S':'
asbag57
(g78
g59
NtRp1786
(dp1787
g62
(dp1788
sg71
g1773
sg64
(lp1789
g57
(g58
g59
NtRp1790
(dp1791
g62
(dp1792
g70
I5
ssg71
g1786
sg64
(lp1793
g57
(g66
g59
NtRp1794
(dp1795
g62
(dp1796
g70
I4
ssg71
Nsg64
(lp1797
sbasbasbasbag57
(g73
g59
NtRp1798
(dp1799
g62
(dp1800
sg71
g67
sg64
(lp1801
g57
(g78
g59
NtRp1802
(dp1803
g62
(dp1804
g82
g83
ssg71
g1798
sg64
(lp1805
S'global_settings'
p1806
asbag57
(g78
g59
NtRp1807
(dp1808
g62
(dp1809
g89
g90
ssg71
g1798
sg64
(lp1810
S':'
asbag57
(g78
g59
NtRp1811
(dp1812
g62
(dp1813
sg71
g1798
sg64
(lp1814
g57
(g58
g59
NtRp1815
(dp1816
g62
(dp1817
g70
I5
ssg71
g1811
sg64
(lp1818
g57
(g66
g59
NtRp1819
(dp1820
g62
(dp1821
g70
I4
ssg71
Nsg64
(lp1822
g57
(g73
g59
NtRp1823
(dp1824
g62
(dp1825
sg71
g1819
sg64
(lp1826
g57
(g78
g59
NtRp1827
(dp1828
g62
(dp1829
g82
g83
ssg71
g1823
sg64
(lp1830
g662
asbag57
(g78
g59
NtRp1831
(dp1832
g62
(dp1833
g89
g90
ssg71
g1823
sg64
(lp1834
S':'
asbag57
(g78
g59
NtRp1835
(dp1836
g62
(dp1837
sg71
g1823
sg64
(lp1838
g57
(g58
g59
NtRp1839
(dp1840
g62
(dp1841
g70
I4
ssg71
g1835
sg64
(lp1842
S"set(['/home/alfem/alfem/prog/telefam/server/web2py/applications/admin/', '/home/alfem/alfem/prog/telefam/server/web2py/applications/telefam/'])"
p1843
asbasbasbag57
(g73
g59
NtRp1844
(dp1845
g62
(dp1846
sg71
g1819
sg64
(lp1847
g57
(g78
g59
NtRp1848
(dp1849
g62
(dp1850
g82
g83
ssg71
g1844
sg64
(lp1851
g684
asbag57
(g78
g59
NtRp1852
(dp1853
g62
(dp1854
g89
g90
ssg71
g1844
sg64
(lp1855
S':'
asbag57
(g78
g59
NtRp1856
(dp1857
g62
(dp1858
sg71
g1844
sg64
(lp1859
g57
(g58
g59
NtRp1860
(dp1861
g62
(dp1862
g70
I4
ssg71
g1856
sg64
(lp1863
g697
asbasbasbag57
(g73
g59
NtRp1864
(dp1865
g62
(dp1866
sg71
g1819
sg64
(lp1867
g57
(g78
g59
NtRp1868
(dp1869
g62
(dp1870
g82
g83
ssg71
g1864
sg64
(lp1871
g706
asbag57
(g78
g59
NtRp1872
(dp1873
g62
(dp1874
g89
g90
ssg71
g1864
sg64
(lp1875
S':'
asbag57
(g78
g59
NtRp1876
(dp1877
g62
(dp1878
sg71
g1864
sg64
(lp1879
g57
(g58
g59
NtRp1880
(dp1881
g62
(dp1882
g70
I4
ssg71
g1876
sg64
(lp1883
g57
(g66
g59
NtRp1884
(dp1885
g62
(dp1886
g70
I3
ssg71
Nsg64
(lp1887
sbasbasbasbag57
(g73
g59
NtRp1888
(dp1889
g62
(dp1890
sg71
g1819
sg64
(lp1891
g57
(g78
g59
NtRp1892
(dp1893
g62
(dp1894
g82
g83
ssg71
g1888
sg64
(lp1895
g731
asbag57
(g78
g59
NtRp1896
(dp1897
g62
(dp1898
g89
g90
ssg71
g1888
sg64
(lp1899
S':'
asbag57
(g78
g59
NtRp1900
(dp1901
g62
(dp1902
sg71
g1888
sg64
(lp1903
g57
(g58
g59
NtRp1904
(dp1905
g62
(dp1906
g70
I4
ssg71
g1900
sg64
(lp1907
S"<Values at 0xa12a20c: {'verbose': False, 'ip': '127.0.0.1', 'shutdown_timeout': 5, 'taskbar': False, 'nocron': False, 'pid_filename': 'httpserver.pid', 'maxthreads': None, 'softcron': False, 'server_name': 'acala', 'bpython': False, 'nogui': False, 'port': 8000, 'extcron': False, 'debuglevel': 30, 'test': None, 'folder': '/home/alfem/alfem/prog/telefam/server/web2py', 'config': '', 'import_models': False, 'winservice': '', 'shell': None, 'run': '', 'log_filename': 'httpserver.log', 'args': [''], 'socket_timeout': 5, 'ssl_ca_certificate': None, 'scheduler': None, 'profiler_filename': None, 'ssl_private_key': '', 'password': '1234', 'request_queue_size': 5, 'ssl_certificate': '', 'cronjob': False, 'numthreads': None, 'quiet': False, 'interfaces': None, 'minthreads': None, 'timeout': 10, 'plain': False, 'nobanner': False}>"
p1908
asbasbasbag57
(g73
g59
NtRp1909
(dp1910
g62
(dp1911
sg71
g1819
sg64
(lp1912
g57
(g78
g59
NtRp1913
(dp1914
g62
(dp1915
g82
g83
ssg71
g1909
sg64
(lp1916
g797
asbag57
(g78
g59
NtRp1917
(dp1918
g62
(dp1919
g89
g90
ssg71
g1909
sg64
(lp1920
S':'
asbag57
(g78
g59
NtRp1921
(dp1922
g62
(dp1923
sg71
g1909
sg64
(lp1924
g57
(g58
g59
NtRp1925
(dp1926
g62
(dp1927
g70
I4
ssg71
g1921
sg64
(lp1928
S'set([])'
p1929
asbasbasbag57
(g73
g59
NtRp1930
(dp1931
g62
(dp1932
sg71
g1819
sg64
(lp1933
g57
(g78
g59
NtRp1934
(dp1935
g62
(dp1936
g82
g83
ssg71
g1930
sg64
(lp1937
g819
asbag57
(g78
g59
NtRp1938
(dp1939
g62
(dp1940
g89
g90
ssg71
g1930
sg64
(lp1941
S':'
asbag57
(g78
g59
NtRp1942
(dp1943
g62
(dp1944
sg71
g1930
sg64
(lp1945
g57
(g58
g59
NtRp1946
(dp1947
g62
(dp1948
g70
I4
ssg71
g1942
sg64
(lp1949
g100
asbasbasbag57
(g73
g59
NtRp1950
(dp1951
g62
(dp1952
sg71
g1819
sg64
(lp1953
g57
(g78
g59
NtRp1954
(dp1955
g62
(dp1956
g82
g83
ssg71
g1950
sg64
(lp1957
g840
asbag57
(g78
g59
NtRp1958
(dp1959
g62
(dp1960
g89
g90
ssg71
g1950
sg64
(lp1961
S':'
asbag57
(g78
g59
NtRp1962
(dp1963
g62
(dp1964
sg71
g1950
sg64
(lp1965
g57
(g58
g59
NtRp1966
(dp1967
g62
(dp1968
g70
I4
ssg71
g1962
sg64
(lp1969
g853
asbasbasbag57
(g73
g59
NtRp1970
(dp1971
g62
(dp1972
sg71
g1819
sg64
(lp1973
g57
(g78
g59
NtRp1974
(dp1975
g62
(dp1976
g82
g83
ssg71
g1970
sg64
(lp1977
g1124
asbag57
(g78
g59
NtRp1978
(dp1979
g62
(dp1980
g89
g90
ssg71
g1970
sg64
(lp1981
S':'
asbag57
(g78
g59
NtRp1982
(dp1983
g62
(dp1984
sg71
g1970
sg64
(lp1985
g57
(g58
g59
NtRp1986
(dp1987
g62
(dp1988
g70
I4
ssg71
g1982
sg64
(lp1989
g100
asbasbasbag57
(g73
g59
NtRp1990
(dp1991
g62
(dp1992
sg71
g1819
sg64
(lp1993
g57
(g78
g59
NtRp1994
(dp1995
g62
(dp1996
g82
g83
ssg71
g1990
sg64
(lp1997
g1145
asbag57
(g78
g59
NtRp1998
(dp1999
g62
(dp2000
g89
g90
ssg71
g1990
sg64
(lp2001
S':'
asbag57
(g78
g59
NtRp2002
(dp2003
g62
(dp2004
sg71
g1990
sg64
(lp2005
g57
(g58
g59
NtRp2006
(dp2007
g62
(dp2008
g70
I4
ssg71
g2002
sg64
(lp2009
g100
asbasbasbag57
(g73
g59
NtRp2010
(dp2011
g62
(dp2012
sg71
g1819
sg64
(lp2013
g57
(g78
g59
NtRp2014
(dp2015
g62
(dp2016
g82
g83
ssg71
g2010
sg64
(lp2017
g1383
asbag57
(g78
g59
NtRp2018
(dp2019
g62
(dp2020
g89
g90
ssg71
g2010
sg64
(lp2021
S':'
asbag57
(g78
g59
NtRp2022
(dp2023
g62
(dp2024
sg71
g2010
sg64
(lp2025
g57
(g58
g59
NtRp2026
(dp2027
g62
(dp2028
g70
I4
ssg71
g2022
sg64
(lp2029
g1396
asbasbasbag57
(g73
g59
NtRp2030
(dp2031
g62
(dp2032
sg71
g1819
sg64
(lp2033
g57
(g78
g59
NtRp2034
(dp2035
g62
(dp2036
g82
g83
ssg71
g2030
sg64
(lp2037
g1426
asbag57
(g78
g59
NtRp2038
(dp2039
g62
(dp2040
g89
g90
ssg71
g2030
sg64
(lp2041
S':'
asbag57
(g78
g59
NtRp2042
(dp2043
g62
(dp2044
sg71
g2030
sg64
(lp2045
g57
(g58
g59
NtRp2046
(dp2047
g62
(dp2048
g70
I4
ssg71
g2042
sg64
(lp2049
g57
(g66
g59
NtRp2050
(dp2051
g62
(dp2052
g70
I3
ssg71
Nsg64
(lp2053
g57
(g73
g59
NtRp2054
(dp2055
g62
(dp2056
sg71
g2050
sg64
(lp2057
g57
(g78
g59
NtRp2058
(dp2059
g62
(dp2060
sg71
g2054
sg64
(lp2061
g57
(g58
g59
NtRp2062
(dp2063
g62
(dp2064
g70
I3
ssg71
g2058
sg64
(lp2065
S'1'
asbasbasbag57
(g73
g59
NtRp2066
(dp2067
g62
(dp2068
sg71
g2050
sg64
(lp2069
g57
(g78
g59
NtRp2070
(dp2071
g62
(dp2072
sg71
g2066
sg64
(lp2073
g57
(g58
g59
NtRp2074
(dp2075
g62
(dp2076
g70
I3
ssg71
g2070
sg64
(lp2077
S'99'
p2078
asbasbasbag57
(g73
g59
NtRp2079
(dp2080
g62
(dp2081
sg71
g2050
sg64
(lp2082
g57
(g78
g59
NtRp2083
(dp2084
g62
(dp2085
sg71
g2079
sg64
(lp2086
g57
(g58
g59
NtRp2087
(dp2088
g62
(dp2089
g70
I3
ssg71
g2083
sg64
(lp2090
S'7'
asbasbasbag57
(g73
g59
NtRp2091
(dp2092
g62
(dp2093
sg71
g2050
sg64
(lp2094
g57
(g78
g59
NtRp2095
(dp2096
g62
(dp2097
sg71
g2091
sg64
(lp2098
g57
(g58
g59
NtRp2099
(dp2100
g62
(dp2101
g70
I3
ssg71
g2095
sg64
(lp2102
S'datetime.datetime(2012, 3, 4, 22, 12, 8)'
p2103
asbasbasbag57
(g73
g59
NtRp2104
(dp2105
g62
(dp2106
sg71
g2050
sg64
(lp2107
g57
(g78
g59
NtRp2108
(dp2109
g62
(dp2110
sg71
g2104
sg64
(lp2111
g57
(g58
g59
NtRp2112
(dp2113
g62
(dp2114
g70
I3
ssg71
g2108
sg64
(lp2115
g1505
asbasbasbasbasbasbasbasbasbasbasbag57
(g73
g59
NtRp2116
(dp2117
g62
(dp2118
sg71
g67
sg64
(lp2119
g57
(g78
g59
NtRp2120
(dp2121
g62
(dp2122
g82
g83
ssg71
g2116
sg64
(lp2123
S'is_https'
p2124
asbag57
(g78
g59
NtRp2125
(dp2126
g62
(dp2127
g89
g90
ssg71
g2116
sg64
(lp2128
S':'
asbag57
(g78
g59
NtRp2129
(dp2130
g62
(dp2131
sg71
g2116
sg64
(lp2132
g57
(g58
g59
NtRp2133
(dp2134
g62
(dp2135
g70
I5
ssg71
g2129
sg64
(lp2136
g100
asbasbasbag57
(g73
g59
NtRp2137
(dp2138
g62
(dp2139
sg71
g67
sg64
(lp2140
g57
(g78
g59
NtRp2141
(dp2142
g62
(dp2143
g82
g83
ssg71
g2137
sg64
(lp2144
S'is_local'
p2145
asbag57
(g78
g59
NtRp2146
(dp2147
g62
(dp2148
g89
g90
ssg71
g2137
sg64
(lp2149
S':'
asbag57
(g78
g59
NtRp2150
(dp2151
g62
(dp2152
sg71
g2137
sg64
(lp2153
g57
(g58
g59
NtRp2154
(dp2155
g62
(dp2156
g70
I5
ssg71
g2150
sg64
(lp2157
g1614
asbasbasbag57
(g73
g59
NtRp2158
(dp2159
g62
(dp2160
sg71
g67
sg64
(lp2161
g57
(g78
g59
NtRp2162
(dp2163
g62
(dp2164
g82
g83
ssg71
g2158
sg64
(lp2165
S'is_restful'
p2166
asbag57
(g78
g59
NtRp2167
(dp2168
g62
(dp2169
g89
g90
ssg71
g2158
sg64
(lp2170
S':'
asbag57
(g78
g59
NtRp2171
(dp2172
g62
(dp2173
sg71
g2158
sg64
(lp2174
g57
(g58
g59
NtRp2175
(dp2176
g62
(dp2177
g70
I5
ssg71
g2171
sg64
(lp2178
g100
asbasbasbag57
(g73
g59
NtRp2179
(dp2180
g62
(dp2181
sg71
g67
sg64
(lp2182
g57
(g78
g59
NtRp2183
(dp2184
g62
(dp2185
g82
g83
ssg71
g2179
sg64
(lp2186
S'now'
p2187
asbag57
(g78
g59
NtRp2188
(dp2189
g62
(dp2190
g89
g90
ssg71
g2179
sg64
(lp2191
S':'
asbag57
(g78
g59
NtRp2192
(dp2193
g62
(dp2194
sg71
g2179
sg64
(lp2195
g57
(g58
g59
NtRp2196
(dp2197
g62
(dp2198
g70
I5
ssg71
g2192
sg64
(lp2199
S'datetime.datetime(2012, 8, 30, 14, 28, 51, 679940)'
p2200
asbasbasbag57
(g73
g59
NtRp2201
(dp2202
g62
(dp2203
sg71
g67
sg64
(lp2204
g57
(g78
g59
NtRp2205
(dp2206
g62
(dp2207
g82
g83
ssg71
g2201
sg64
(lp2208
S'post_vars'
p2209
asbag57
(g78
g59
NtRp2210
(dp2211
g62
(dp2212
g89
g90
ssg71
g2201
sg64
(lp2213
S':'
asbag57
(g78
g59
NtRp2214
(dp2215
g62
(dp2216
sg71
g2201
sg64
(lp2217
g57
(g58
g59
NtRp2218
(dp2219
g62
(dp2220
g70
I5
ssg71
g2214
sg64
(lp2221
g57
(g66
g59
NtRp2222
(dp2223
g62
(dp2224
g70
I4
ssg71
Nsg64
(lp2225
g57
(g73
g59
NtRp2226
(dp2227
g62
(dp2228
sg71
g2222
sg64
(lp2229
g57
(g78
g59
NtRp2230
(dp2231
g62
(dp2232
g82
g83
ssg71
g2226
sg64
(lp2233
S'email'
p2234
asbag57
(g78
g59
NtRp2235
(dp2236
g62
(dp2237
g89
g90
ssg71
g2226
sg64
(lp2238
S':'
asbag57
(g78
g59
NtRp2239
(dp2240
g62
(dp2241
sg71
g2226
sg64
(lp2242
g57
(g58
g59
NtRp2243
(dp2244
g62
(dp2245
g70
I4
ssg71
g2239
sg64
(lp2246
S'alfonso@el-magnifico.org'
p2247
asbasbasbag57
(g73
g59
NtRp2248
(dp2249
g62
(dp2250
sg71
g2222
sg64
(lp2251
g57
(g78
g59
NtRp2252
(dp2253
g62
(dp2254
g82
g83
ssg71
g2248
sg64
(lp2255
S'first_name'
p2256
asbag57
(g78
g59
NtRp2257
(dp2258
g62
(dp2259
g89
g90
ssg71
g2248
sg64
(lp2260
S':'
asbag57
(g78
g59
NtRp2261
(dp2262
g62
(dp2263
sg71
g2248
sg64
(lp2264
g57
(g58
g59
NtRp2265
(dp2266
g62
(dp2267
g70
I4
ssg71
g2261
sg64
(lp2268
S'Alfonso'
p2269
asbasbasbag57
(g73
g59
NtRp2270
(dp2271
g62
(dp2272
sg71
g2222
sg64
(lp2273
g57
(g78
g59
NtRp2274
(dp2275
g62
(dp2276
g82
g83
ssg71
g2270
sg64
(lp2277
S'id'
p2278
asbag57
(g78
g59
NtRp2279
(dp2280
g62
(dp2281
g89
g90
ssg71
g2270
sg64
(lp2282
S':'
asbag57
(g78
g59
NtRp2283
(dp2284
g62
(dp2285
sg71
g2270
sg64
(lp2286
g57
(g58
g59
NtRp2287
(dp2288
g62
(dp2289
g70
I4
ssg71
g2283
sg64
(lp2290
S'1'
asbasbasbag57
(g73
g59
NtRp2291
(dp2292
g62
(dp2293
sg71
g2222
sg64
(lp2294
g57
(g78
g59
NtRp2295
(dp2296
g62
(dp2297
g82
g83
ssg71
g2291
sg64
(lp2298
S'last_name'
p2299
asbag57
(g78
g59
NtRp2300
(dp2301
g62
(dp2302
g89
g90
ssg71
g2291
sg64
(lp2303
S':'
asbag57
(g78
g59
NtRp2304
(dp2305
g62
(dp2306
sg71
g2291
sg64
(lp2307
g57
(g58
g59
NtRp2308
(dp2309
g62
(dp2310
g70
I4
ssg71
g2304
sg64
(lp2311
S'ando'
p2312
asbasbasbag57
(g73
g59
NtRp2313
(dp2314
g62
(dp2315
sg71
g2222
sg64
(lp2316
g57
(g78
g59
NtRp2317
(dp2318
g62
(dp2319
g82
g83
ssg71
g2313
sg64
(lp2320
S'photo'
p2321
asbag57
(g78
g59
NtRp2322
(dp2323
g62
(dp2324
g89
g90
ssg71
g2313
sg64
(lp2325
S':'
asbag57
(g78
g59
NtRp2326
(dp2327
g62
(dp2328
sg71
g2313
sg64
(lp2329
g57
(g58
g59
NtRp2330
(dp2331
g62
(dp2332
g70
I4
ssg71
g2326
sg64
(lp2333
S''
asbasbasbasbasbasbasbag57
(g73
g59
NtRp2334
(dp2335
g62
(dp2336
sg71
g67
sg64
(lp2337
g57
(g78
g59
NtRp2338
(dp2339
g62
(dp2340
g82
g83
ssg71
g2334
sg64
(lp2341
S'raw_args'
p2342
asbag57
(g78
g59
NtRp2343
(dp2344
g62
(dp2345
g89
g90
ssg71
g2334
sg64
(lp2346
S':'
asbag57
(g78
g59
NtRp2347
(dp2348
g62
(dp2349
sg71
g2334
sg64
(lp2350
g57
(g58
g59
NtRp2351
(dp2352
g62
(dp2353
g70
I5
ssg71
g2347
sg64
(lp2354
g159
asbasbasbag57
(g73
g59
NtRp2355
(dp2356
g62
(dp2357
sg71
g67
sg64
(lp2358
g57
(g78
g59
NtRp2359
(dp2360
g62
(dp2361
g82
g83
ssg71
g2355
sg64
(lp2362
S'url'
p2363
asbag57
(g78
g59
NtRp2364
(dp2365
g62
(dp2366
g89
g90
ssg71
g2355
sg64
(lp2367
S':'
asbag57
(g78
g59
NtRp2368
(dp2369
g62
(dp2370
sg71
g2355
sg64
(lp2371
g57
(g58
g59
NtRp2372
(dp2373
g62
(dp2374
g70
I5
ssg71
g2368
sg64
(lp2375
S'/telefam/default/user/profile'
p2376
asbasbasbag57
(g73
g59
NtRp2377
(dp2378
g62
(dp2379
sg71
g67
sg64
(lp2380
g57
(g78
g59
NtRp2381
(dp2382
g62
(dp2383
g82
g83
ssg71
g2377
sg64
(lp2384
S'utcnow'
p2385
asbag57
(g78
g59
NtRp2386
(dp2387
g62
(dp2388
g89
g90
ssg71
g2377
sg64
(lp2389
S':'
asbag57
(g78
g59
NtRp2390
(dp2391
g62
(dp2392
sg71
g2377
sg64
(lp2393
g57
(g58
g59
NtRp2394
(dp2395
g62
(dp2396
g70
I5
ssg71
g2390
sg64
(lp2397
S'datetime.datetime(2012, 8, 30, 12, 28, 51, 679958)'
p2398
asbasbasbag57
(g73
g59
NtRp2399
(dp2400
g62
(dp2401
sg71
g67
sg64
(lp2402
g57
(g78
g59
NtRp2403
(dp2404
g62
(dp2405
g82
g83
ssg71
g2399
sg64
(lp2406
S'uuid'
p2407
asbag57
(g78
g59
NtRp2408
(dp2409
g62
(dp2410
g89
g90
ssg71
g2399
sg64
(lp2411
S':'
asbag57
(g78
g59
NtRp2412
(dp2413
g62
(dp2414
sg71
g2399
sg64
(lp2415
g57
(g58
g59
NtRp2416
(dp2417
g62
(dp2418
g70
I5
ssg71
g2412
sg64
(lp2419
S'telefam/127.0.0.1.2012-08-30.14-28-51.552a6a21-34de-44d1-be48-7eff7c1257b3'
p2420
asbasbasbag57
(g73
g59
NtRp2421
(dp2422
g62
(dp2423
sg71
g67
sg64
(lp2424
g57
(g78
g59
NtRp2425
(dp2426
g62
(dp2427
g82
g83
ssg71
g2421
sg64
(lp2428
S'vars'
p2429
asbag57
(g78
g59
NtRp2430
(dp2431
g62
(dp2432
g89
g90
ssg71
g2421
sg64
(lp2433
S':'
asbag57
(g78
g59
NtRp2434
(dp2435
g62
(dp2436
sg71
g2421
sg64
(lp2437
g57
(g58
g59
NtRp2438
(dp2439
g62
(dp2440
g70
I5
ssg71
g2434
sg64
(lp2441
g57
(g66
g59
NtRp2442
(dp2443
g62
(dp2444
g70
I4
ssg71
Nsg64
(lp2445
g57
(g73
g59
NtRp2446
(dp2447
g62
(dp2448
sg71
g2442
sg64
(lp2449
g57
(g78
g59
NtRp2450
(dp2451
g62
(dp2452
g82
g83
ssg71
g2446
sg64
(lp2453
g2234
asbag57
(g78
g59
NtRp2454
(dp2455
g62
(dp2456
g89
g90
ssg71
g2446
sg64
(lp2457
S':'
asbag57
(g78
g59
NtRp2458
(dp2459
g62
(dp2460
sg71
g2446
sg64
(lp2461
g57
(g58
g59
NtRp2462
(dp2463
g62
(dp2464
g70
I4
ssg71
g2458
sg64
(lp2465
g2247
asbasbasbag57
(g73
g59
NtRp2466
(dp2467
g62
(dp2468
sg71
g2442
sg64
(lp2469
g57
(g78
g59
NtRp2470
(dp2471
g62
(dp2472
g82
g83
ssg71
g2466
sg64
(lp2473
g2256
asbag57
(g78
g59
NtRp2474
(dp2475
g62
(dp2476
g89
g90
ssg71
g2466
sg64
(lp2477
S':'
asbag57
(g78
g59
NtRp2478
(dp2479
g62
(dp2480
sg71
g2466
sg64
(lp2481
g57
(g58
g59
NtRp2482
(dp2483
g62
(dp2484
g70
I4
ssg71
g2478
sg64
(lp2485
g2269
asbasbasbag57
(g73
g59
NtRp2486
(dp2487
g62
(dp2488
sg71
g2442
sg64
(lp2489
g57
(g78
g59
NtRp2490
(dp2491
g62
(dp2492
g82
g83
ssg71
g2486
sg64
(lp2493
g2278
asbag57
(g78
g59
NtRp2494
(dp2495
g62
(dp2496
g89
g90
ssg71
g2486
sg64
(lp2497
S':'
asbag57
(g78
g59
NtRp2498
(dp2499
g62
(dp2500
sg71
g2486
sg64
(lp2501
g57
(g58
g59
NtRp2502
(dp2503
g62
(dp2504
g70
I4
ssg71
g2498
sg64
(lp2505
S'1'
asbasbasbag57
(g73
g59
NtRp2506
(dp2507
g62
(dp2508
sg71
g2442
sg64
(lp2509
g57
(g78
g59
NtRp2510
(dp2511
g62
(dp2512
g82
g83
ssg71
g2506
sg64
(lp2513
g2299
asbag57
(g78
g59
NtRp2514
(dp2515
g62
(dp2516
g89
g90
ssg71
g2506
sg64
(lp2517
S':'
asbag57
(g78
g59
NtRp2518
(dp2519
g62
(dp2520
sg71
g2506
sg64
(lp2521
g57
(g58
g59
NtRp2522
(dp2523
g62
(dp2524
g70
I4
ssg71
g2518
sg64
(lp2525
g2312
asbasbasbag57
(g73
g59
NtRp2526
(dp2527
g62
(dp2528
sg71
g2442
sg64
(lp2529
g57
(g78
g59
NtRp2530
(dp2531
g62
(dp2532
g82
g83
ssg71
g2526
sg64
(lp2533
g2321
asbag57
(g78
g59
NtRp2534
(dp2535
g62
(dp2536
g89
g90
ssg71
g2526
sg64
(lp2537
S':'
asbag57
(g78
g59
NtRp2538
(dp2539
g62
(dp2540
sg71
g2526
sg64
(lp2541
g57
(g58
g59
NtRp2542
(dp2543
g62
(dp2544
g70
I4
ssg71
g2538
sg64
(lp2545
S''
asbasbasbasbasbasbasbag57
(g73
g59
NtRp2546
(dp2547
g62
(dp2548
sg71
g67
sg64
(lp2549
g57
(g78
g59
NtRp2550
(dp2551
g62
(dp2552
g82
g83
ssg71
g2546
sg64
(lp2553
S'wsgi'
p2554
asbag57
(g78
g59
NtRp2555
(dp2556
g62
(dp2557
g89
g90
ssg71
g2546
sg64
(lp2558
S':'
asbag57
(g78
g59
NtRp2559
(dp2560
g62
(dp2561
sg71
g2546
sg64
(lp2562
g57
(g58
g59
NtRp2563
(dp2564
g62
(dp2565
g70
I5
ssg71
g2559
sg64
(lp2566
g57
(g66
g59
NtRp2567
(dp2568
g62
(dp2569
g70
I4
ssg71
Nsg64
(lp2570
g57
(g73
g59
NtRp2571
(dp2572
g62
(dp2573
sg71
g2567
sg64
(lp2574
g57
(g78
g59
NtRp2575
(dp2576
g62
(dp2577
g82
g83
ssg71
g2571
sg64
(lp2578
S'environ'
p2579
asbag57
(g78
g59
NtRp2580
(dp2581
g62
(dp2582
g89
g90
ssg71
g2571
sg64
(lp2583
S':'
asbag57
(g78
g59
NtRp2584
(dp2585
g62
(dp2586
sg71
g2571
sg64
(lp2587
g57
(g58
g59
NtRp2588
(dp2589
g62
(dp2590
g70
I4
ssg71
g2584
sg64
(lp2591
g57
(g66
g59
NtRp2592
(dp2593
g62
(dp2594
g70
I3
ssg71
Nsg64
(lp2595
g57
(g73
g59
NtRp2596
(dp2597
g62
(dp2598
sg71
g2592
sg64
(lp2599
g57
(g78
g59
NtRp2600
(dp2601
g62
(dp2602
g82
g83
ssg71
g2596
sg64
(lp2603
S'CONTENT_LENGTH'
p2604
asbag57
(g78
g59
NtRp2605
(dp2606
g62
(dp2607
g89
g90
ssg71
g2596
sg64
(lp2608
S':'
asbag57
(g78
g59
NtRp2609
(dp2610
g62
(dp2611
sg71
g2596
sg64
(lp2612
g57
(g58
g59
NtRp2613
(dp2614
g62
(dp2615
g70
I3
ssg71
g2609
sg64
(lp2616
g766
asbasbasbag57
(g73
g59
NtRp2617
(dp2618
g62
(dp2619
sg71
g2592
sg64
(lp2620
g57
(g78
g59
NtRp2621
(dp2622
g62
(dp2623
g82
g83
ssg71
g2617
sg64
(lp2624
S'CONTENT_TYPE'
p2625
asbag57
(g78
g59
NtRp2626
(dp2627
g62
(dp2628
g89
g90
ssg71
g2617
sg64
(lp2629
S':'
asbag57
(g78
g59
NtRp2630
(dp2631
g62
(dp2632
sg71
g2617
sg64
(lp2633
g57
(g58
g59
NtRp2634
(dp2635
g62
(dp2636
g70
I3
ssg71
g2630
sg64
(lp2637
g788
asbasbasbag57
(g73
g59
NtRp2638
(dp2639
g62
(dp2640
sg71
g2592
sg64
(lp2641
g57
(g78
g59
NtRp2642
(dp2643
g62
(dp2644
g82
g83
ssg71
g2638
sg64
(lp2645
S'HTTP_ACCEPT'
p2646
asbag57
(g78
g59
NtRp2647
(dp2648
g62
(dp2649
g89
g90
ssg71
g2638
sg64
(lp2650
S':'
asbag57
(g78
g59
NtRp2651
(dp2652
g62
(dp2653
sg71
g2638
sg64
(lp2654
g57
(g58
g59
NtRp2655
(dp2656
g62
(dp2657
g70
I3
ssg71
g2651
sg64
(lp2658
g875
asbasbasbag57
(g73
g59
NtRp2659
(dp2660
g62
(dp2661
sg71
g2592
sg64
(lp2662
g57
(g78
g59
NtRp2663
(dp2664
g62
(dp2665
g82
g83
ssg71
g2659
sg64
(lp2666
S'HTTP_ACCEPT_CHARSET'
p2667
asbag57
(g78
g59
NtRp2668
(dp2669
g62
(dp2670
g89
g90
ssg71
g2659
sg64
(lp2671
S':'
asbag57
(g78
g59
NtRp2672
(dp2673
g62
(dp2674
sg71
g2659
sg64
(lp2675
g57
(g58
g59
NtRp2676
(dp2677
g62
(dp2678
g70
I3
ssg71
g2672
sg64
(lp2679
g897
asbasbasbag57
(g73
g59
NtRp2680
(dp2681
g62
(dp2682
sg71
g2592
sg64
(lp2683
g57
(g78
g59
NtRp2684
(dp2685
g62
(dp2686
g82
g83
ssg71
g2680
sg64
(lp2687
S'HTTP_ACCEPT_ENCODING'
p2688
asbag57
(g78
g59
NtRp2689
(dp2690
g62
(dp2691
g89
g90
ssg71
g2680
sg64
(lp2692
S':'
asbag57
(g78
g59
NtRp2693
(dp2694
g62
(dp2695
sg71
g2680
sg64
(lp2696
g57
(g58
g59
NtRp2697
(dp2698
g62
(dp2699
g70
I3
ssg71
g2693
sg64
(lp2700
g919
asbasbasbag57
(g73
g59
NtRp2701
(dp2702
g62
(dp2703
sg71
g2592
sg64
(lp2704
g57
(g78
g59
NtRp2705
(dp2706
g62
(dp2707
g82
g83
ssg71
g2701
sg64
(lp2708
S'HTTP_ACCEPT_LANGUAGE'
p2709
asbag57
(g78
g59
NtRp2710
(dp2711
g62
(dp2712
g89
g90
ssg71
g2701
sg64
(lp2713
S':'
asbag57
(g78
g59
NtRp2714
(dp2715
g62
(dp2716
sg71
g2701
sg64
(lp2717
g57
(g58
g59
NtRp2718
(dp2719
g62
(dp2720
g70
I3
ssg71
g2714
sg64
(lp2721
g941
asbasbasbag57
(g73
g59
NtRp2722
(dp2723
g62
(dp2724
sg71
g2592
sg64
(lp2725
g57
(g78
g59
NtRp2726
(dp2727
g62
(dp2728
g82
g83
ssg71
g2722
sg64
(lp2729
S'HTTP_CACHE_CONTROL'
p2730
asbag57
(g78
g59
NtRp2731
(dp2732
g62
(dp2733
g89
g90
ssg71
g2722
sg64
(lp2734
S':'
asbag57
(g78
g59
NtRp2735
(dp2736
g62
(dp2737
sg71
g2722
sg64
(lp2738
g57
(g58
g59
NtRp2739
(dp2740
g62
(dp2741
g70
I3
ssg71
g2735
sg64
(lp2742
g963
asbasbasbag57
(g73
g59
NtRp2743
(dp2744
g62
(dp2745
sg71
g2592
sg64
(lp2746
g57
(g78
g59
NtRp2747
(dp2748
g62
(dp2749
g82
g83
ssg71
g2743
sg64
(lp2750
S'HTTP_CONNECTION'
p2751
asbag57
(g78
g59
NtRp2752
(dp2753
g62
(dp2754
g89
g90
ssg71
g2743
sg64
(lp2755
S':'
asbag57
(g78
g59
NtRp2756
(dp2757
g62
(dp2758
sg71
g2743
sg64
(lp2759
g57
(g58
g59
NtRp2760
(dp2761
g62
(dp2762
g70
I3
ssg71
g2756
sg64
(lp2763
g985
asbasbasbag57
(g73
g59
NtRp2764
(dp2765
g62
(dp2766
sg71
g2592
sg64
(lp2767
g57
(g78
g59
NtRp2768
(dp2769
g62
(dp2770
g82
g83
ssg71
g2764
sg64
(lp2771
S'HTTP_CONTENT_LENGTH'
p2772
asbag57
(g78
g59
NtRp2773
(dp2774
g62
(dp2775
g89
g90
ssg71
g2764
sg64
(lp2776
S':'
asbag57
(g78
g59
NtRp2777
(dp2778
g62
(dp2779
sg71
g2764
sg64
(lp2780
g57
(g58
g59
NtRp2781
(dp2782
g62
(dp2783
g70
I3
ssg71
g2777
sg64
(lp2784
g766
asbasbasbag57
(g73
g59
NtRp2785
(dp2786
g62
(dp2787
sg71
g2592
sg64
(lp2788
g57
(g78
g59
NtRp2789
(dp2790
g62
(dp2791
g82
g83
ssg71
g2785
sg64
(lp2792
S'HTTP_CONTENT_TYPE'
p2793
asbag57
(g78
g59
NtRp2794
(dp2795
g62
(dp2796
g89
g90
ssg71
g2785
sg64
(lp2797
S':'
asbag57
(g78
g59
NtRp2798
(dp2799
g62
(dp2800
sg71
g2785
sg64
(lp2801
g57
(g58
g59
NtRp2802
(dp2803
g62
(dp2804
g70
I3
ssg71
g2798
sg64
(lp2805
g788
asbasbasbag57
(g73
g59
NtRp2806
(dp2807
g62
(dp2808
sg71
g2592
sg64
(lp2809
g57
(g78
g59
NtRp2810
(dp2811
g62
(dp2812
g82
g83
ssg71
g2806
sg64
(lp2813
S'HTTP_COOKIE'
p2814
asbag57
(g78
g59
NtRp2815
(dp2816
g62
(dp2817
g89
g90
ssg71
g2806
sg64
(lp2818
S':'
asbag57
(g78
g59
NtRp2819
(dp2820
g62
(dp2821
sg71
g2806
sg64
(lp2822
g57
(g58
g59
NtRp2823
(dp2824
g62
(dp2825
g70
I3
ssg71
g2819
sg64
(lp2826
g1049
asbasbasbag57
(g73
g59
NtRp2827
(dp2828
g62
(dp2829
sg71
g2592
sg64
(lp2830
g57
(g78
g59
NtRp2831
(dp2832
g62
(dp2833
g82
g83
ssg71
g2827
sg64
(lp2834
S'HTTP_HOST'
p2835
asbag57
(g78
g59
NtRp2836
(dp2837
g62
(dp2838
g89
g90
ssg71
g2827
sg64
(lp2839
S':'
asbag57
(g78
g59
NtRp2840
(dp2841
g62
(dp2842
sg71
g2827
sg64
(lp2843
g57
(g58
g59
NtRp2844
(dp2845
g62
(dp2846
g70
I3
ssg71
g2840
sg64
(lp2847
g1071
asbasbasbag57
(g73
g59
NtRp2848
(dp2849
g62
(dp2850
sg71
g2592
sg64
(lp2851
g57
(g78
g59
NtRp2852
(dp2853
g62
(dp2854
g82
g83
ssg71
g2848
sg64
(lp2855
S'HTTP_REFERER'
p2856
asbag57
(g78
g59
NtRp2857
(dp2858
g62
(dp2859
g89
g90
ssg71
g2848
sg64
(lp2860
S':'
asbag57
(g78
g59
NtRp2861
(dp2862
g62
(dp2863
sg71
g2848
sg64
(lp2864
g57
(g58
g59
NtRp2865
(dp2866
g62
(dp2867
g70
I3
ssg71
g2861
sg64
(lp2868
g1093
asbasbasbag57
(g73
g59
NtRp2869
(dp2870
g62
(dp2871
sg71
g2592
sg64
(lp2872
g57
(g78
g59
NtRp2873
(dp2874
g62
(dp2875
g82
g83
ssg71
g2869
sg64
(lp2876
S'HTTP_USER_AGENT'
p2877
asbag57
(g78
g59
NtRp2878
(dp2879
g62
(dp2880
g89
g90
ssg71
g2869
sg64
(lp2881
S':'
asbag57
(g78
g59
NtRp2882
(dp2883
g62
(dp2884
sg71
g2869
sg64
(lp2885
g57
(g58
g59
NtRp2886
(dp2887
g62
(dp2888
g70
I3
ssg71
g2882
sg64
(lp2889
g1115
asbasbasbag57
(g73
g59
NtRp2890
(dp2891
g62
(dp2892
sg71
g2592
sg64
(lp2893
g57
(g78
g59
NtRp2894
(dp2895
g62
(dp2896
g82
g83
ssg71
g2890
sg64
(lp2897
S'PATH_INFO'
p2898
asbag57
(g78
g59
NtRp2899
(dp2900
g62
(dp2901
g89
g90
ssg71
g2890
sg64
(lp2902
S':'
asbag57
(g78
g59
NtRp2903
(dp2904
g62
(dp2905
sg71
g2890
sg64
(lp2906
g57
(g58
g59
NtRp2907
(dp2908
g62
(dp2909
g70
I3
ssg71
g2903
sg64
(lp2910
g1179
asbasbasbag57
(g73
g59
NtRp2911
(dp2912
g62
(dp2913
sg71
g2592
sg64
(lp2914
g57
(g78
g59
NtRp2915
(dp2916
g62
(dp2917
g82
g83
ssg71
g2911
sg64
(lp2918
S'QUERY_STRING'
p2919
asbag57
(g78
g59
NtRp2920
(dp2921
g62
(dp2922
g89
g90
ssg71
g2911
sg64
(lp2923
S':'
asbag57
(g78
g59
NtRp2924
(dp2925
g62
(dp2926
sg71
g2911
sg64
(lp2927
g57
(g58
g59
NtRp2928
(dp2929
g62
(dp2930
g70
I3
ssg71
g2924
sg64
(lp2931
S''
asbasbasbag57
(g73
g59
NtRp2932
(dp2933
g62
(dp2934
sg71
g2592
sg64
(lp2935
g57
(g78
g59
NtRp2936
(dp2937
g62
(dp2938
g82
g83
ssg71
g2932
sg64
(lp2939
S'REMOTE_ADDR'
p2940
asbag57
(g78
g59
NtRp2941
(dp2942
g62
(dp2943
g89
g90
ssg71
g2932
sg64
(lp2944
S':'
asbag57
(g78
g59
NtRp2945
(dp2946
g62
(dp2947
sg71
g2932
sg64
(lp2948
g57
(g58
g59
NtRp2949
(dp2950
g62
(dp2951
g70
I3
ssg71
g2945
sg64
(lp2952
g203
asbasbasbag57
(g73
g59
NtRp2953
(dp2954
g62
(dp2955
sg71
g2592
sg64
(lp2956
g57
(g78
g59
NtRp2957
(dp2958
g62
(dp2959
g82
g83
ssg71
g2953
sg64
(lp2960
S'REMOTE_PORT'
p2961
asbag57
(g78
g59
NtRp2962
(dp2963
g62
(dp2964
g89
g90
ssg71
g2953
sg64
(lp2965
S':'
asbag57
(g78
g59
NtRp2966
(dp2967
g62
(dp2968
sg71
g2953
sg64
(lp2969
g57
(g58
g59
NtRp2970
(dp2971
g62
(dp2972
g70
I3
ssg71
g2966
sg64
(lp2973
g1243
asbasbasbag57
(g73
g59
NtRp2974
(dp2975
g62
(dp2976
sg71
g2592
sg64
(lp2977
g57
(g78
g59
NtRp2978
(dp2979
g62
(dp2980
g82
g83
ssg71
g2974
sg64
(lp2981
S'REQUEST_METHOD'
p2982
asbag57
(g78
g59
NtRp2983
(dp2984
g62
(dp2985
g89
g90
ssg71
g2974
sg64
(lp2986
S':'
asbag57
(g78
g59
NtRp2987
(dp2988
g62
(dp2989
sg71
g2974
sg64
(lp2990
g57
(g58
g59
NtRp2991
(dp2992
g62
(dp2993
g70
I3
ssg71
g2987
sg64
(lp2994
g1265
asbasbasbag57
(g73
g59
NtRp2995
(dp2996
g62
(dp2997
sg71
g2592
sg64
(lp2998
g57
(g78
g59
NtRp2999
(dp3000
g62
(dp3001
g82
g83
ssg71
g2995
sg64
(lp3002
S'SCRIPT_NAME'
p3003
asbag57
(g78
g59
NtRp3004
(dp3005
g62
(dp3006
g89
g90
ssg71
g2995
sg64
(lp3007
S':'
asbag57
(g78
g59
NtRp3008
(dp3009
g62
(dp3010
sg71
g2995
sg64
(lp3011
g57
(g58
g59
NtRp3012
(dp3013
g62
(dp3014
g70
I3
ssg71
g3008
sg64
(lp3015
S''
asbasbasbag57
(g73
g59
NtRp3016
(dp3017
g62
(dp3018
sg71
g2592
sg64
(lp3019
g57
(g78
g59
NtRp3020
(dp3021
g62
(dp3022
g82
g83
ssg71
g3016
sg64
(lp3023
S'SERVER_NAME'
p3024
asbag57
(g78
g59
NtRp3025
(dp3026
g62
(dp3027
g89
g90
ssg71
g3016
sg64
(lp3028
S':'
asbag57
(g78
g59
NtRp3029
(dp3030
g62
(dp3031
sg71
g3016
sg64
(lp3032
g57
(g58
g59
NtRp3033
(dp3034
g62
(dp3035
g70
I3
ssg71
g3029
sg64
(lp3036
g1308
asbasbasbag57
(g73
g59
NtRp3037
(dp3038
g62
(dp3039
sg71
g2592
sg64
(lp3040
g57
(g78
g59
NtRp3041
(dp3042
g62
(dp3043
g82
g83
ssg71
g3037
sg64
(lp3044
S'SERVER_PORT'
p3045
asbag57
(g78
g59
NtRp3046
(dp3047
g62
(dp3048
g89
g90
ssg71
g3037
sg64
(lp3049
S':'
asbag57
(g78
g59
NtRp3050
(dp3051
g62
(dp3052
sg71
g3037
sg64
(lp3053
g57
(g58
g59
NtRp3054
(dp3055
g62
(dp3056
g70
I3
ssg71
g3050
sg64
(lp3057
g1330
asbasbasbag57
(g73
g59
NtRp3058
(dp3059
g62
(dp3060
sg71
g2592
sg64
(lp3061
g57
(g78
g59
NtRp3062
(dp3063
g62
(dp3064
g82
g83
ssg71
g3058
sg64
(lp3065
S'SERVER_PROTOCOL'
p3066
asbag57
(g78
g59
NtRp3067
(dp3068
g62
(dp3069
g89
g90
ssg71
g3058
sg64
(lp3070
S':'
asbag57
(g78
g59
NtRp3071
(dp3072
g62
(dp3073
sg71
g3058
sg64
(lp3074
g57
(g58
g59
NtRp3075
(dp3076
g62
(dp3077
g70
I3
ssg71
g3071
sg64
(lp3078
g1352
asbasbasbag57
(g73
g59
NtRp3079
(dp3080
g62
(dp3081
sg71
g2592
sg64
(lp3082
g57
(g78
g59
NtRp3083
(dp3084
g62
(dp3085
g82
g83
ssg71
g3079
sg64
(lp3086
S'SERVER_SOFTWARE'
p3087
asbag57
(g78
g59
NtRp3088
(dp3089
g62
(dp3090
g89
g90
ssg71
g3079
sg64
(lp3091
S':'
asbag57
(g78
g59
NtRp3092
(dp3093
g62
(dp3094
sg71
g3079
sg64
(lp3095
g57
(g58
g59
NtRp3096
(dp3097
g62
(dp3098
g70
I3
ssg71
g3092
sg64
(lp3099
g1374
asbasbasbag57
(g73
g59
NtRp3100
(dp3101
g62
(dp3102
sg71
g2592
sg64
(lp3103
g57
(g78
g59
NtRp3104
(dp3105
g62
(dp3106
g82
g83
ssg71
g3100
sg64
(lp3107
S'wsgi.errors'
p3108
asbag57
(g78
g59
NtRp3109
(dp3110
g62
(dp3111
g89
g90
ssg71
g3100
sg64
(lp3112
S':'
asbag57
(g78
g59
NtRp3113
(dp3114
g62
(dp3115
sg71
g3100
sg64
(lp3116
g57
(g58
g59
NtRp3117
(dp3118
g62
(dp3119
g70
I3
ssg71
g3113
sg64
(lp3120
S"<open file '<stderr>', mode 'w' at 0xb77800d0>"
p3121
asbasbasbag57
(g73
g59
NtRp3122
(dp3123
g62
(dp3124
sg71
g2592
sg64
(lp3125
g57
(g78
g59
NtRp3126
(dp3127
g62
(dp3128
g82
g83
ssg71
g3122
sg64
(lp3129
S'wsgi.file_wrapper'
p3130
asbag57
(g78
g59
NtRp3131
(dp3132
g62
(dp3133
g89
g90
ssg71
g3122
sg64
(lp3134
S':'
asbag57
(g78
g59
NtRp3135
(dp3136
g62
(dp3137
sg71
g3122
sg64
(lp3138
g57
(g58
g59
NtRp3139
(dp3140
g62
(dp3141
g70
I3
ssg71
g3135
sg64
(lp3142
S'<class wsgiref.util.FileWrapper at 0xa0f9e6c>'
p3143
asbasbasbag57
(g73
g59
NtRp3144
(dp3145
g62
(dp3146
sg71
g2592
sg64
(lp3147
g57
(g78
g59
NtRp3148
(dp3149
g62
(dp3150
g82
g83
ssg71
g3144
sg64
(lp3151
S'wsgi.input'
p3152
asbag57
(g78
g59
NtRp3153
(dp3154
g62
(dp3155
g89
g90
ssg71
g3144
sg64
(lp3156
S':'
asbag57
(g78
g59
NtRp3157
(dp3158
g62
(dp3159
sg71
g3144
sg64
(lp3160
g57
(g58
g59
NtRp3161
(dp3162
g62
(dp3163
g70
I3
ssg71
g3157
sg64
(lp3164
S"<open file '<fdopen>', mode 'w+b' at 0xa67b700>"
p3165
asbasbasbag57
(g73
g59
NtRp3166
(dp3167
g62
(dp3168
sg71
g2592
sg64
(lp3169
g57
(g78
g59
NtRp3170
(dp3171
g62
(dp3172
g82
g83
ssg71
g3166
sg64
(lp3173
S'wsgi.multiprocess'
p3174
asbag57
(g78
g59
NtRp3175
(dp3176
g62
(dp3177
g89
g90
ssg71
g3166
sg64
(lp3178
S':'
asbag57
(g78
g59
NtRp3179
(dp3180
g62
(dp3181
sg71
g3166
sg64
(lp3182
g57
(g58
g59
NtRp3183
(dp3184
g62
(dp3185
g70
I3
ssg71
g3179
sg64
(lp3186
g100
asbasbasbag57
(g73
g59
NtRp3187
(dp3188
g62
(dp3189
sg71
g2592
sg64
(lp3190
g57
(g78
g59
NtRp3191
(dp3192
g62
(dp3193
g82
g83
ssg71
g3187
sg64
(lp3194
S'wsgi.multithread'
p3195
asbag57
(g78
g59
NtRp3196
(dp3197
g62
(dp3198
g89
g90
ssg71
g3187
sg64
(lp3199
S':'
asbag57
(g78
g59
NtRp3200
(dp3201
g62
(dp3202
sg71
g3187
sg64
(lp3203
g57
(g58
g59
NtRp3204
(dp3205
g62
(dp3206
g70
I3
ssg71
g3200
sg64
(lp3207
g1614
asbasbasbag57
(g73
g59
NtRp3208
(dp3209
g62
(dp3210
sg71
g2592
sg64
(lp3211
g57
(g78
g59
NtRp3212
(dp3213
g62
(dp3214
g82
g83
ssg71
g3208
sg64
(lp3215
S'wsgi.run_once'
p3216
asbag57
(g78
g59
NtRp3217
(dp3218
g62
(dp3219
g89
g90
ssg71
g3208
sg64
(lp3220
S':'
asbag57
(g78
g59
NtRp3221
(dp3222
g62
(dp3223
sg71
g3208
sg64
(lp3224
g57
(g58
g59
NtRp3225
(dp3226
g62
(dp3227
g70
I3
ssg71
g3221
sg64
(lp3228
g100
asbasbasbag57
(g73
g59
NtRp3229
(dp3230
g62
(dp3231
sg71
g2592
sg64
(lp3232
g57
(g78
g59
NtRp3233
(dp3234
g62
(dp3235
g82
g83
ssg71
g3229
sg64
(lp3236
S'wsgi.url_scheme'
p3237
asbag57
(g78
g59
NtRp3238
(dp3239
g62
(dp3240
g89
g90
ssg71
g3229
sg64
(lp3241
S':'
asbag57
(g78
g59
NtRp3242
(dp3243
g62
(dp3244
sg71
g3229
sg64
(lp3245
g57
(g58
g59
NtRp3246
(dp3247
g62
(dp3248
g70
I3
ssg71
g3242
sg64
(lp3249
g1657
asbasbasbag57
(g73
g59
NtRp3250
(dp3251
g62
(dp3252
sg71
g2592
sg64
(lp3253
g57
(g78
g59
NtRp3254
(dp3255
g62
(dp3256
g82
g83
ssg71
g3250
sg64
(lp3257
S'wsgi.version'
p3258
asbag57
(g78
g59
NtRp3259
(dp3260
g62
(dp3261
g89
g90
ssg71
g3250
sg64
(lp3262
S':'
asbag57
(g78
g59
NtRp3263
(dp3264
g62
(dp3265
sg71
g3250
sg64
(lp3266
g57
(g58
g59
NtRp3267
(dp3268
g62
(dp3269
g70
I3
ssg71
g3263
sg64
(lp3270
S'1'
asbasbasbasbasbasbasbasbasbasbasbasbasbsS'frames'
p3271
(lp3272
(dp3273
S'file'
p3274
S'/home/alfem/alfem/prog/telefam/server/web2py/gluon/restricted.py'
p3275
sS'dump'
p3276
(dp3277
S'environment'
p3278
S"{'A': <class 'gluon.html.A'>, 'Auth': <class 'gluon.tools.Auth'>, 'B': <class 'gluon.html.B'>, 'BEAUTIFY': <class 'gluon.html.BEAUTIFY'>, 'BODY': <class 'gluon.html.BODY'>, 'BR': <class 'gluon.html.BR'>, 'BUTTON': <class 'gluon.html.BUTTON'>, 'CAT': <class 'gluon.html.CAT'>, 'CENTER': <class 'gluon.html.CENTER'>, 'CLEANUP': <class 'gluon.validators.CLEANUP'>, ...}"
p3279
sS'ccode'
p3280
S'<code object <module> at 0xb0ea188, file "/home/...b2py/applications/telefam/models/db.py", line 12>'
p3281
ssS'lnum'
p3282
I205
sS'lines'
p3283
(dp3284
I200
S'    try:'
p3285
sI201
S'        if type(code) == types.CodeType:'
p3286
sI202
S'            ccode = code'
p3287
sI203
S'        else:'
p3288
sI204
S'            ccode = compile2(code,layer)'
p3289
sI205
S'        exec ccode in environment'
p3290
sI206
S'    except HTTP:'
p3291
sI207
S'        raise'
p3292
sI208
S'    except RestrictedError:'
p3293
sI209
S'        # do not encapsulate (obfuscate) the original RestrictedError'
p3294
ssS'call'
p3295
S"(code='# -*- coding: utf-8 -*-\\n\\n#######################...able = db.galleries.updated_on.writable = False\\n\\n', environment={'A': <class 'gluon.html.A'>, 'Auth': <class 'gluon.tools.Auth'>, 'B': <class 'gluon.html.B'>, 'BEAUTIFY': <class 'gluon.html.BEAUTIFY'>, 'BODY': <class 'gluon.html.BODY'>, 'BR': <class 'gluon.html.BR'>, 'BUTTON': <class 'gluon.html.BUTTON'>, 'CAT': <class 'gluon.html.CAT'>, 'CENTER': <class 'gluon.html.CENTER'>, 'CLEANUP': <class 'gluon.validators.CLEANUP'>, ...}, layer='/home/alfem/alfem/prog/telefam/server/web2py/applications/telefam/models/db.py')"
p3296
sS'func'
p3297
S'restricted'
p3298
sa(dp3299
g3274
S'/home/alfem/alfem/prog/telefam/server/web2py/applications/telefam/models/db.py'
p3300
sg3276
(dp3301
S'auth.settings.login_onaccept'
p3302
S'[]'
p3303
sS'form'
p3304
S'undefined'
p3305
sS'update'
p3306
S'<function update>'
p3307
sS'auth'
p3308
S'<gluon.tools.Auth object>'
p3309
sS'auth.settings'
p3310
S"<Storage {'showid': False, 'verify_email_onaccep...trieve_username_next': '/telefam/default/index'}>"
p3311
sS'auth.settings.login_onaccept.append'
p3312
S'<built-in method append of list object>'
p3313
ssg3282
I57
sg3283
(dp3314
I52
S''
sI53
S'def update(form):'
p3315
sI54
S'    user.update_on=request.now'
p3316
sI55
S'    form.first_name="TTT"'
p3317
sI56
S'    return form'
p3318
sI57
S'auth.settings.login_onaccept.append(update(form))'
p3319
sI58
S''
sI59
S'crud, service, plugins = Crud(db), Service(), PluginManager()'
p3320
sI60
S''
sI61
S'## create all tables needed by auth if not custom tables'
p3321
ssg3295
S'()'
p3322
sg3297
S'<module>'
p3323
sasS'pyver'
p3324
S'Python 2.7.2+: /usr/bin/python'
p3325
sS'session'
p3326
g57
(g58
g59
NtRp3327
(dp3328
g62
(dp3329
sg64
(lp3330
g57
(g66
g59
NtRp3331
(dp3332
g62
(dp3333
g70
I5
ssg71
Nsg64
(lp3334
g57
(g73
g59
NtRp3335
(dp3336
g62
(dp3337
sg71
g3331
sg64
(lp3338
g57
(g78
g59
NtRp3339
(dp3340
g62
(dp3341
g82
g83
ssg71
g3335
sg64
(lp3342
S'auth'
p3343
asbag57
(g78
g59
NtRp3344
(dp3345
g62
(dp3346
g89
g90
ssg71
g3335
sg64
(lp3347
S':'
asbag57
(g78
g59
NtRp3348
(dp3349
g62
(dp3350
sg71
g3335
sg64
(lp3351
g57
(g58
g59
NtRp3352
(dp3353
g62
(dp3354
g70
I5
ssg71
g3348
sg64
(lp3355
g57
(g66
g59
NtRp3356
(dp3357
g62
(dp3358
g70
I4
ssg71
Nsg64
(lp3359
g57
(g73
g59
NtRp3360
(dp3361
g62
(dp3362
sg71
g3356
sg64
(lp3363
g57
(g78
g59
NtRp3364
(dp3365
g62
(dp3366
g82
g83
ssg71
g3360
sg64
(lp3367
S'expiration'
p3368
asbag57
(g78
g59
NtRp3369
(dp3370
g62
(dp3371
g89
g90
ssg71
g3360
sg64
(lp3372
S':'
asbag57
(g78
g59
NtRp3373
(dp3374
g62
(dp3375
sg71
g3360
sg64
(lp3376
g57
(g58
g59
NtRp3377
(dp3378
g62
(dp3379
g70
I4
ssg71
g3373
sg64
(lp3380
S'3600'
p3381
asbasbasbag57
(g73
g59
NtRp3382
(dp3383
g62
(dp3384
sg71
g3356
sg64
(lp3385
g57
(g78
g59
NtRp3386
(dp3387
g62
(dp3388
g82
g83
ssg71
g3382
sg64
(lp3389
S'hmac_key'
p3390
asbag57
(g78
g59
NtRp3391
(dp3392
g62
(dp3393
g89
g90
ssg71
g3382
sg64
(lp3394
S':'
asbag57
(g78
g59
NtRp3395
(dp3396
g62
(dp3397
sg71
g3382
sg64
(lp3398
g57
(g58
g59
NtRp3399
(dp3400
g62
(dp3401
g70
I4
ssg71
g3395
sg64
(lp3402
S'10b16de2-5242-4454-b430-eea577a6d2b9'
p3403
asbasbasbag57
(g73
g59
NtRp3404
(dp3405
g62
(dp3406
sg71
g3356
sg64
(lp3407
g57
(g78
g59
NtRp3408
(dp3409
g62
(dp3410
g82
g83
ssg71
g3404
sg64
(lp3411
S'last_visit'
p3412
asbag57
(g78
g59
NtRp3413
(dp3414
g62
(dp3415
g89
g90
ssg71
g3404
sg64
(lp3416
S':'
asbag57
(g78
g59
NtRp3417
(dp3418
g62
(dp3419
sg71
g3404
sg64
(lp3420
g57
(g58
g59
NtRp3421
(dp3422
g62
(dp3423
g70
I4
ssg71
g3417
sg64
(lp3424
S'datetime.datetime(2012, 8, 30, 14, 28, 51, 679940)'
p3425
asbasbasbag57
(g73
g59
NtRp3426
(dp3427
g62
(dp3428
sg71
g3356
sg64
(lp3429
g57
(g78
g59
NtRp3430
(dp3431
g62
(dp3432
g82
g83
ssg71
g3426
sg64
(lp3433
S'remember'
p3434
asbag57
(g78
g59
NtRp3435
(dp3436
g62
(dp3437
g89
g90
ssg71
g3426
sg64
(lp3438
S':'
asbag57
(g78
g59
NtRp3439
(dp3440
g62
(dp3441
sg71
g3426
sg64
(lp3442
g57
(g58
g59
NtRp3443
(dp3444
g62
(dp3445
g70
I4
ssg71
g3439
sg64
(lp3446
g100
asbasbasbag57
(g73
g59
NtRp3447
(dp3448
g62
(dp3449
sg71
g3356
sg64
(lp3450
g57
(g78
g59
NtRp3451
(dp3452
g62
(dp3453
g82
g83
ssg71
g3447
sg64
(lp3454
S'user'
p3455
asbag57
(g78
g59
NtRp3456
(dp3457
g62
(dp3458
g89
g90
ssg71
g3447
sg64
(lp3459
S':'
asbag57
(g78
g59
NtRp3460
(dp3461
g62
(dp3462
sg71
g3447
sg64
(lp3463
g57
(g58
g59
NtRp3464
(dp3465
g62
(dp3466
g70
I4
ssg71
g3460
sg64
(lp3467
g57
(g66
g59
NtRp3468
(dp3469
g62
(dp3470
g70
I3
ssg71
Nsg64
(lp3471
g57
(g73
g59
NtRp3472
(dp3473
g62
(dp3474
sg71
g3468
sg64
(lp3475
g57
(g78
g59
NtRp3476
(dp3477
g62
(dp3478
g82
g83
ssg71
g3472
sg64
(lp3479
S'email'
p3480
asbag57
(g78
g59
NtRp3481
(dp3482
g62
(dp3483
g89
g90
ssg71
g3472
sg64
(lp3484
S':'
asbag57
(g78
g59
NtRp3485
(dp3486
g62
(dp3487
sg71
g3472
sg64
(lp3488
g57
(g58
g59
NtRp3489
(dp3490
g62
(dp3491
g70
I3
ssg71
g3485
sg64
(lp3492
S'alfonso@el-magnifico.org'
p3493
asbasbasbag57
(g73
g59
NtRp3494
(dp3495
g62
(dp3496
sg71
g3468
sg64
(lp3497
g57
(g78
g59
NtRp3498
(dp3499
g62
(dp3500
g82
g83
ssg71
g3494
sg64
(lp3501
S'first_name'
p3502
asbag57
(g78
g59
NtRp3503
(dp3504
g62
(dp3505
g89
g90
ssg71
g3494
sg64
(lp3506
S':'
asbag57
(g78
g59
NtRp3507
(dp3508
g62
(dp3509
sg71
g3494
sg64
(lp3510
g57
(g58
g59
NtRp3511
(dp3512
g62
(dp3513
g70
I3
ssg71
g3507
sg64
(lp3514
S'Alfonso'
p3515
asbasbasbag57
(g73
g59
NtRp3516
(dp3517
g62
(dp3518
sg71
g3468
sg64
(lp3519
g57
(g78
g59
NtRp3520
(dp3521
g62
(dp3522
g82
g83
ssg71
g3516
sg64
(lp3523
S'id'
p3524
asbag57
(g78
g59
NtRp3525
(dp3526
g62
(dp3527
g89
g90
ssg71
g3516
sg64
(lp3528
S':'
asbag57
(g78
g59
NtRp3529
(dp3530
g62
(dp3531
sg71
g3516
sg64
(lp3532
g57
(g58
g59
NtRp3533
(dp3534
g62
(dp3535
g70
I3
ssg71
g3529
sg64
(lp3536
S'1'
asbasbasbag57
(g73
g59
NtRp3537
(dp3538
g62
(dp3539
sg71
g3468
sg64
(lp3540
g57
(g78
g59
NtRp3541
(dp3542
g62
(dp3543
g82
g83
ssg71
g3537
sg64
(lp3544
S'last_name'
p3545
asbag57
(g78
g59
NtRp3546
(dp3547
g62
(dp3548
g89
g90
ssg71
g3537
sg64
(lp3549
S':'
asbag57
(g78
g59
NtRp3550
(dp3551
g62
(dp3552
sg71
g3537
sg64
(lp3553
g57
(g58
g59
NtRp3554
(dp3555
g62
(dp3556
g70
I3
ssg71
g3550
sg64
(lp3557
S'ando'
p3558
asbasbasbag57
(g73
g59
NtRp3559
(dp3560
g62
(dp3561
sg71
g3468
sg64
(lp3562
g57
(g78
g59
NtRp3563
(dp3564
g62
(dp3565
g82
g83
ssg71
g3559
sg64
(lp3566
S'password'
p3567
asbag57
(g78
g59
NtRp3568
(dp3569
g62
(dp3570
g89
g90
ssg71
g3559
sg64
(lp3571
S':'
asbag57
(g78
g59
NtRp3572
(dp3573
g62
(dp3574
sg71
g3559
sg64
(lp3575
g57
(g58
g59
NtRp3576
(dp3577
g62
(dp3578
g70
I3
ssg71
g3572
sg64
(lp3579
S'12923092f4d9e86e56018b9cdd790947'
p3580
asbasbasbag57
(g73
g59
NtRp3581
(dp3582
g62
(dp3583
sg71
g3468
sg64
(lp3584
g57
(g78
g59
NtRp3585
(dp3586
g62
(dp3587
g82
g83
ssg71
g3581
sg64
(lp3588
S'photo'
p3589
asbag57
(g78
g59
NtRp3590
(dp3591
g62
(dp3592
g89
g90
ssg71
g3581
sg64
(lp3593
S':'
asbag57
(g78
g59
NtRp3594
(dp3595
g62
(dp3596
sg71
g3581
sg64
(lp3597
g57
(g58
g59
NtRp3598
(dp3599
g62
(dp3600
g70
I3
ssg71
g3594
sg64
(lp3601
S'auth_user.photo.8eb953fd3c62034e.616c666f6e736f2e6a7067.jpg'
p3602
asbasbasbag57
(g73
g59
NtRp3603
(dp3604
g62
(dp3605
sg71
g3468
sg64
(lp3606
g57
(g78
g59
NtRp3607
(dp3608
g62
(dp3609
g82
g83
ssg71
g3603
sg64
(lp3610
S'registration_id'
p3611
asbag57
(g78
g59
NtRp3612
(dp3613
g62
(dp3614
g89
g90
ssg71
g3603
sg64
(lp3615
S':'
asbag57
(g78
g59
NtRp3616
(dp3617
g62
(dp3618
sg71
g3603
sg64
(lp3619
g57
(g58
g59
NtRp3620
(dp3621
g62
(dp3622
g70
I3
ssg71
g3616
sg64
(lp3623
S'test'
p3624
asbasbasbag57
(g73
g59
NtRp3625
(dp3626
g62
(dp3627
sg71
g3468
sg64
(lp3628
g57
(g78
g59
NtRp3629
(dp3630
g62
(dp3631
g82
g83
ssg71
g3625
sg64
(lp3632
S'registration_key'
p3633
asbag57
(g78
g59
NtRp3634
(dp3635
g62
(dp3636
g89
g90
ssg71
g3625
sg64
(lp3637
S':'
asbag57
(g78
g59
NtRp3638
(dp3639
g62
(dp3640
sg71
g3625
sg64
(lp3641
g57
(g58
g59
NtRp3642
(dp3643
g62
(dp3644
g70
I3
ssg71
g3638
sg64
(lp3645
S''
asbasbasbag57
(g73
g59
NtRp3646
(dp3647
g62
(dp3648
sg71
g3468
sg64
(lp3649
g57
(g78
g59
NtRp3650
(dp3651
g62
(dp3652
g82
g83
ssg71
g3646
sg64
(lp3653
S'reset_password_key'
p3654
asbag57
(g78
g59
NtRp3655
(dp3656
g62
(dp3657
g89
g90
ssg71
g3646
sg64
(lp3658
S':'
asbag57
(g78
g59
NtRp3659
(dp3660
g62
(dp3661
sg71
g3646
sg64
(lp3662
g57
(g58
g59
NtRp3663
(dp3664
g62
(dp3665
g70
I3
ssg71
g3659
sg64
(lp3666
S''
asbasbasbag57
(g73
g59
NtRp3667
(dp3668
g62
(dp3669
sg71
g3468
sg64
(lp3670
g57
(g78
g59
NtRp3671
(dp3672
g62
(dp3673
g82
g83
ssg71
g3667
sg64
(lp3674
S'updated_on'
p3675
asbag57
(g78
g59
NtRp3676
(dp3677
g62
(dp3678
g89
g90
ssg71
g3667
sg64
(lp3679
S':'
asbag57
(g78
g59
NtRp3680
(dp3681
g62
(dp3682
sg71
g3667
sg64
(lp3683
g57
(g58
g59
NtRp3684
(dp3685
g62
(dp3686
g70
I3
ssg71
g3680
sg64
(lp3687
S'datetime.datetime(2012, 8, 28, 12, 53, 14)'
p3688
asbasbasbasbasbasbasbag57
(g73
g59
NtRp3689
(dp3690
g62
(dp3691
sg71
g3356
sg64
(lp3692
g57
(g78
g59
NtRp3693
(dp3694
g62
(dp3695
g82
g83
ssg71
g3689
sg64
(lp3696
S'user_groups'
p3697
asbag57
(g78
g59
NtRp3698
(dp3699
g62
(dp3700
g89
g90
ssg71
g3689
sg64
(lp3701
S':'
asbag57
(g78
g59
NtRp3702
(dp3703
g62
(dp3704
sg71
g3689
sg64
(lp3705
g57
(g58
g59
NtRp3706
(dp3707
g62
(dp3708
g70
I4
ssg71
g3702
sg64
(lp3709
g57
(g66
g59
NtRp3710
(dp3711
g62
(dp3712
g70
I3
ssg71
Nsg64
(lp3713
sbasbasbasbasbasbasbasbag57
(g73
g59
NtRp3714
(dp3715
g62
(dp3716
sg71
g3331
sg64
(lp3717
g57
(g78
g59
NtRp3718
(dp3719
g62
(dp3720
g82
g83
ssg71
g3714
sg64
(lp3721
S'telefam_description'
p3722
asbag57
(g78
g59
NtRp3723
(dp3724
g62
(dp3725
g89
g90
ssg71
g3714
sg64
(lp3726
S':'
asbag57
(g78
g59
NtRp3727
(dp3728
g62
(dp3729
sg71
g3714
sg64
(lp3730
g57
(g58
g59
NtRp3731
(dp3732
g62
(dp3733
g70
I5
ssg71
g3727
sg64
(lp3734
S'Telefam de Pepi'
p3735
asbasbasbag57
(g73
g59
NtRp3736
(dp3737
g62
(dp3738
sg71
g3331
sg64
(lp3739
g57
(g78
g59
NtRp3740
(dp3741
g62
(dp3742
g82
g83
ssg71
g3736
sg64
(lp3743
S'telefam_id'
p3744
asbag57
(g78
g59
NtRp3745
(dp3746
g62
(dp3747
g89
g90
ssg71
g3736
sg64
(lp3748
S':'
asbag57
(g78
g59
NtRp3749
(dp3750
g62
(dp3751
sg71
g3736
sg64
(lp3752
g57
(g58
g59
NtRp3753
(dp3754
g62
(dp3755
g70
I5
ssg71
g3749
sg64
(lp3756
S'1'
asbasbasbasbasbsS'etype'
p3757
S"<type 'exceptions.NameError'>"
p3758
sS'date'
p3759
S'Thu Aug 30 14:28:51 2012'
p3760
sS'response'
p3761
g57
(g58
g59
NtRp3762
(dp3763
g62
(dp3764
sg64
(lp3765
g57
(g66
g59
NtRp3766
(dp3767
g62
(dp3768
g70
I5
ssg71
Nsg64
(lp3769
g57
(g73
g59
NtRp3770
(dp3771
g62
(dp3772
sg71
g3766
sg64
(lp3773
g57
(g78
g59
NtRp3774
(dp3775
g62
(dp3776
g82
g83
ssg71
g3770
sg64
(lp3777
g168
asbag57
(g78
g59
NtRp3778
(dp3779
g62
(dp3780
g89
g90
ssg71
g3770
sg64
(lp3781
S':'
asbag57
(g78
g59
NtRp3782
(dp3783
g62
(dp3784
sg71
g3770
sg64
(lp3785
g57
(g58
g59
NtRp3786
(dp3787
g62
(dp3788
g70
I5
ssg71
g3782
sg64
(lp3789
S'<cStringIO.StringO object at 0xa6beb40>'
p3790
asbasbasbag57
(g73
g59
NtRp3791
(dp3792
g62
(dp3793
sg71
g3766
sg64
(lp3794
g57
(g78
g59
NtRp3795
(dp3796
g62
(dp3797
g82
g83
ssg71
g3791
sg64
(lp3798
g234
asbag57
(g78
g59
NtRp3799
(dp3800
g62
(dp3801
g89
g90
ssg71
g3791
sg64
(lp3802
S':'
asbag57
(g78
g59
NtRp3803
(dp3804
g62
(dp3805
sg71
g3791
sg64
(lp3806
g57
(g58
g59
NtRp3807
(dp3808
g62
(dp3809
g70
I5
ssg71
g3803
sg64
(lp3810
g57
(g66
g59
NtRp3811
(dp3812
g62
(dp3813
g70
I4
ssg71
Nsg64
(lp3814
g57
(g73
g59
NtRp3815
(dp3816
g62
(dp3817
sg71
g3811
sg64
(lp3818
g57
(g78
g59
NtRp3819
(dp3820
g62
(dp3821
g82
g83
ssg71
g3815
sg64
(lp3822
S'session_id_telefam'
p3823
asbag57
(g78
g59
NtRp3824
(dp3825
g62
(dp3826
g89
g90
ssg71
g3815
sg64
(lp3827
S':'
asbag57
(g78
g59
NtRp3828
(dp3829
g62
(dp3830
sg71
g3815
sg64
(lp3831
g57
(g58
g59
NtRp3832
(dp3833
g62
(dp3834
g70
I4
ssg71
g3828
sg64
(lp3835
g57
(g66
g59
NtRp3836
(dp3837
g62
(dp3838
g70
I3
ssg71
Nsg64
(lp3839
g57
(g73
g59
NtRp3840
(dp3841
g62
(dp3842
sg71
g3836
sg64
(lp3843
g57
(g78
g59
NtRp3844
(dp3845
g62
(dp3846
g82
g83
ssg71
g3840
sg64
(lp3847
g284
asbag57
(g78
g59
NtRp3848
(dp3849
g62
(dp3850
g89
g90
ssg71
g3840
sg64
(lp3851
S':'
asbag57
(g78
g59
NtRp3852
(dp3853
g62
(dp3854
sg71
g3840
sg64
(lp3855
g57
(g58
g59
NtRp3856
(dp3857
g62
(dp3858
g70
I3
ssg71
g3852
sg64
(lp3859
S''
asbasbasbag57
(g73
g59
NtRp3860
(dp3861
g62
(dp3862
sg71
g3836
sg64
(lp3863
g57
(g78
g59
NtRp3864
(dp3865
g62
(dp3866
g82
g83
ssg71
g3860
sg64
(lp3867
g305
asbag57
(g78
g59
NtRp3868
(dp3869
g62
(dp3870
g89
g90
ssg71
g3860
sg64
(lp3871
S':'
asbag57
(g78
g59
NtRp3872
(dp3873
g62
(dp3874
sg71
g3860
sg64
(lp3875
g57
(g58
g59
NtRp3876
(dp3877
g62
(dp3878
g70
I3
ssg71
g3872
sg64
(lp3879
S''
asbasbasbag57
(g73
g59
NtRp3880
(dp3881
g62
(dp3882
sg71
g3836
sg64
(lp3883
g57
(g78
g59
NtRp3884
(dp3885
g62
(dp3886
g82
g83
ssg71
g3880
sg64
(lp3887
g326
asbag57
(g78
g59
NtRp3888
(dp3889
g62
(dp3890
g89
g90
ssg71
g3880
sg64
(lp3891
S':'
asbag57
(g78
g59
NtRp3892
(dp3893
g62
(dp3894
sg71
g3880
sg64
(lp3895
g57
(g58
g59
NtRp3896
(dp3897
g62
(dp3898
g70
I3
ssg71
g3892
sg64
(lp3899
S''
asbasbasbag57
(g73
g59
NtRp3900
(dp3901
g62
(dp3902
sg71
g3836
sg64
(lp3903
g57
(g78
g59
NtRp3904
(dp3905
g62
(dp3906
g82
g83
ssg71
g3900
sg64
(lp3907
g347
asbag57
(g78
g59
NtRp3908
(dp3909
g62
(dp3910
g89
g90
ssg71
g3900
sg64
(lp3911
S':'
asbag57
(g78
g59
NtRp3912
(dp3913
g62
(dp3914
sg71
g3900
sg64
(lp3915
g57
(g58
g59
NtRp3916
(dp3917
g62
(dp3918
g70
I3
ssg71
g3912
sg64
(lp3919
S''
asbasbasbag57
(g73
g59
NtRp3920
(dp3921
g62
(dp3922
sg71
g3836
sg64
(lp3923
g57
(g78
g59
NtRp3924
(dp3925
g62
(dp3926
g82
g83
ssg71
g3920
sg64
(lp3927
g368
asbag57
(g78
g59
NtRp3928
(dp3929
g62
(dp3930
g89
g90
ssg71
g3920
sg64
(lp3931
S':'
asbag57
(g78
g59
NtRp3932
(dp3933
g62
(dp3934
sg71
g3920
sg64
(lp3935
g57
(g58
g59
NtRp3936
(dp3937
g62
(dp3938
g70
I3
ssg71
g3932
sg64
(lp3939
S''
asbasbasbag57
(g73
g59
NtRp3940
(dp3941
g62
(dp3942
sg71
g3836
sg64
(lp3943
g57
(g78
g59
NtRp3944
(dp3945
g62
(dp3946
g82
g83
ssg71
g3940
sg64
(lp3947
g389
asbag57
(g78
g59
NtRp3948
(dp3949
g62
(dp3950
g89
g90
ssg71
g3940
sg64
(lp3951
S':'
asbag57
(g78
g59
NtRp3952
(dp3953
g62
(dp3954
sg71
g3940
sg64
(lp3955
g57
(g58
g59
NtRp3956
(dp3957
g62
(dp3958
g70
I3
ssg71
g3952
sg64
(lp3959
S'/'
asbasbasbag57
(g73
g59
NtRp3960
(dp3961
g62
(dp3962
sg71
g3836
sg64
(lp3963
g57
(g78
g59
NtRp3964
(dp3965
g62
(dp3966
g82
g83
ssg71
g3960
sg64
(lp3967
g410
asbag57
(g78
g59
NtRp3968
(dp3969
g62
(dp3970
g89
g90
ssg71
g3960
sg64
(lp3971
S':'
asbag57
(g78
g59
NtRp3972
(dp3973
g62
(dp3974
sg71
g3960
sg64
(lp3975
g57
(g58
g59
NtRp3976
(dp3977
g62
(dp3978
g70
I3
ssg71
g3972
sg64
(lp3979
S''
asbasbasbag57
(g73
g59
NtRp3980
(dp3981
g62
(dp3982
sg71
g3836
sg64
(lp3983
g57
(g78
g59
NtRp3984
(dp3985
g62
(dp3986
g82
g83
ssg71
g3980
sg64
(lp3987
g431
asbag57
(g78
g59
NtRp3988
(dp3989
g62
(dp3990
g89
g90
ssg71
g3980
sg64
(lp3991
S':'
asbag57
(g78
g59
NtRp3992
(dp3993
g62
(dp3994
sg71
g3980
sg64
(lp3995
g57
(g58
g59
NtRp3996
(dp3997
g62
(dp3998
g70
I3
ssg71
g3992
sg64
(lp3999
S''
asbasbasbasbasbasbasbasbasbasbasbag57
(g73
g59
NtRp4000
(dp4001
g62
(dp4002
sg71
g3766
sg64
(lp4003
g57
(g78
g59
NtRp4004
(dp4005
g62
(dp4006
g82
g83
ssg71
g4000
sg64
(lp4007
S'delimiters'
p4008
asbag57
(g78
g59
NtRp4009
(dp4010
g62
(dp4011
g89
g90
ssg71
g4000
sg64
(lp4012
S':'
asbag57
(g78
g59
NtRp4013
(dp4014
g62
(dp4015
sg71
g4000
sg64
(lp4016
g57
(g58
g59
NtRp4017
(dp4018
g62
(dp4019
g70
I5
ssg71
g4013
sg64
(lp4020
g57
(g66
g59
NtRp4021
(dp4022
g62
(dp4023
g70
I4
ssg71
Nsg64
(lp4024
g57
(g73
g59
NtRp4025
(dp4026
g62
(dp4027
sg71
g4021
sg64
(lp4028
g57
(g78
g59
NtRp4029
(dp4030
g62
(dp4031
sg71
g4025
sg64
(lp4032
g57
(g58
g59
NtRp4033
(dp4034
g62
(dp4035
g70
I4
ssg71
g4029
sg64
(lp4036
S'{{'
p4037
asbasbasbag57
(g73
g59
NtRp4038
(dp4039
g62
(dp4040
sg71
g4021
sg64
(lp4041
g57
(g78
g59
NtRp4042
(dp4043
g62
(dp4044
sg71
g4038
sg64
(lp4045
g57
(g58
g59
NtRp4046
(dp4047
g62
(dp4048
g70
I4
ssg71
g4042
sg64
(lp4049
S'}}'
p4050
asbasbasbasbasbasbasbag57
(g73
g59
NtRp4051
(dp4052
g62
(dp4053
sg71
g3766
sg64
(lp4054
g57
(g78
g59
NtRp4055
(dp4056
g62
(dp4057
g82
g83
ssg71
g4051
sg64
(lp4058
S'files'
p4059
asbag57
(g78
g59
NtRp4060
(dp4061
g62
(dp4062
g89
g90
ssg71
g4051
sg64
(lp4063
S':'
asbag57
(g78
g59
NtRp4064
(dp4065
g62
(dp4066
sg71
g4051
sg64
(lp4067
g57
(g58
g59
NtRp4068
(dp4069
g62
(dp4070
g70
I5
ssg71
g4064
sg64
(lp4071
g57
(g66
g59
NtRp4072
(dp4073
g62
(dp4074
g70
I4
ssg71
Nsg64
(lp4075
sbasbasbasbag57
(g73
g59
NtRp4076
(dp4077
g62
(dp4078
sg71
g3766
sg64
(lp4079
g57
(g78
g59
NtRp4080
(dp4081
g62
(dp4082
g82
g83
ssg71
g4076
sg64
(lp4083
S'flash'
p4084
asbag57
(g78
g59
NtRp4085
(dp4086
g62
(dp4087
g89
g90
ssg71
g4076
sg64
(lp4088
S':'
asbag57
(g78
g59
NtRp4089
(dp4090
g62
(dp4091
sg71
g4076
sg64
(lp4092
g57
(g58
g59
NtRp4093
(dp4094
g62
(dp4095
g70
I5
ssg71
g4089
sg64
(lp4096
S''
asbasbasbag57
(g73
g59
NtRp4097
(dp4098
g62
(dp4099
sg71
g3766
sg64
(lp4100
g57
(g78
g59
NtRp4101
(dp4102
g62
(dp4103
g82
g83
ssg71
g4097
sg64
(lp4104
S'generic_patterns'
p4105
asbag57
(g78
g59
NtRp4106
(dp4107
g62
(dp4108
g89
g90
ssg71
g4097
sg64
(lp4109
S':'
asbag57
(g78
g59
NtRp4110
(dp4111
g62
(dp4112
sg71
g4097
sg64
(lp4113
g57
(g58
g59
NtRp4114
(dp4115
g62
(dp4116
g70
I5
ssg71
g4110
sg64
(lp4117
g57
(g66
g59
NtRp4118
(dp4119
g62
(dp4120
g70
I4
ssg71
Nsg64
(lp4121
g57
(g73
g59
NtRp4122
(dp4123
g62
(dp4124
sg71
g4118
sg64
(lp4125
g57
(g78
g59
NtRp4126
(dp4127
g62
(dp4128
sg71
g4122
sg64
(lp4129
g57
(g58
g59
NtRp4130
(dp4131
g62
(dp4132
g70
I4
ssg71
g4126
sg64
(lp4133
S'*.json'
p4134
asbasbasbasbasbasbasbag57
(g73
g59
NtRp4135
(dp4136
g62
(dp4137
sg71
g3766
sg64
(lp4138
g57
(g78
g59
NtRp4139
(dp4140
g62
(dp4141
g82
g83
ssg71
g4135
sg64
(lp4142
S'headers'
p4143
asbag57
(g78
g59
NtRp4144
(dp4145
g62
(dp4146
g89
g90
ssg71
g4135
sg64
(lp4147
S':'
asbag57
(g78
g59
NtRp4148
(dp4149
g62
(dp4150
sg71
g4135
sg64
(lp4151
g57
(g58
g59
NtRp4152
(dp4153
g62
(dp4154
g70
I5
ssg71
g4148
sg64
(lp4155
g57
(g66
g59
NtRp4156
(dp4157
g62
(dp4158
g70
I4
ssg71
Nsg64
(lp4159
g57
(g73
g59
NtRp4160
(dp4161
g62
(dp4162
sg71
g4156
sg64
(lp4163
g57
(g78
g59
NtRp4164
(dp4165
g62
(dp4166
g82
g83
ssg71
g4160
sg64
(lp4167
S'Cache-Control'
p4168
asbag57
(g78
g59
NtRp4169
(dp4170
g62
(dp4171
g89
g90
ssg71
g4160
sg64
(lp4172
S':'
asbag57
(g78
g59
NtRp4173
(dp4174
g62
(dp4175
sg71
g4160
sg64
(lp4176
g57
(g58
g59
NtRp4177
(dp4178
g62
(dp4179
g70
I4
ssg71
g4173
sg64
(lp4180
S'no-store, no-cache, must-revalidate, post-check=0, pre-check=0'
p4181
asbasbasbag57
(g73
g59
NtRp4182
(dp4183
g62
(dp4184
sg71
g4156
sg64
(lp4185
g57
(g78
g59
NtRp4186
(dp4187
g62
(dp4188
g82
g83
ssg71
g4182
sg64
(lp4189
S'Content-Type'
p4190
asbag57
(g78
g59
NtRp4191
(dp4192
g62
(dp4193
g89
g90
ssg71
g4182
sg64
(lp4194
S':'
asbag57
(g78
g59
NtRp4195
(dp4196
g62
(dp4197
sg71
g4182
sg64
(lp4198
g57
(g58
g59
NtRp4199
(dp4200
g62
(dp4201
g70
I4
ssg71
g4195
sg64
(lp4202
S'text/html; charset=utf-8'
p4203
asbasbasbag57
(g73
g59
NtRp4204
(dp4205
g62
(dp4206
sg71
g4156
sg64
(lp4207
g57
(g78
g59
NtRp4208
(dp4209
g62
(dp4210
g82
g83
ssg71
g4204
sg64
(lp4211
S'Expires'
p4212
asbag57
(g78
g59
NtRp4213
(dp4214
g62
(dp4215
g89
g90
ssg71
g4204
sg64
(lp4216
S':'
asbag57
(g78
g59
NtRp4217
(dp4218
g62
(dp4219
sg71
g4204
sg64
(lp4220
g57
(g58
g59
NtRp4221
(dp4222
g62
(dp4223
g70
I4
ssg71
g4217
sg64
(lp4224
S'Thu, 30 Aug 2012 12:28:51 GMT'
p4225
asbasbasbag57
(g73
g59
NtRp4226
(dp4227
g62
(dp4228
sg71
g4156
sg64
(lp4229
g57
(g78
g59
NtRp4230
(dp4231
g62
(dp4232
g82
g83
ssg71
g4226
sg64
(lp4233
S'Pragma'
p4234
asbag57
(g78
g59
NtRp4235
(dp4236
g62
(dp4237
g89
g90
ssg71
g4226
sg64
(lp4238
S':'
asbag57
(g78
g59
NtRp4239
(dp4240
g62
(dp4241
sg71
g4226
sg64
(lp4242
g57
(g58
g59
NtRp4243
(dp4244
g62
(dp4245
g70
I4
ssg71
g4239
sg64
(lp4246
S'no-cache'
p4247
asbasbasbag57
(g73
g59
NtRp4248
(dp4249
g62
(dp4250
sg71
g4156
sg64
(lp4251
g57
(g78
g59
NtRp4252
(dp4253
g62
(dp4254
g82
g83
ssg71
g4248
sg64
(lp4255
S'X-Powered-By'
p4256
asbag57
(g78
g59
NtRp4257
(dp4258
g62
(dp4259
g89
g90
ssg71
g4248
sg64
(lp4260
S':'
asbag57
(g78
g59
NtRp4261
(dp4262
g62
(dp4263
sg71
g4248
sg64
(lp4264
g57
(g58
g59
NtRp4265
(dp4266
g62
(dp4267
g70
I4
ssg71
g4261
sg64
(lp4268
S'web2py'
p4269
asbasbasbasbasbasbasbag57
(g73
g59
NtRp4270
(dp4271
g62
(dp4272
sg71
g3766
sg64
(lp4273
g57
(g78
g59
NtRp4274
(dp4275
g62
(dp4276
g82
g83
ssg71
g4270
sg64
(lp4277
S'menu'
p4278
asbag57
(g78
g59
NtRp4279
(dp4280
g62
(dp4281
g89
g90
ssg71
g4270
sg64
(lp4282
S':'
asbag57
(g78
g59
NtRp4283
(dp4284
g62
(dp4285
sg71
g4270
sg64
(lp4286
g57
(g58
g59
NtRp4287
(dp4288
g62
(dp4289
g70
I5
ssg71
g4283
sg64
(lp4290
g57
(g66
g59
NtRp4291
(dp4292
g62
(dp4293
g70
I4
ssg71
Nsg64
(lp4294
sbasbasbasbag57
(g73
g59
NtRp4295
(dp4296
g62
(dp4297
sg71
g3766
sg64
(lp4298
g57
(g78
g59
NtRp4299
(dp4300
g62
(dp4301
g82
g83
ssg71
g4295
sg64
(lp4302
S'meta'
p4303
asbag57
(g78
g59
NtRp4304
(dp4305
g62
(dp4306
g89
g90
ssg71
g4295
sg64
(lp4307
S':'
asbag57
(g78
g59
NtRp4308
(dp4309
g62
(dp4310
sg71
g4295
sg64
(lp4311
g57
(g58
g59
NtRp4312
(dp4313
g62
(dp4314
g70
I5
ssg71
g4308
sg64
(lp4315
g57
(g66
g59
NtRp4316
(dp4317
g62
(dp4318
g70
I4
ssg71
Nsg64
(lp4319
sbasbasbasbag57
(g73
g59
NtRp4320
(dp4321
g62
(dp4322
sg71
g3766
sg64
(lp4323
g57
(g78
g59
NtRp4324
(dp4325
g62
(dp4326
g82
g83
ssg71
g4320
sg64
(lp4327
S'postprocessing'
p4328
asbag57
(g78
g59
NtRp4329
(dp4330
g62
(dp4331
g89
g90
ssg71
g4320
sg64
(lp4332
S':'
asbag57
(g78
g59
NtRp4333
(dp4334
g62
(dp4335
sg71
g4320
sg64
(lp4336
g57
(g58
g59
NtRp4337
(dp4338
g62
(dp4339
g70
I5
ssg71
g4333
sg64
(lp4340
g57
(g66
g59
NtRp4341
(dp4342
g62
(dp4343
g70
I4
ssg71
Nsg64
(lp4344
sbasbasbasbag57
(g73
g59
NtRp4345
(dp4346
g62
(dp4347
sg71
g3766
sg64
(lp4348
g57
(g78
g59
NtRp4349
(dp4350
g62
(dp4351
g82
g83
ssg71
g4345
sg64
(lp4352
S'session_file'
p4353
asbag57
(g78
g59
NtRp4354
(dp4355
g62
(dp4356
g89
g90
ssg71
g4345
sg64
(lp4357
S':'
asbag57
(g78
g59
NtRp4358
(dp4359
g62
(dp4360
sg71
g4345
sg64
(lp4361
g57
(g58
g59
NtRp4362
(dp4363
g62
(dp4364
g70
I5
ssg71
g4358
sg64
(lp4365
S"<open file '/home/alfem/alfem/prog/telefam/server/web2py/applications/telefam/sessions/127.0.0.1-f7f620a6-fd63-4f72-b11a-b8325669ccbf', mode 'rb+' at 0xa67be90>"
p4366
asbasbasbag57
(g73
g59
NtRp4367
(dp4368
g62
(dp4369
sg71
g3766
sg64
(lp4370
g57
(g78
g59
NtRp4371
(dp4372
g62
(dp4373
g82
g83
ssg71
g4367
sg64
(lp4374
S'session_filename'
p4375
asbag57
(g78
g59
NtRp4376
(dp4377
g62
(dp4378
g89
g90
ssg71
g4367
sg64
(lp4379
S':'
asbag57
(g78
g59
NtRp4380
(dp4381
g62
(dp4382
sg71
g4367
sg64
(lp4383
g57
(g58
g59
NtRp4384
(dp4385
g62
(dp4386
g70
I5
ssg71
g4380
sg64
(lp4387
S'/home/alfem/alfem/prog/telefam/server/web2py/applications/telefam/sessions/127.0.0.1-f7f620a6-fd63-4f72-b11a-b8325669ccbf'
p4388
asbasbasbag57
(g73
g59
NtRp4389
(dp4390
g62
(dp4391
sg71
g3766
sg64
(lp4392
g57
(g78
g59
NtRp4393
(dp4394
g62
(dp4395
g82
g83
ssg71
g4389
sg64
(lp4396
S'session_id'
p4397
asbag57
(g78
g59
NtRp4398
(dp4399
g62
(dp4400
g89
g90
ssg71
g4389
sg64
(lp4401
S':'
asbag57
(g78
g59
NtRp4402
(dp4403
g62
(dp4404
sg71
g4389
sg64
(lp4405
g57
(g58
g59
NtRp4406
(dp4407
g62
(dp4408
g70
I5
ssg71
g4402
sg64
(lp4409
S'127.0.0.1-f7f620a6-fd63-4f72-b11a-b8325669ccbf'
p4410
asbasbasbag57
(g73
g59
NtRp4411
(dp4412
g62
(dp4413
sg71
g3766
sg64
(lp4414
g57
(g78
g59
NtRp4415
(dp4416
g62
(dp4417
g82
g83
ssg71
g4411
sg64
(lp4418
S'session_id_name'
p4419
asbag57
(g78
g59
NtRp4420
(dp4421
g62
(dp4422
g89
g90
ssg71
g4411
sg64
(lp4423
S':'
asbag57
(g78
g59
NtRp4424
(dp4425
g62
(dp4426
sg71
g4411
sg64
(lp4427
g57
(g58
g59
NtRp4428
(dp4429
g62
(dp4430
g70
I5
ssg71
g4424
sg64
(lp4431
g3823
asbasbasbag57
(g73
g59
NtRp4432
(dp4433
g62
(dp4434
sg71
g3766
sg64
(lp4435
g57
(g78
g59
NtRp4436
(dp4437
g62
(dp4438
g82
g83
ssg71
g4432
sg64
(lp4439
S'session_locked'
p4440
asbag57
(g78
g59
NtRp4441
(dp4442
g62
(dp4443
g89
g90
ssg71
g4432
sg64
(lp4444
S':'
asbag57
(g78
g59
NtRp4445
(dp4446
g62
(dp4447
sg71
g4432
sg64
(lp4448
g57
(g58
g59
NtRp4449
(dp4450
g62
(dp4451
g70
I5
ssg71
g4445
sg64
(lp4452
g1614
asbasbasbag57
(g73
g59
NtRp4453
(dp4454
g62
(dp4455
sg71
g3766
sg64
(lp4456
g57
(g78
g59
NtRp4457
(dp4458
g62
(dp4459
g82
g83
ssg71
g4453
sg64
(lp4460
S'session_new'
p4461
asbag57
(g78
g59
NtRp4462
(dp4463
g62
(dp4464
g89
g90
ssg71
g4453
sg64
(lp4465
S':'
asbag57
(g78
g59
NtRp4466
(dp4467
g62
(dp4468
sg71
g4453
sg64
(lp4469
g57
(g58
g59
NtRp4470
(dp4471
g62
(dp4472
g70
I5
ssg71
g4466
sg64
(lp4473
g100
asbasbasbag57
(g73
g59
NtRp4474
(dp4475
g62
(dp4476
sg71
g3766
sg64
(lp4477
g57
(g78
g59
NtRp4478
(dp4479
g62
(dp4480
g82
g83
ssg71
g4474
sg64
(lp4481
S'status'
p4482
asbag57
(g78
g59
NtRp4483
(dp4484
g62
(dp4485
g89
g90
ssg71
g4474
sg64
(lp4486
S':'
asbag57
(g78
g59
NtRp4487
(dp4488
g62
(dp4489
sg71
g4474
sg64
(lp4490
g57
(g58
g59
NtRp4491
(dp4492
g62
(dp4493
g70
I5
ssg71
g4487
sg64
(lp4494
S'200'
p4495
asbasbasbag57
(g73
g59
NtRp4496
(dp4497
g62
(dp4498
sg71
g3766
sg64
(lp4499
g57
(g78
g59
NtRp4500
(dp4501
g62
(dp4502
g82
g83
ssg71
g4496
sg64
(lp4503
g2407
asbag57
(g78
g59
NtRp4504
(dp4505
g62
(dp4506
g89
g90
ssg71
g4496
sg64
(lp4507
S':'
asbag57
(g78
g59
NtRp4508
(dp4509
g62
(dp4510
sg71
g4496
sg64
(lp4511
g57
(g58
g59
NtRp4512
(dp4513
g62
(dp4514
g70
I5
ssg71
g4508
sg64
(lp4515
g2420
asbasbasbag57
(g73
g59
NtRp4516
(dp4517
g62
(dp4518
sg71
g3766
sg64
(lp4519
g57
(g78
g59
NtRp4520
(dp4521
g62
(dp4522
g82
g83
ssg71
g4516
sg64
(lp4523
S'view'
p4524
asbag57
(g78
g59
NtRp4525
(dp4526
g62
(dp4527
g89
g90
ssg71
g4516
sg64
(lp4528
S':'
asbag57
(g78
g59
NtRp4529
(dp4530
g62
(dp4531
sg71
g4516
sg64
(lp4532
g57
(g58
g59
NtRp4533
(dp4534
g62
(dp4535
g70
I5
ssg71
g4529
sg64
(lp4536
S'default/user.html'
p4537
asbasbasbasbasbsS'locals'
p4538
(dp4539
S'Service'
p4540
S"<class 'gluon.tools.Service'>"
p4541
sS'OBJECT'
p4542
S"<class 'gluon.html.OBJECT'>"
p4543
sS'SQLDB'
p4544
S"<class 'gluon.dal.DAL'>"
p4545
sg3326
S"<Storage {'_formkey[messages/create]': '2a75287c...sword]': '36938352-a104-4f51-a85e-c4cbf24c7b18'}>"
p4546
sS'LINK'
p4547
S"<class 'gluon.html.LINK'>"
p4548
sS'BR'
p4549
S"<class 'gluon.html.BR'>"
p4550
sS'local_import'
p4551
S'<function <lambda>>'
p4552
sS'OPTGROUP'
p4553
S"<class 'gluon.html.OPTGROUP'>"
p4554
sS'LI'
p4555
S"<class 'gluon.html.LI'>"
p4556
sS'PRE'
p4557
S"<class 'gluon.html.PRE'>"
p4558
sS'IS_INT_IN_RANGE'
p4559
S"<class 'gluon.validators.IS_INT_IN_RANGE'>"
p4560
sS'IS_LOWER'
p4561
S"<class 'gluon.validators.IS_LOWER'>"
p4562
sS'IS_STRONG'
p4563
S"<class 'gluon.validators.IS_STRONG'>"
p4564
sS'cache'
p4565
S'<gluon.cache.Cache object>'
p4566
sS'IS_IN_DB'
p4567
S"<class 'gluon.validators.IS_IN_DB'>"
p4568
sS'TAG'
p4569
S'<gluon.html.__TAG__ object>'
p4570
sS'SQLField'
p4571
S"<class 'gluon.dal.Field'>"
p4572
sS'BODY'
p4573
S"<class 'gluon.html.BODY'>"
p4574
sS'IS_DATE_IN_RANGE'
p4575
S"<class 'gluon.validators.IS_DATE_IN_RANGE'>"
p4576
sS'IFRAME'
p4577
S"<class 'gluon.html.IFRAME'>"
p4578
sS'URL'
p4579
S'<function URL>'
p4580
sS'__file__'
p4581
S"'/home/alfem/alfem/prog/telefam/server/web2py/applications/telefam/models/db.py'"
p4582
sS'db'
p4583
S"<DAL {'_migrate_enabled': True, '_lastsql': '', ...'_uri_hash': 'c95055ea64cde91a7692f50216e77af3'}>"
p4584
sS'auth'
p4585
S'<gluon.tools.Auth object>'
p4586
sS'P'
S"<class 'gluon.html.P'>"
p4587
sS'TFOOT'
p4588
S"<class 'gluon.html.TFOOT'>"
p4589
sS'XHTML'
p4590
S"<class 'gluon.html.XHTML'>"
p4591
sS'ON'
p4592
g1614
sS'OL'
p4593
S"<class 'gluon.html.OL'>"
p4594
sS'TEXTAREA'
p4595
S"<class 'gluon.html.TEXTAREA'>"
p4596
sS'MENU'
p4597
S"<class 'gluon.html.MENU'>"
p4598
sS'EM'
p4599
S"<class 'gluon.html.EM'>"
p4600
sS'CODE'
p4601
S"<class 'gluon.html.CODE'>"
p4602
sS'HTTP'
p4603
S"<class 'gluon.http.HTTP'>"
p4604
sS'HR'
p4605
S"<class 'gluon.html.HR'>"
p4606
sS'IS_DATETIME'
p4607
S"<class 'gluon.validators.IS_DATETIME'>"
p4608
sS'STYLE'
p4609
S"<class 'gluon.html.STYLE'>"
p4610
sS'LABEL'
p4611
S"<class 'gluon.html.LABEL'>"
p4612
sS'META'
p4613
S"<class 'gluon.html.META'>"
p4614
sS'SELECT'
p4615
S"<class 'gluon.html.SELECT'>"
p4616
sS'CENTER'
p4617
S"<class 'gluon.html.CENTER'>"
p4618
sS'prettydate'
p4619
S'<function prettydate>'
p4620
sS'Crud'
p4621
S"<class 'gluon.tools.Crud'>"
p4622
sS'Auth'
p4623
S"<class 'gluon.tools.Auth'>"
p4624
sS'__builtins__'
p4625
S"{'ArithmeticError': <type 'exceptions.ArithmeticError'>, 'AssertionError': <type 'exceptions.AssertionError'>, 'AttributeError': <type 'exceptions.AttributeError'>, 'BaseException': <type 'exceptions.BaseException'>, 'BufferError': <type 'exceptions.BufferError'>, 'BytesWarning': <type 'exceptions.BytesWarning'>, 'DeprecationWarning': <type 'exceptions.DeprecationWarning'>, 'EOFError': <type 'exceptions.EOFError'>, 'Ellipsis': Ellipsis, 'EnvironmentError': <type 'exceptions.EnvironmentError'>, ...}"
p4626
sS'HTML'
p4627
S"<class 'gluon.html.HTML'>"
p4628
sS'SQLFORM'
p4629
S"<class 'gluon.sqlhtml.SQLFORM'>"
p4630
sS'LOAD'
p4631
S'<function LOAD>'
p4632
sS'redirect'
p4633
S'<function redirect>'
p4634
sS'FIELDSET'
p4635
S"<class 'gluon.html.FIELDSET'>"
p4636
sS'IS_EQUAL_TO'
p4637
S"<class 'gluon.validators.IS_EQUAL_TO'>"
p4638
sS'embed64'
p4639
S'<function embed64>'
p4640
sS'IS_LIST_OF'
p4641
S"<class 'gluon.validators.IS_LIST_OF'>"
p4642
sS'INPUT'
p4643
S"<class 'gluon.html.INPUT'>"
p4644
sS'EMBED'
p4645
S"<class 'gluon.html.EMBED'>"
p4646
sS'FORM'
p4647
S"<class 'gluon.html.FORM'>"
p4648
sS'H2'
p4649
S"<class 'gluon.html.H2'>"
p4650
sS'H3'
p4651
S"<class 'gluon.html.H3'>"
p4652
sS'BUTTON'
p4653
S"<class 'gluon.html.BUTTON'>"
p4654
sS'H1'
p4655
S"<class 'gluon.html.H1'>"
p4656
sS'H6'
p4657
S"<class 'gluon.html.H6'>"
p4658
sS'H4'
p4659
S"<class 'gluon.html.H4'>"
p4660
sS'H5'
p4661
S"<class 'gluon.html.H5'>"
p4662
sS'UL'
p4663
S"<class 'gluon.html.UL'>"
p4664
sS'IS_UPPER'
p4665
S"<class 'gluon.validators.IS_UPPER'>"
p4666
sS'xmlescape'
p4667
S'<function xmlescape>'
p4668
sS'IS_TIME'
p4669
S"<class 'gluon.validators.IS_TIME'>"
p4670
sS'OPTION'
p4671
S"<class 'gluon.html.OPTION'>"
p4672
sS'TITLE'
p4673
S"<class 'gluon.html.TITLE'>"
p4674
sS'CRYPT'
p4675
S"<class 'gluon.validators.CRYPT'>"
p4676
sS'IS_EMPTY_OR'
p4677
S"<class 'gluon.validators.IS_EMPTY_OR'>"
p4678
sS'MARKMIN'
p4679
S"<class 'gluon.html.MARKMIN'>"
p4680
sS'__name__'
p4681
S"'__restricted__'"
p4682
sS'COL'
p4683
S"<class 'gluon.html.COL'>"
p4684
sS'SCRIPT'
p4685
S"<class 'gluon.html.SCRIPT'>"
p4686
sS'TABLE'
p4687
S"<class 'gluon.html.TABLE'>"
p4688
sS'IS_IPV4'
p4689
S"<class 'gluon.validators.IS_IPV4'>"
p4690
sS'IS_LENGTH'
p4691
S"<class 'gluon.validators.IS_LENGTH'>"
p4692
sS'XML'
p4693
S"<class 'gluon.html.XML'>"
p4694
sS'B'
S"<class 'gluon.html.B'>"
p4695
sS'IMG'
p4696
S"<class 'gluon.html.IMG'>"
p4697
sS'SQLTABLE'
p4698
S"<class 'gluon.sqlhtml.SQLTABLE'>"
p4699
sS'IS_MATCH'
p4700
S"<class 'gluon.validators.IS_MATCH'>"
p4701
sS'IS_ALPHANUMERIC'
p4702
S"<class 'gluon.validators.IS_ALPHANUMERIC'>"
p4703
sS'SPAN'
p4704
S"<class 'gluon.html.SPAN'>"
p4705
sS'IS_SLUG'
p4706
S"<class 'gluon.validators.IS_SLUG'>"
p4707
sS'CLEANUP'
p4708
S"<class 'gluon.validators.CLEANUP'>"
p4709
sS'IS_DATE'
p4710
S"<class 'gluon.validators.IS_DATE'>"
p4711
sS'IS_EMAIL'
p4712
S"<class 'gluon.validators.IS_EMAIL'>"
p4713
sS'IS_NOT_EMPTY'
p4714
S"<class 'gluon.validators.IS_NOT_EMPTY'>"
p4715
sS'IS_FLOAT_IN_RANGE'
p4716
S"<class 'gluon.validators.IS_FLOAT_IN_RANGE'>"
p4717
sS'BEAUTIFY'
p4718
S"<class 'gluon.html.BEAUTIFY'>"
p4719
sS'TBODY'
p4720
S"<class 'gluon.html.TBODY'>"
p4721
sS'CAT'
p4722
S"<class 'gluon.html.CAT'>"
p4723
sS'Field'
p4724
S"<class 'gluon.dal.Field'>"
p4725
sS'DIV'
p4726
S"<class 'gluon.html.DIV'>"
p4727
sS'LEGEND'
p4728
S"<class 'gluon.html.LEGEND'>"
p4729
sS'COLGROUP'
p4730
S"<class 'gluon.html.COLGROUP'>"
p4731
sS'DAL'
p4732
S"<class 'gluon.dal.DAL'>"
p4733
sS'TT'
p4734
S"<class 'gluon.html.TT'>"
p4735
sS'TR'
p4736
S"<class 'gluon.html.TR'>"
p4737
sS'__package__'
p4738
S'None'
p4739
sS'TH'
p4740
S"<class 'gluon.html.TH'>"
p4741
sS'TD'
p4742
S"<class 'gluon.html.TD'>"
p4743
sS'PluginManager'
p4744
S"<class 'gluon.tools.PluginManager'>"
p4745
sS'IS_URL'
p4746
S"<class 'gluon.validators.IS_URL'>"
p4747
sS'A'
S"<class 'gluon.html.A'>"
p4748
sS'HEAD'
p4749
S"<class 'gluon.html.HEAD'>"
p4750
sS'IS_DATETIME_IN_RANGE'
p4751
S"<class 'gluon.validators.IS_DATETIME_IN_RANGE'>"
p4752
sS'IS_IMAGE'
p4753
S"<class 'gluon.validators.IS_IMAGE'>"
p4754
sS'I'
S"<class 'gluon.html.I'>"
p4755
sS'update'
p4756
S'<function update>'
p4757
sS'IS_NOT_IN_DB'
p4758
S"<class 'gluon.validators.IS_NOT_IN_DB'>"
p4759
sg3761
S"<Storage {'status': 200, 'body': <cStringIO.Stri...e1b4>, 'files': [], 'view': 'default/user.html'}>"
p4760
sS'THEAD'
p4761
S"<class 'gluon.html.THEAD'>"
p4762
sS'IS_NULL_OR'
p4763
S"<class 'gluon.validators.IS_EMPTY_OR'>"
p4764
sg56
S"<Storage {'body': <open file '<fdopen>', mode 'w...5e998-5d3e-4dc0-a980-19b8b6caef1f', 'id': '1'}>}>"
p4765
sS'IS_EXPR'
p4766
S"<class 'gluon.validators.IS_EXPR'>"
p4767
sS'IS_IN_SET'
p4768
S"<class 'gluon.validators.IS_IN_SET'>"
p4769
sS'IS_UPLOAD_FILENAME'
p4770
S"<class 'gluon.validators.IS_UPLOAD_FILENAME'>"
p4771
sS'IS_DECIMAL_IN_RANGE'
p4772
S"<class 'gluon.validators.IS_DECIMAL_IN_RANGE'>"
p4773
sS'T'
S'<gluon.languages.translator object>'
p4774
sssS'traceback'
p4775
S'Traceback (most recent call last):\n  File "/home/alfem/alfem/prog/telefam/server/web2py/gluon/restricted.py", line 205, in restricted\n    exec ccode in environment\n  File "/home/alfem/alfem/prog/telefam/server/web2py/applications/telefam/models/db.py", line 57, in <module>\n    auth.settings.login_onaccept.append(update(form))\nNameError: name \'form\' is not defined\n'
p4776
s.