(dp1
S'output'
p2
S"<type 'exceptions.NameError'> global name 'update' is not defined"
p3
sS'layer'
p4
S'/home/alfem/alfem/prog/telefam/server/web2py/applications/telefam/controllers/default.py'
p5
sS'code'
p6
S'# -*- coding: utf-8 -*-\n# this file is released under public domain and you can use without limitations\n\n#########################################################################\n## This is a samples controller\n## - index is the default action of any application\n## - user is required for authentication and authorization\n## - download is for downloading files uploaded in the db (does streaming)\n## - call exposes all registered services (none by default)\n#########################################################################\nimport datetime\ndef updates(form):\n    form.update_on=request.now\n    form.first_name="TTT"\n    return form\n@auth.requires_login()\ndef index():\n    """\n    Index of Telefams\n    User must choose a device or create a new one.\n    """\n    if session.telefam_id:\n        session.flash = \'Using \'+session.telefam_description\n    else:\n        response.flash = "Choose one of yours Telefams"\n    return dict(telefams=db(db.telefams.user_id==auth.user_id).select())\n\n\ndef select():        \n    session.telefam_id=request.args[0]\n    session.telefam_description=db.telefams[session.telefam_id].description\n    redirect(URL(\'telefam\',\'messages\',\'index\'))\n\ndef new():\n    form = crud.create(db.telefams)\n    if form.process().accepted:\n        redirect(URL(\'index\'))\n    else:\n      return dict(message=T(\'Add a new Telefam\'), form=form)\n\n\ndef user():\n    """\n    exposes:\n    http://..../[app]/default/user/login\n    http://..../[app]/default/user/logout\n    http://..../[app]/default/user/register\n    http://..../[app]/default/user/profile\n    http://..../[app]/default/user/retrieve_password\n    http://..../[app]/default/user/change_password\n    use @auth.requires_login()\n        @auth.requires_membership(\'group name\')\n        @auth.requires_permission(\'read\',\'table name\',record_id)\n    to decorate functions that need access control\n    """\n    return dict(form=auth())\n\n\ndef download():\n    """\n    allows downloading of uploaded files\n    http://..../[app]/default/download/[filename]\n    """\n    return response.download(request,db)\n\n\ndef call():\n    """\n    exposes services. for example:\n    http://..../[app]/default/call/jsonrpc\n    decorate with @services.jsonrpc the functions to expose\n    supports xml, json, xmlrpc, jsonrpc, amfrpc, rss, csv\n    """\n    return service()\n\n\n@auth.requires_signature()\ndef data():\n    """\n    http://..../[app]/default/data/tables\n    http://..../[app]/default/data/create/[table]\n    http://..../[app]/default/data/read/[table]/[id]\n    http://..../[app]/default/data/update/[table]/[id]\n    http://..../[app]/default/data/delete/[table]/[id]\n    http://..../[app]/default/data/select/[table]\n    http://..../[app]/default/data/search/[table]\n    but URLs must be signed, i.e. linked with\n      A(\'table\',_href=URL(\'data/tables\',user_signature=True))\n    or with the signed load operator\n      LOAD(\'default\',\'data.load\',args=\'tables\',ajax=True,user_signature=True)\n    """\n    return dict(form=crud())\n\nresponse._vars=response._caller(user)\n'
p7
sS'snapshot'
p8
(dp9
S'exception'
p10
(dp11
S'__hash__'
p12
S"<method-wrapper '__hash__' of exceptions.NameError object>"
p13
sS'__setattr__'
p14
S"<method-wrapper '__setattr__' of exceptions.NameError object>"
p15
sS'__reduce_ex__'
p16
S'<built-in method __reduce_ex__ of exceptions.NameError object>'
p17
sS'__getslice__'
p18
S"<method-wrapper '__getslice__' of exceptions.NameError object>"
p19
sS'__getitem__'
p20
S"<method-wrapper '__getitem__' of exceptions.NameError object>"
p21
sS'__setstate__'
p22
S'<built-in method __setstate__ of exceptions.NameError object>'
p23
sS'__reduce__'
p24
S'<built-in method __reduce__ of exceptions.NameError object>'
p25
sS'__str__'
p26
S"<method-wrapper '__str__' of exceptions.NameError object>"
p27
sS'__format__'
p28
S'<built-in method __format__ of exceptions.NameError object>'
p29
sS'__getattribute__'
p30
S"<method-wrapper '__getattribute__' of exceptions.NameError object>"
p31
sS'__class__'
p32
S"<type 'exceptions.NameError'>"
p33
sS'__unicode__'
p34
S'<built-in method __unicode__ of exceptions.NameError object>'
p35
sS'__delattr__'
p36
S"<method-wrapper '__delattr__' of exceptions.NameError object>"
p37
sS'__subclasshook__'
p38
S'<built-in method __subclasshook__ of type object>'
p39
sS'__repr__'
p40
S"<method-wrapper '__repr__' of exceptions.NameError object>"
p41
sS'args'
p42
S'("global name \'update\' is not defined",)'
p43
sS'__dict__'
p44
S'{}'
p45
sS'__sizeof__'
p46
S'<built-in method __sizeof__ of exceptions.NameError object>'
p47
sS'__doc__'
p48
S"'Name not found globally.'"
p49
sS'__init__'
p50
S"<method-wrapper '__init__' of exceptions.NameError object>"
p51
sS'__new__'
p52
S'<built-in method __new__ of type object>'
p53
ssS'evalue'
p54
S"global name 'update' is not defined"
p55
sS'request'
p56
ccopy_reg
_reconstructor
p57
(cgluon.html
BEAUTIFY
p58
c__builtin__
object
p59
NtRp60
(dp61
S'attributes'
p62
(dp63
sS'components'
p64
(lp65
g57
(cgluon.html
TABLE
p66
g59
NtRp67
(dp68
g62
(dp69
S'level'
p70
I5
ssS'parent'
p71
Nsg64
(lp72
g57
(cgluon.html
TR
p73
g59
NtRp74
(dp75
g62
(dp76
sg71
g67
sg64
(lp77
g57
(cgluon.html
TD
p78
g59
NtRp79
(dp80
g62
(dp81
S'_style'
p82
S'font-weight:bold;vertical-align:top'
p83
ssg71
g74
sg64
(lp84
S'ajax'
p85
asbag57
(g78
g59
NtRp86
(dp87
g62
(dp88
S'_valign'
p89
S'top'
p90
ssg71
g74
sg64
(lp91
S':'
asbag57
(g78
g59
NtRp92
(dp93
g62
(dp94
sg71
g74
sg64
(lp95
g57
(g58
g59
NtRp96
(dp97
g62
(dp98
g70
I5
ssg71
g92
sg64
(lp99
S'False'
p100
asbasbasbag57
(g73
g59
NtRp101
(dp102
g62
(dp103
sg71
g67
sg64
(lp104
g57
(g78
g59
NtRp105
(dp106
g62
(dp107
g82
g83
ssg71
g101
sg64
(lp108
S'application'
p109
asbag57
(g78
g59
NtRp110
(dp111
g62
(dp112
g89
g90
ssg71
g101
sg64
(lp113
S':'
asbag57
(g78
g59
NtRp114
(dp115
g62
(dp116
sg71
g101
sg64
(lp117
g57
(g58
g59
NtRp118
(dp119
g62
(dp120
g70
I5
ssg71
g114
sg64
(lp121
S'telefam'
p122
asbasbasbag57
(g73
g59
NtRp123
(dp124
g62
(dp125
sg71
g67
sg64
(lp126
g57
(g78
g59
NtRp127
(dp128
g62
(dp129
g82
g83
ssg71
g123
sg64
(lp130
g42
asbag57
(g78
g59
NtRp131
(dp132
g62
(dp133
g89
g90
ssg71
g123
sg64
(lp134
S':'
asbag57
(g78
g59
NtRp135
(dp136
g62
(dp137
sg71
g123
sg64
(lp138
g57
(g58
g59
NtRp139
(dp140
g62
(dp141
g70
I5
ssg71
g135
sg64
(lp142
g57
(g66
g59
NtRp143
(dp144
g62
(dp145
g70
I4
ssg71
Nsg64
(lp146
g57
(g73
g59
NtRp147
(dp148
g62
(dp149
sg71
g143
sg64
(lp150
g57
(g78
g59
NtRp151
(dp152
g62
(dp153
sg71
g147
sg64
(lp154
g57
(g58
g59
NtRp155
(dp156
g62
(dp157
g70
I4
ssg71
g151
sg64
(lp158
S'profile'
p159
asbasbasbasbasbasbasbag57
(g73
g59
NtRp160
(dp161
g62
(dp162
sg71
g67
sg64
(lp163
g57
(g78
g59
NtRp164
(dp165
g62
(dp166
g82
g83
ssg71
g160
sg64
(lp167
S'body'
p168
asbag57
(g78
g59
NtRp169
(dp170
g62
(dp171
g89
g90
ssg71
g160
sg64
(lp172
S':'
asbag57
(g78
g59
NtRp173
(dp174
g62
(dp175
sg71
g160
sg64
(lp176
g57
(g58
g59
NtRp177
(dp178
g62
(dp179
g70
I5
ssg71
g173
sg64
(lp180
S"<open file '<fdopen>', mode 'w+b' at 0xa67b808>"
p181
asbasbasbag57
(g73
g59
NtRp182
(dp183
g62
(dp184
sg71
g67
sg64
(lp185
g57
(g78
g59
NtRp186
(dp187
g62
(dp188
g82
g83
ssg71
g182
sg64
(lp189
S'client'
p190
asbag57
(g78
g59
NtRp191
(dp192
g62
(dp193
g89
g90
ssg71
g182
sg64
(lp194
S':'
asbag57
(g78
g59
NtRp195
(dp196
g62
(dp197
sg71
g182
sg64
(lp198
g57
(g58
g59
NtRp199
(dp200
g62
(dp201
g70
I5
ssg71
g195
sg64
(lp202
S'127.0.0.1'
p203
asbasbasbag57
(g73
g59
NtRp204
(dp205
g62
(dp206
sg71
g67
sg64
(lp207
g57
(g78
g59
NtRp208
(dp209
g62
(dp210
g82
g83
ssg71
g204
sg64
(lp211
S'controller'
p212
asbag57
(g78
g59
NtRp213
(dp214
g62
(dp215
g89
g90
ssg71
g204
sg64
(lp216
S':'
asbag57
(g78
g59
NtRp217
(dp218
g62
(dp219
sg71
g204
sg64
(lp220
g57
(g58
g59
NtRp221
(dp222
g62
(dp223
g70
I5
ssg71
g217
sg64
(lp224
S'default'
p225
asbasbasbag57
(g73
g59
NtRp226
(dp227
g62
(dp228
sg71
g67
sg64
(lp229
g57
(g78
g59
NtRp230
(dp231
g62
(dp232
g82
g83
ssg71
g226
sg64
(lp233
S'cookies'
p234
asbag57
(g78
g59
NtRp235
(dp236
g62
(dp237
g89
g90
ssg71
g226
sg64
(lp238
S':'
asbag57
(g78
g59
NtRp239
(dp240
g62
(dp241
sg71
g226
sg64
(lp242
g57
(g58
g59
NtRp243
(dp244
g62
(dp245
g70
I5
ssg71
g239
sg64
(lp246
g57
(g66
g59
NtRp247
(dp248
g62
(dp249
g70
I4
ssg71
Nsg64
(lp250
g57
(g73
g59
NtRp251
(dp252
g62
(dp253
sg71
g247
sg64
(lp254
g57
(g78
g59
NtRp255
(dp256
g62
(dp257
g82
g83
ssg71
g251
sg64
(lp258
S'session_id_admin'
p259
asbag57
(g78
g59
NtRp260
(dp261
g62
(dp262
g89
g90
ssg71
g251
sg64
(lp263
S':'
asbag57
(g78
g59
NtRp264
(dp265
g62
(dp266
sg71
g251
sg64
(lp267
g57
(g58
g59
NtRp268
(dp269
g62
(dp270
g70
I4
ssg71
g264
sg64
(lp271
g57
(g66
g59
NtRp272
(dp273
g62
(dp274
g70
I3
ssg71
Nsg64
(lp275
g57
(g73
g59
NtRp276
(dp277
g62
(dp278
sg71
g272
sg64
(lp279
g57
(g78
g59
NtRp280
(dp281
g62
(dp282
g82
g83
ssg71
g276
sg64
(lp283
S'comment'
p284
asbag57
(g78
g59
NtRp285
(dp286
g62
(dp287
g89
g90
ssg71
g276
sg64
(lp288
S':'
asbag57
(g78
g59
NtRp289
(dp290
g62
(dp291
sg71
g276
sg64
(lp292
g57
(g58
g59
NtRp293
(dp294
g62
(dp295
g70
I3
ssg71
g289
sg64
(lp296
S''
asbasbasbag57
(g73
g59
NtRp297
(dp298
g62
(dp299
sg71
g272
sg64
(lp300
g57
(g78
g59
NtRp301
(dp302
g62
(dp303
g82
g83
ssg71
g297
sg64
(lp304
S'domain'
p305
asbag57
(g78
g59
NtRp306
(dp307
g62
(dp308
g89
g90
ssg71
g297
sg64
(lp309
S':'
asbag57
(g78
g59
NtRp310
(dp311
g62
(dp312
sg71
g297
sg64
(lp313
g57
(g58
g59
NtRp314
(dp315
g62
(dp316
g70
I3
ssg71
g310
sg64
(lp317
S''
asbasbasbag57
(g73
g59
NtRp318
(dp319
g62
(dp320
sg71
g272
sg64
(lp321
g57
(g78
g59
NtRp322
(dp323
g62
(dp324
g82
g83
ssg71
g318
sg64
(lp325
S'expires'
p326
asbag57
(g78
g59
NtRp327
(dp328
g62
(dp329
g89
g90
ssg71
g318
sg64
(lp330
S':'
asbag57
(g78
g59
NtRp331
(dp332
g62
(dp333
sg71
g318
sg64
(lp334
g57
(g58
g59
NtRp335
(dp336
g62
(dp337
g70
I3
ssg71
g331
sg64
(lp338
S''
asbasbasbag57
(g73
g59
NtRp339
(dp340
g62
(dp341
sg71
g272
sg64
(lp342
g57
(g78
g59
NtRp343
(dp344
g62
(dp345
g82
g83
ssg71
g339
sg64
(lp346
S'httponly'
p347
asbag57
(g78
g59
NtRp348
(dp349
g62
(dp350
g89
g90
ssg71
g339
sg64
(lp351
S':'
asbag57
(g78
g59
NtRp352
(dp353
g62
(dp354
sg71
g339
sg64
(lp355
g57
(g58
g59
NtRp356
(dp357
g62
(dp358
g70
I3
ssg71
g352
sg64
(lp359
S''
asbasbasbag57
(g73
g59
NtRp360
(dp361
g62
(dp362
sg71
g272
sg64
(lp363
g57
(g78
g59
NtRp364
(dp365
g62
(dp366
g82
g83
ssg71
g360
sg64
(lp367
S'max-age'
p368
asbag57
(g78
g59
NtRp369
(dp370
g62
(dp371
g89
g90
ssg71
g360
sg64
(lp372
S':'
asbag57
(g78
g59
NtRp373
(dp374
g62
(dp375
sg71
g360
sg64
(lp376
g57
(g58
g59
NtRp377
(dp378
g62
(dp379
g70
I3
ssg71
g373
sg64
(lp380
S''
asbasbasbag57
(g73
g59
NtRp381
(dp382
g62
(dp383
sg71
g272
sg64
(lp384
g57
(g78
g59
NtRp385
(dp386
g62
(dp387
g82
g83
ssg71
g381
sg64
(lp388
S'path'
p389
asbag57
(g78
g59
NtRp390
(dp391
g62
(dp392
g89
g90
ssg71
g381
sg64
(lp393
S':'
asbag57
(g78
g59
NtRp394
(dp395
g62
(dp396
sg71
g381
sg64
(lp397
g57
(g58
g59
NtRp398
(dp399
g62
(dp400
g70
I3
ssg71
g394
sg64
(lp401
S''
asbasbasbag57
(g73
g59
NtRp402
(dp403
g62
(dp404
sg71
g272
sg64
(lp405
g57
(g78
g59
NtRp406
(dp407
g62
(dp408
g82
g83
ssg71
g402
sg64
(lp409
S'secure'
p410
asbag57
(g78
g59
NtRp411
(dp412
g62
(dp413
g89
g90
ssg71
g402
sg64
(lp414
S':'
asbag57
(g78
g59
NtRp415
(dp416
g62
(dp417
sg71
g402
sg64
(lp418
g57
(g58
g59
NtRp419
(dp420
g62
(dp421
g70
I3
ssg71
g415
sg64
(lp422
S''
asbasbasbag57
(g73
g59
NtRp423
(dp424
g62
(dp425
sg71
g272
sg64
(lp426
g57
(g78
g59
NtRp427
(dp428
g62
(dp429
g82
g83
ssg71
g423
sg64
(lp430
S'version'
p431
asbag57
(g78
g59
NtRp432
(dp433
g62
(dp434
g89
g90
ssg71
g423
sg64
(lp435
S':'
asbag57
(g78
g59
NtRp436
(dp437
g62
(dp438
sg71
g423
sg64
(lp439
g57
(g58
g59
NtRp440
(dp441
g62
(dp442
g70
I3
ssg71
g436
sg64
(lp443
S''
asbasbasbasbasbasbasbag57
(g73
g59
NtRp444
(dp445
g62
(dp446
sg71
g247
sg64
(lp447
g57
(g78
g59
NtRp448
(dp449
g62
(dp450
g82
g83
ssg71
g444
sg64
(lp451
S'session_id_telefam'
p452
asbag57
(g78
g59
NtRp453
(dp454
g62
(dp455
g89
g90
ssg71
g444
sg64
(lp456
S':'
asbag57
(g78
g59
NtRp457
(dp458
g62
(dp459
sg71
g444
sg64
(lp460
g57
(g58
g59
NtRp461
(dp462
g62
(dp463
g70
I4
ssg71
g457
sg64
(lp464
g57
(g66
g59
NtRp465
(dp466
g62
(dp467
g70
I3
ssg71
Nsg64
(lp468
g57
(g73
g59
NtRp469
(dp470
g62
(dp471
sg71
g465
sg64
(lp472
g57
(g78
g59
NtRp473
(dp474
g62
(dp475
g82
g83
ssg71
g469
sg64
(lp476
g284
asbag57
(g78
g59
NtRp477
(dp478
g62
(dp479
g89
g90
ssg71
g469
sg64
(lp480
S':'
asbag57
(g78
g59
NtRp481
(dp482
g62
(dp483
sg71
g469
sg64
(lp484
g57
(g58
g59
NtRp485
(dp486
g62
(dp487
g70
I3
ssg71
g481
sg64
(lp488
S''
asbasbasbag57
(g73
g59
NtRp489
(dp490
g62
(dp491
sg71
g465
sg64
(lp492
g57
(g78
g59
NtRp493
(dp494
g62
(dp495
g82
g83
ssg71
g489
sg64
(lp496
g305
asbag57
(g78
g59
NtRp497
(dp498
g62
(dp499
g89
g90
ssg71
g489
sg64
(lp500
S':'
asbag57
(g78
g59
NtRp501
(dp502
g62
(dp503
sg71
g489
sg64
(lp504
g57
(g58
g59
NtRp505
(dp506
g62
(dp507
g70
I3
ssg71
g501
sg64
(lp508
S''
asbasbasbag57
(g73
g59
NtRp509
(dp510
g62
(dp511
sg71
g465
sg64
(lp512
g57
(g78
g59
NtRp513
(dp514
g62
(dp515
g82
g83
ssg71
g509
sg64
(lp516
g326
asbag57
(g78
g59
NtRp517
(dp518
g62
(dp519
g89
g90
ssg71
g509
sg64
(lp520
S':'
asbag57
(g78
g59
NtRp521
(dp522
g62
(dp523
sg71
g509
sg64
(lp524
g57
(g58
g59
NtRp525
(dp526
g62
(dp527
g70
I3
ssg71
g521
sg64
(lp528
S''
asbasbasbag57
(g73
g59
NtRp529
(dp530
g62
(dp531
sg71
g465
sg64
(lp532
g57
(g78
g59
NtRp533
(dp534
g62
(dp535
g82
g83
ssg71
g529
sg64
(lp536
g347
asbag57
(g78
g59
NtRp537
(dp538
g62
(dp539
g89
g90
ssg71
g529
sg64
(lp540
S':'
asbag57
(g78
g59
NtRp541
(dp542
g62
(dp543
sg71
g529
sg64
(lp544
g57
(g58
g59
NtRp545
(dp546
g62
(dp547
g70
I3
ssg71
g541
sg64
(lp548
S''
asbasbasbag57
(g73
g59
NtRp549
(dp550
g62
(dp551
sg71
g465
sg64
(lp552
g57
(g78
g59
NtRp553
(dp554
g62
(dp555
g82
g83
ssg71
g549
sg64
(lp556
g368
asbag57
(g78
g59
NtRp557
(dp558
g62
(dp559
g89
g90
ssg71
g549
sg64
(lp560
S':'
asbag57
(g78
g59
NtRp561
(dp562
g62
(dp563
sg71
g549
sg64
(lp564
g57
(g58
g59
NtRp565
(dp566
g62
(dp567
g70
I3
ssg71
g561
sg64
(lp568
S''
asbasbasbag57
(g73
g59
NtRp569
(dp570
g62
(dp571
sg71
g465
sg64
(lp572
g57
(g78
g59
NtRp573
(dp574
g62
(dp575
g82
g83
ssg71
g569
sg64
(lp576
g389
asbag57
(g78
g59
NtRp577
(dp578
g62
(dp579
g89
g90
ssg71
g569
sg64
(lp580
S':'
asbag57
(g78
g59
NtRp581
(dp582
g62
(dp583
sg71
g569
sg64
(lp584
g57
(g58
g59
NtRp585
(dp586
g62
(dp587
g70
I3
ssg71
g581
sg64
(lp588
S''
asbasbasbag57
(g73
g59
NtRp589
(dp590
g62
(dp591
sg71
g465
sg64
(lp592
g57
(g78
g59
NtRp593
(dp594
g62
(dp595
g82
g83
ssg71
g589
sg64
(lp596
g410
asbag57
(g78
g59
NtRp597
(dp598
g62
(dp599
g89
g90
ssg71
g589
sg64
(lp600
S':'
asbag57
(g78
g59
NtRp601
(dp602
g62
(dp603
sg71
g589
sg64
(lp604
g57
(g58
g59
NtRp605
(dp606
g62
(dp607
g70
I3
ssg71
g601
sg64
(lp608
S''
asbasbasbag57
(g73
g59
NtRp609
(dp610
g62
(dp611
sg71
g465
sg64
(lp612
g57
(g78
g59
NtRp613
(dp614
g62
(dp615
g82
g83
ssg71
g609
sg64
(lp616
g431
asbag57
(g78
g59
NtRp617
(dp618
g62
(dp619
g89
g90
ssg71
g609
sg64
(lp620
S':'
asbag57
(g78
g59
NtRp621
(dp622
g62
(dp623
sg71
g609
sg64
(lp624
g57
(g58
g59
NtRp625
(dp626
g62
(dp627
g70
I3
ssg71
g621
sg64
(lp628
S''
asbasbasbasbasbasbasbasbasbasbasbag57
(g73
g59
NtRp629
(dp630
g62
(dp631
sg71
g67
sg64
(lp632
g57
(g78
g59
NtRp633
(dp634
g62
(dp635
g82
g83
ssg71
g629
sg64
(lp636
S'env'
p637
asbag57
(g78
g59
NtRp638
(dp639
g62
(dp640
g89
g90
ssg71
g629
sg64
(lp641
S':'
asbag57
(g78
g59
NtRp642
(dp643
g62
(dp644
sg71
g629
sg64
(lp645
g57
(g58
g59
NtRp646
(dp647
g62
(dp648
g70
I5
ssg71
g642
sg64
(lp649
g57
(g66
g59
NtRp650
(dp651
g62
(dp652
g70
I4
ssg71
Nsg64
(lp653
g57
(g73
g59
NtRp654
(dp655
g62
(dp656
sg71
g650
sg64
(lp657
g57
(g78
g59
NtRp658
(dp659
g62
(dp660
g82
g83
ssg71
g654
sg64
(lp661
S'app_folders'
p662
asbag57
(g78
g59
NtRp663
(dp664
g62
(dp665
g89
g90
ssg71
g654
sg64
(lp666
S':'
asbag57
(g78
g59
NtRp667
(dp668
g62
(dp669
sg71
g654
sg64
(lp670
g57
(g58
g59
NtRp671
(dp672
g62
(dp673
g70
I4
ssg71
g667
sg64
(lp674
S"set(['/home/alfem/alfem/prog/telefam/server/web2py/applications/admin/', '/home/alfem/alfem/prog/telefam/server/web2py/applications/telefam/'])"
p675
asbasbasbag57
(g73
g59
NtRp676
(dp677
g62
(dp678
sg71
g650
sg64
(lp679
g57
(g78
g59
NtRp680
(dp681
g62
(dp682
g82
g83
ssg71
g676
sg64
(lp683
S'applications_parent'
p684
asbag57
(g78
g59
NtRp685
(dp686
g62
(dp687
g89
g90
ssg71
g676
sg64
(lp688
S':'
asbag57
(g78
g59
NtRp689
(dp690
g62
(dp691
sg71
g676
sg64
(lp692
g57
(g58
g59
NtRp693
(dp694
g62
(dp695
g70
I4
ssg71
g689
sg64
(lp696
S'/home/alfem/alfem/prog/telefam/server/web2py'
p697
asbasbasbag57
(g73
g59
NtRp698
(dp699
g62
(dp700
sg71
g650
sg64
(lp701
g57
(g78
g59
NtRp702
(dp703
g62
(dp704
g82
g83
ssg71
g698
sg64
(lp705
S'cmd_args'
p706
asbag57
(g78
g59
NtRp707
(dp708
g62
(dp709
g89
g90
ssg71
g698
sg64
(lp710
S':'
asbag57
(g78
g59
NtRp711
(dp712
g62
(dp713
sg71
g698
sg64
(lp714
g57
(g58
g59
NtRp715
(dp716
g62
(dp717
g70
I4
ssg71
g711
sg64
(lp718
g57
(g66
g59
NtRp719
(dp720
g62
(dp721
g70
I3
ssg71
Nsg64
(lp722
sbasbasbasbag57
(g73
g59
NtRp723
(dp724
g62
(dp725
sg71
g650
sg64
(lp726
g57
(g78
g59
NtRp727
(dp728
g62
(dp729
g82
g83
ssg71
g723
sg64
(lp730
S'cmd_options'
p731
asbag57
(g78
g59
NtRp732
(dp733
g62
(dp734
g89
g90
ssg71
g723
sg64
(lp735
S':'
asbag57
(g78
g59
NtRp736
(dp737
g62
(dp738
sg71
g723
sg64
(lp739
g57
(g58
g59
NtRp740
(dp741
g62
(dp742
g70
I4
ssg71
g736
sg64
(lp743
S"<Values at 0xa12a20c: {'verbose': False, 'ip': '127.0.0.1', 'shutdown_timeout': 5, 'taskbar': False, 'nocron': False, 'pid_filename': 'httpserver.pid', 'maxthreads': None, 'softcron': False, 'server_name': 'acala', 'bpython': False, 'nogui': False, 'port': 8000, 'extcron': False, 'debuglevel': 30, 'test': None, 'folder': '/home/alfem/alfem/prog/telefam/server/web2py', 'config': '', 'import_models': False, 'winservice': '', 'shell': None, 'run': '', 'log_filename': 'httpserver.log', 'args': [''], 'socket_timeout': 5, 'ssl_ca_certificate': None, 'scheduler': None, 'profiler_filename': None, 'ssl_private_key': '', 'password': '1234', 'request_queue_size': 5, 'ssl_certificate': '', 'cronjob': False, 'numthreads': None, 'quiet': False, 'interfaces': None, 'minthreads': None, 'timeout': 10, 'plain': False, 'nobanner': False}>"
p744
asbasbasbag57
(g73
g59
NtRp745
(dp746
g62
(dp747
sg71
g650
sg64
(lp748
g57
(g78
g59
NtRp749
(dp750
g62
(dp751
g82
g83
ssg71
g745
sg64
(lp752
S'content_length'
p753
asbag57
(g78
g59
NtRp754
(dp755
g62
(dp756
g89
g90
ssg71
g745
sg64
(lp757
S':'
asbag57
(g78
g59
NtRp758
(dp759
g62
(dp760
sg71
g745
sg64
(lp761
g57
(g58
g59
NtRp762
(dp763
g62
(dp764
g70
I4
ssg71
g758
sg64
(lp765
S'1100'
p766
asbasbasbag57
(g73
g59
NtRp767
(dp768
g62
(dp769
sg71
g650
sg64
(lp770
g57
(g78
g59
NtRp771
(dp772
g62
(dp773
g82
g83
ssg71
g767
sg64
(lp774
S'content_type'
p775
asbag57
(g78
g59
NtRp776
(dp777
g62
(dp778
g89
g90
ssg71
g767
sg64
(lp779
S':'
asbag57
(g78
g59
NtRp780
(dp781
g62
(dp782
sg71
g767
sg64
(lp783
g57
(g58
g59
NtRp784
(dp785
g62
(dp786
g70
I4
ssg71
g780
sg64
(lp787
S'multipart/form-data; boundary=---------------------------7965696419537297241358499873'
p788
asbasbasbag57
(g73
g59
NtRp789
(dp790
g62
(dp791
sg71
g650
sg64
(lp792
g57
(g78
g59
NtRp793
(dp794
g62
(dp795
g82
g83
ssg71
g789
sg64
(lp796
S'db_sessions'
p797
asbag57
(g78
g59
NtRp798
(dp799
g62
(dp800
g89
g90
ssg71
g789
sg64
(lp801
S':'
asbag57
(g78
g59
NtRp802
(dp803
g62
(dp804
sg71
g789
sg64
(lp805
g57
(g58
g59
NtRp806
(dp807
g62
(dp808
g70
I4
ssg71
g802
sg64
(lp809
S'set([])'
p810
asbasbasbag57
(g73
g59
NtRp811
(dp812
g62
(dp813
sg71
g650
sg64
(lp814
g57
(g78
g59
NtRp815
(dp816
g62
(dp817
g82
g83
ssg71
g811
sg64
(lp818
S'debugging'
p819
asbag57
(g78
g59
NtRp820
(dp821
g62
(dp822
g89
g90
ssg71
g811
sg64
(lp823
S':'
asbag57
(g78
g59
NtRp824
(dp825
g62
(dp826
sg71
g811
sg64
(lp827
g57
(g58
g59
NtRp828
(dp829
g62
(dp830
g70
I4
ssg71
g824
sg64
(lp831
g100
asbasbasbag57
(g73
g59
NtRp832
(dp833
g62
(dp834
sg71
g650
sg64
(lp835
g57
(g78
g59
NtRp836
(dp837
g62
(dp838
g82
g83
ssg71
g832
sg64
(lp839
S'gluon_parent'
p840
asbag57
(g78
g59
NtRp841
(dp842
g62
(dp843
g89
g90
ssg71
g832
sg64
(lp844
S':'
asbag57
(g78
g59
NtRp845
(dp846
g62
(dp847
sg71
g832
sg64
(lp848
g57
(g58
g59
NtRp849
(dp850
g62
(dp851
g70
I4
ssg71
g845
sg64
(lp852
S'/home/alfem/alfem/prog/telefam/server/web2py'
p853
asbasbasbag57
(g73
g59
NtRp854
(dp855
g62
(dp856
sg71
g650
sg64
(lp857
g57
(g78
g59
NtRp858
(dp859
g62
(dp860
g82
g83
ssg71
g854
sg64
(lp861
S'http_accept'
p862
asbag57
(g78
g59
NtRp863
(dp864
g62
(dp865
g89
g90
ssg71
g854
sg64
(lp866
S':'
asbag57
(g78
g59
NtRp867
(dp868
g62
(dp869
sg71
g854
sg64
(lp870
g57
(g58
g59
NtRp871
(dp872
g62
(dp873
g70
I4
ssg71
g867
sg64
(lp874
S'text/html,application/xhtml+xml,application/xml;q=0.9,*/*;q=0.8'
p875
asbasbasbag57
(g73
g59
NtRp876
(dp877
g62
(dp878
sg71
g650
sg64
(lp879
g57
(g78
g59
NtRp880
(dp881
g62
(dp882
g82
g83
ssg71
g876
sg64
(lp883
S'http_accept_charset'
p884
asbag57
(g78
g59
NtRp885
(dp886
g62
(dp887
g89
g90
ssg71
g876
sg64
(lp888
S':'
asbag57
(g78
g59
NtRp889
(dp890
g62
(dp891
sg71
g876
sg64
(lp892
g57
(g58
g59
NtRp893
(dp894
g62
(dp895
g70
I4
ssg71
g889
sg64
(lp896
S'ISO-8859-1,utf-8;q=0.7,*;q=0.7'
p897
asbasbasbag57
(g73
g59
NtRp898
(dp899
g62
(dp900
sg71
g650
sg64
(lp901
g57
(g78
g59
NtRp902
(dp903
g62
(dp904
g82
g83
ssg71
g898
sg64
(lp905
S'http_accept_encoding'
p906
asbag57
(g78
g59
NtRp907
(dp908
g62
(dp909
g89
g90
ssg71
g898
sg64
(lp910
S':'
asbag57
(g78
g59
NtRp911
(dp912
g62
(dp913
sg71
g898
sg64
(lp914
g57
(g58
g59
NtRp915
(dp916
g62
(dp917
g70
I4
ssg71
g911
sg64
(lp918
S'gzip, deflate'
p919
asbasbasbag57
(g73
g59
NtRp920
(dp921
g62
(dp922
sg71
g650
sg64
(lp923
g57
(g78
g59
NtRp924
(dp925
g62
(dp926
g82
g83
ssg71
g920
sg64
(lp927
S'http_accept_language'
p928
asbag57
(g78
g59
NtRp929
(dp930
g62
(dp931
g89
g90
ssg71
g920
sg64
(lp932
S':'
asbag57
(g78
g59
NtRp933
(dp934
g62
(dp935
sg71
g920
sg64
(lp936
g57
(g58
g59
NtRp937
(dp938
g62
(dp939
g70
I4
ssg71
g933
sg64
(lp940
S'es-es,es;q=0.8,en-us;q=0.5,en;q=0.3'
p941
asbasbasbag57
(g73
g59
NtRp942
(dp943
g62
(dp944
sg71
g650
sg64
(lp945
g57
(g78
g59
NtRp946
(dp947
g62
(dp948
g82
g83
ssg71
g942
sg64
(lp949
S'http_connection'
p950
asbag57
(g78
g59
NtRp951
(dp952
g62
(dp953
g89
g90
ssg71
g942
sg64
(lp954
S':'
asbag57
(g78
g59
NtRp955
(dp956
g62
(dp957
sg71
g942
sg64
(lp958
g57
(g58
g59
NtRp959
(dp960
g62
(dp961
g70
I4
ssg71
g955
sg64
(lp962
S'keep-alive'
p963
asbasbasbag57
(g73
g59
NtRp964
(dp965
g62
(dp966
sg71
g650
sg64
(lp967
g57
(g78
g59
NtRp968
(dp969
g62
(dp970
g82
g83
ssg71
g964
sg64
(lp971
S'http_content_length'
p972
asbag57
(g78
g59
NtRp973
(dp974
g62
(dp975
g89
g90
ssg71
g964
sg64
(lp976
S':'
asbag57
(g78
g59
NtRp977
(dp978
g62
(dp979
sg71
g964
sg64
(lp980
g57
(g58
g59
NtRp981
(dp982
g62
(dp983
g70
I4
ssg71
g977
sg64
(lp984
g766
asbasbasbag57
(g73
g59
NtRp985
(dp986
g62
(dp987
sg71
g650
sg64
(lp988
g57
(g78
g59
NtRp989
(dp990
g62
(dp991
g82
g83
ssg71
g985
sg64
(lp992
S'http_content_type'
p993
asbag57
(g78
g59
NtRp994
(dp995
g62
(dp996
g89
g90
ssg71
g985
sg64
(lp997
S':'
asbag57
(g78
g59
NtRp998
(dp999
g62
(dp1000
sg71
g985
sg64
(lp1001
g57
(g58
g59
NtRp1002
(dp1003
g62
(dp1004
g70
I4
ssg71
g998
sg64
(lp1005
g788
asbasbasbag57
(g73
g59
NtRp1006
(dp1007
g62
(dp1008
sg71
g650
sg64
(lp1009
g57
(g78
g59
NtRp1010
(dp1011
g62
(dp1012
g82
g83
ssg71
g1006
sg64
(lp1013
S'http_cookie'
p1014
asbag57
(g78
g59
NtRp1015
(dp1016
g62
(dp1017
g89
g90
ssg71
g1006
sg64
(lp1018
S':'
asbag57
(g78
g59
NtRp1019
(dp1020
g62
(dp1021
sg71
g1006
sg64
(lp1022
g57
(g58
g59
NtRp1023
(dp1024
g62
(dp1025
g70
I4
ssg71
g1019
sg64
(lp1026
S'session_id_telefam=127.0.0.1-f7f620a6-fd63-4f72-b11a-b8325669ccbf; session_id_admin=127.0.0.1-eece3669-f609-4c4d-b7c8-7f75ae979e67'
p1027
asbasbasbag57
(g73
g59
NtRp1028
(dp1029
g62
(dp1030
sg71
g650
sg64
(lp1031
g57
(g78
g59
NtRp1032
(dp1033
g62
(dp1034
g82
g83
ssg71
g1028
sg64
(lp1035
S'http_host'
p1036
asbag57
(g78
g59
NtRp1037
(dp1038
g62
(dp1039
g89
g90
ssg71
g1028
sg64
(lp1040
S':'
asbag57
(g78
g59
NtRp1041
(dp1042
g62
(dp1043
sg71
g1028
sg64
(lp1044
g57
(g58
g59
NtRp1045
(dp1046
g62
(dp1047
g70
I4
ssg71
g1041
sg64
(lp1048
S'127.0.0.1:8000'
p1049
asbasbasbag57
(g73
g59
NtRp1050
(dp1051
g62
(dp1052
sg71
g650
sg64
(lp1053
g57
(g78
g59
NtRp1054
(dp1055
g62
(dp1056
g82
g83
ssg71
g1050
sg64
(lp1057
S'http_referer'
p1058
asbag57
(g78
g59
NtRp1059
(dp1060
g62
(dp1061
g89
g90
ssg71
g1050
sg64
(lp1062
S':'
asbag57
(g78
g59
NtRp1063
(dp1064
g62
(dp1065
sg71
g1050
sg64
(lp1066
g57
(g58
g59
NtRp1067
(dp1068
g62
(dp1069
g70
I4
ssg71
g1063
sg64
(lp1070
S'http://127.0.0.1:8000/telefam/default/user/profile?_next=/telefam/default/index'
p1071
asbasbasbag57
(g73
g59
NtRp1072
(dp1073
g62
(dp1074
sg71
g650
sg64
(lp1075
g57
(g78
g59
NtRp1076
(dp1077
g62
(dp1078
g82
g83
ssg71
g1072
sg64
(lp1079
S'http_user_agent'
p1080
asbag57
(g78
g59
NtRp1081
(dp1082
g62
(dp1083
g89
g90
ssg71
g1072
sg64
(lp1084
S':'
asbag57
(g78
g59
NtRp1085
(dp1086
g62
(dp1087
sg71
g1072
sg64
(lp1088
g57
(g58
g59
NtRp1089
(dp1090
g62
(dp1091
g70
I4
ssg71
g1085
sg64
(lp1092
S'Mozilla/5.0 (Ubuntu; X11; Linux i686; rv:8.0) Gecko/20100101 Firefox/8.0'
p1093
asbasbasbag57
(g73
g59
NtRp1094
(dp1095
g62
(dp1096
sg71
g650
sg64
(lp1097
g57
(g78
g59
NtRp1098
(dp1099
g62
(dp1100
g82
g83
ssg71
g1094
sg64
(lp1101
S'is_jython'
p1102
asbag57
(g78
g59
NtRp1103
(dp1104
g62
(dp1105
g89
g90
ssg71
g1094
sg64
(lp1106
S':'
asbag57
(g78
g59
NtRp1107
(dp1108
g62
(dp1109
sg71
g1094
sg64
(lp1110
g57
(g58
g59
NtRp1111
(dp1112
g62
(dp1113
g70
I4
ssg71
g1107
sg64
(lp1114
g100
asbasbasbag57
(g73
g59
NtRp1115
(dp1116
g62
(dp1117
sg71
g650
sg64
(lp1118
g57
(g78
g59
NtRp1119
(dp1120
g62
(dp1121
g82
g83
ssg71
g1115
sg64
(lp1122
S'is_pypy'
p1123
asbag57
(g78
g59
NtRp1124
(dp1125
g62
(dp1126
g89
g90
ssg71
g1115
sg64
(lp1127
S':'
asbag57
(g78
g59
NtRp1128
(dp1129
g62
(dp1130
sg71
g1115
sg64
(lp1131
g57
(g58
g59
NtRp1132
(dp1133
g62
(dp1134
g70
I4
ssg71
g1128
sg64
(lp1135
g100
asbasbasbag57
(g73
g59
NtRp1136
(dp1137
g62
(dp1138
sg71
g650
sg64
(lp1139
g57
(g78
g59
NtRp1140
(dp1141
g62
(dp1142
g82
g83
ssg71
g1136
sg64
(lp1143
S'path_info'
p1144
asbag57
(g78
g59
NtRp1145
(dp1146
g62
(dp1147
g89
g90
ssg71
g1136
sg64
(lp1148
S':'
asbag57
(g78
g59
NtRp1149
(dp1150
g62
(dp1151
sg71
g1136
sg64
(lp1152
g57
(g58
g59
NtRp1153
(dp1154
g62
(dp1155
g70
I4
ssg71
g1149
sg64
(lp1156
S'/telefam/default/user/profile'
p1157
asbasbasbag57
(g73
g59
NtRp1158
(dp1159
g62
(dp1160
sg71
g650
sg64
(lp1161
g57
(g78
g59
NtRp1162
(dp1163
g62
(dp1164
g82
g83
ssg71
g1158
sg64
(lp1165
S'query_string'
p1166
asbag57
(g78
g59
NtRp1167
(dp1168
g62
(dp1169
g89
g90
ssg71
g1158
sg64
(lp1170
S':'
asbag57
(g78
g59
NtRp1171
(dp1172
g62
(dp1173
sg71
g1158
sg64
(lp1174
g57
(g58
g59
NtRp1175
(dp1176
g62
(dp1177
g70
I4
ssg71
g1171
sg64
(lp1178
S'_next=/telefam/default/index'
p1179
asbasbasbag57
(g73
g59
NtRp1180
(dp1181
g62
(dp1182
sg71
g650
sg64
(lp1183
g57
(g78
g59
NtRp1184
(dp1185
g62
(dp1186
g82
g83
ssg71
g1180
sg64
(lp1187
S'remote_addr'
p1188
asbag57
(g78
g59
NtRp1189
(dp1190
g62
(dp1191
g89
g90
ssg71
g1180
sg64
(lp1192
S':'
asbag57
(g78
g59
NtRp1193
(dp1194
g62
(dp1195
sg71
g1180
sg64
(lp1196
g57
(g58
g59
NtRp1197
(dp1198
g62
(dp1199
g70
I4
ssg71
g1193
sg64
(lp1200
g203
asbasbasbag57
(g73
g59
NtRp1201
(dp1202
g62
(dp1203
sg71
g650
sg64
(lp1204
g57
(g78
g59
NtRp1205
(dp1206
g62
(dp1207
g82
g83
ssg71
g1201
sg64
(lp1208
S'remote_port'
p1209
asbag57
(g78
g59
NtRp1210
(dp1211
g62
(dp1212
g89
g90
ssg71
g1201
sg64
(lp1213
S':'
asbag57
(g78
g59
NtRp1214
(dp1215
g62
(dp1216
sg71
g1201
sg64
(lp1217
g57
(g58
g59
NtRp1218
(dp1219
g62
(dp1220
g70
I4
ssg71
g1214
sg64
(lp1221
S'59519'
p1222
asbasbasbag57
(g73
g59
NtRp1223
(dp1224
g62
(dp1225
sg71
g650
sg64
(lp1226
g57
(g78
g59
NtRp1227
(dp1228
g62
(dp1229
g82
g83
ssg71
g1223
sg64
(lp1230
S'request_method'
p1231
asbag57
(g78
g59
NtRp1232
(dp1233
g62
(dp1234
g89
g90
ssg71
g1223
sg64
(lp1235
S':'
asbag57
(g78
g59
NtRp1236
(dp1237
g62
(dp1238
sg71
g1223
sg64
(lp1239
g57
(g58
g59
NtRp1240
(dp1241
g62
(dp1242
g70
I4
ssg71
g1236
sg64
(lp1243
S'POST'
p1244
asbasbasbag57
(g73
g59
NtRp1245
(dp1246
g62
(dp1247
sg71
g650
sg64
(lp1248
g57
(g78
g59
NtRp1249
(dp1250
g62
(dp1251
g82
g83
ssg71
g1245
sg64
(lp1252
S'script_name'
p1253
asbag57
(g78
g59
NtRp1254
(dp1255
g62
(dp1256
g89
g90
ssg71
g1245
sg64
(lp1257
S':'
asbag57
(g78
g59
NtRp1258
(dp1259
g62
(dp1260
sg71
g1245
sg64
(lp1261
g57
(g58
g59
NtRp1262
(dp1263
g62
(dp1264
g70
I4
ssg71
g1258
sg64
(lp1265
S''
asbasbasbag57
(g73
g59
NtRp1266
(dp1267
g62
(dp1268
sg71
g650
sg64
(lp1269
g57
(g78
g59
NtRp1270
(dp1271
g62
(dp1272
g82
g83
ssg71
g1266
sg64
(lp1273
S'server_name'
p1274
asbag57
(g78
g59
NtRp1275
(dp1276
g62
(dp1277
g89
g90
ssg71
g1266
sg64
(lp1278
S':'
asbag57
(g78
g59
NtRp1279
(dp1280
g62
(dp1281
sg71
g1266
sg64
(lp1282
g57
(g58
g59
NtRp1283
(dp1284
g62
(dp1285
g70
I4
ssg71
g1279
sg64
(lp1286
S'acala'
p1287
asbasbasbag57
(g73
g59
NtRp1288
(dp1289
g62
(dp1290
sg71
g650
sg64
(lp1291
g57
(g78
g59
NtRp1292
(dp1293
g62
(dp1294
g82
g83
ssg71
g1288
sg64
(lp1295
S'server_port'
p1296
asbag57
(g78
g59
NtRp1297
(dp1298
g62
(dp1299
g89
g90
ssg71
g1288
sg64
(lp1300
S':'
asbag57
(g78
g59
NtRp1301
(dp1302
g62
(dp1303
sg71
g1288
sg64
(lp1304
g57
(g58
g59
NtRp1305
(dp1306
g62
(dp1307
g70
I4
ssg71
g1301
sg64
(lp1308
S'8000'
p1309
asbasbasbag57
(g73
g59
NtRp1310
(dp1311
g62
(dp1312
sg71
g650
sg64
(lp1313
g57
(g78
g59
NtRp1314
(dp1315
g62
(dp1316
g82
g83
ssg71
g1310
sg64
(lp1317
S'server_protocol'
p1318
asbag57
(g78
g59
NtRp1319
(dp1320
g62
(dp1321
g89
g90
ssg71
g1310
sg64
(lp1322
S':'
asbag57
(g78
g59
NtRp1323
(dp1324
g62
(dp1325
sg71
g1310
sg64
(lp1326
g57
(g58
g59
NtRp1327
(dp1328
g62
(dp1329
g70
I4
ssg71
g1323
sg64
(lp1330
S'HTTP/1.1'
p1331
asbasbasbag57
(g73
g59
NtRp1332
(dp1333
g62
(dp1334
sg71
g650
sg64
(lp1335
g57
(g78
g59
NtRp1336
(dp1337
g62
(dp1338
g82
g83
ssg71
g1332
sg64
(lp1339
S'server_software'
p1340
asbag57
(g78
g59
NtRp1341
(dp1342
g62
(dp1343
g89
g90
ssg71
g1332
sg64
(lp1344
S':'
asbag57
(g78
g59
NtRp1345
(dp1346
g62
(dp1347
sg71
g1332
sg64
(lp1348
g57
(g58
g59
NtRp1349
(dp1350
g62
(dp1351
g70
I4
ssg71
g1345
sg64
(lp1352
S'Rocket 1.2.4'
p1353
asbasbasbag57
(g73
g59
NtRp1354
(dp1355
g62
(dp1356
sg71
g650
sg64
(lp1357
g57
(g78
g59
NtRp1358
(dp1359
g62
(dp1360
g82
g83
ssg71
g1354
sg64
(lp1361
S'web2py_crontype'
p1362
asbag57
(g78
g59
NtRp1363
(dp1364
g62
(dp1365
g89
g90
ssg71
g1354
sg64
(lp1366
S':'
asbag57
(g78
g59
NtRp1367
(dp1368
g62
(dp1369
sg71
g1354
sg64
(lp1370
g57
(g58
g59
NtRp1371
(dp1372
g62
(dp1373
g70
I4
ssg71
g1367
sg64
(lp1374
S'hard'
p1375
asbasbasbag57
(g73
g59
NtRp1376
(dp1377
g62
(dp1378
sg71
g650
sg64
(lp1379
g57
(g78
g59
NtRp1380
(dp1381
g62
(dp1382
g82
g83
ssg71
g1376
sg64
(lp1383
S'web2py_path'
p1384
asbag57
(g78
g59
NtRp1385
(dp1386
g62
(dp1387
g89
g90
ssg71
g1376
sg64
(lp1388
S':'
asbag57
(g78
g59
NtRp1389
(dp1390
g62
(dp1391
sg71
g1376
sg64
(lp1392
g57
(g58
g59
NtRp1393
(dp1394
g62
(dp1395
g70
I4
ssg71
g1389
sg64
(lp1396
g697
asbasbasbag57
(g73
g59
NtRp1397
(dp1398
g62
(dp1399
sg71
g650
sg64
(lp1400
g57
(g78
g59
NtRp1401
(dp1402
g62
(dp1403
g82
g83
ssg71
g1397
sg64
(lp1404
S'web2py_version'
p1405
asbag57
(g78
g59
NtRp1406
(dp1407
g62
(dp1408
g89
g90
ssg71
g1397
sg64
(lp1409
S':'
asbag57
(g78
g59
NtRp1410
(dp1411
g62
(dp1412
sg71
g1397
sg64
(lp1413
g57
(g58
g59
NtRp1414
(dp1415
g62
(dp1416
g70
I4
ssg71
g1410
sg64
(lp1417
g57
(g66
g59
NtRp1418
(dp1419
g62
(dp1420
g70
I3
ssg71
Nsg64
(lp1421
g57
(g73
g59
NtRp1422
(dp1423
g62
(dp1424
sg71
g1418
sg64
(lp1425
g57
(g78
g59
NtRp1426
(dp1427
g62
(dp1428
sg71
g1422
sg64
(lp1429
g57
(g58
g59
NtRp1430
(dp1431
g62
(dp1432
g70
I3
ssg71
g1426
sg64
(lp1433
S'1'
asbasbasbag57
(g73
g59
NtRp1434
(dp1435
g62
(dp1436
sg71
g1418
sg64
(lp1437
g57
(g78
g59
NtRp1438
(dp1439
g62
(dp1440
sg71
g1434
sg64
(lp1441
g57
(g58
g59
NtRp1442
(dp1443
g62
(dp1444
g70
I3
ssg71
g1438
sg64
(lp1445
S'99'
p1446
asbasbasbag57
(g73
g59
NtRp1447
(dp1448
g62
(dp1449
sg71
g1418
sg64
(lp1450
g57
(g78
g59
NtRp1451
(dp1452
g62
(dp1453
sg71
g1447
sg64
(lp1454
g57
(g58
g59
NtRp1455
(dp1456
g62
(dp1457
g70
I3
ssg71
g1451
sg64
(lp1458
S'7'
asbasbasbag57
(g73
g59
NtRp1459
(dp1460
g62
(dp1461
sg71
g1418
sg64
(lp1462
g57
(g78
g59
NtRp1463
(dp1464
g62
(dp1465
sg71
g1459
sg64
(lp1466
g57
(g58
g59
NtRp1467
(dp1468
g62
(dp1469
g70
I3
ssg71
g1463
sg64
(lp1470
S'datetime.datetime(2012, 3, 4, 22, 12, 8)'
p1471
asbasbasbag57
(g73
g59
NtRp1472
(dp1473
g62
(dp1474
sg71
g1418
sg64
(lp1475
g57
(g78
g59
NtRp1476
(dp1477
g62
(dp1478
sg71
g1472
sg64
(lp1479
g57
(g58
g59
NtRp1480
(dp1481
g62
(dp1482
g70
I3
ssg71
g1476
sg64
(lp1483
S'stable'
p1484
asbasbasbasbasbasbasbag57
(g73
g59
NtRp1485
(dp1486
g62
(dp1487
sg71
g650
sg64
(lp1488
g57
(g78
g59
NtRp1489
(dp1490
g62
(dp1491
g82
g83
ssg71
g1485
sg64
(lp1492
S'wsgi_errors'
p1493
asbag57
(g78
g59
NtRp1494
(dp1495
g62
(dp1496
g89
g90
ssg71
g1485
sg64
(lp1497
S':'
asbag57
(g78
g59
NtRp1498
(dp1499
g62
(dp1500
sg71
g1485
sg64
(lp1501
g57
(g58
g59
NtRp1502
(dp1503
g62
(dp1504
g70
I4
ssg71
g1498
sg64
(lp1505
S"<open file '<stderr>', mode 'w' at 0xb77800d0>"
p1506
asbasbasbag57
(g73
g59
NtRp1507
(dp1508
g62
(dp1509
sg71
g650
sg64
(lp1510
g57
(g78
g59
NtRp1511
(dp1512
g62
(dp1513
g82
g83
ssg71
g1507
sg64
(lp1514
S'wsgi_file_wrapper'
p1515
asbag57
(g78
g59
NtRp1516
(dp1517
g62
(dp1518
g89
g90
ssg71
g1507
sg64
(lp1519
S':'
asbag57
(g78
g59
NtRp1520
(dp1521
g62
(dp1522
sg71
g1507
sg64
(lp1523
g57
(g58
g59
NtRp1524
(dp1525
g62
(dp1526
g70
I4
ssg71
g1520
sg64
(lp1527
S'<class wsgiref.util.FileWrapper at 0xa0f9e6c>'
p1528
asbasbasbag57
(g73
g59
NtRp1529
(dp1530
g62
(dp1531
sg71
g650
sg64
(lp1532
g57
(g78
g59
NtRp1533
(dp1534
g62
(dp1535
g82
g83
ssg71
g1529
sg64
(lp1536
S'wsgi_input'
p1537
asbag57
(g78
g59
NtRp1538
(dp1539
g62
(dp1540
g89
g90
ssg71
g1529
sg64
(lp1541
S':'
asbag57
(g78
g59
NtRp1542
(dp1543
g62
(dp1544
sg71
g1529
sg64
(lp1545
g57
(g58
g59
NtRp1546
(dp1547
g62
(dp1548
g70
I4
ssg71
g1542
sg64
(lp1549
S'<socket._fileobject object at 0xa678e6c>'
p1550
asbasbasbag57
(g73
g59
NtRp1551
(dp1552
g62
(dp1553
sg71
g650
sg64
(lp1554
g57
(g78
g59
NtRp1555
(dp1556
g62
(dp1557
g82
g83
ssg71
g1551
sg64
(lp1558
S'wsgi_multiprocess'
p1559
asbag57
(g78
g59
NtRp1560
(dp1561
g62
(dp1562
g89
g90
ssg71
g1551
sg64
(lp1563
S':'
asbag57
(g78
g59
NtRp1564
(dp1565
g62
(dp1566
sg71
g1551
sg64
(lp1567
g57
(g58
g59
NtRp1568
(dp1569
g62
(dp1570
g70
I4
ssg71
g1564
sg64
(lp1571
g100
asbasbasbag57
(g73
g59
NtRp1572
(dp1573
g62
(dp1574
sg71
g650
sg64
(lp1575
g57
(g78
g59
NtRp1576
(dp1577
g62
(dp1578
g82
g83
ssg71
g1572
sg64
(lp1579
S'wsgi_multithread'
p1580
asbag57
(g78
g59
NtRp1581
(dp1582
g62
(dp1583
g89
g90
ssg71
g1572
sg64
(lp1584
S':'
asbag57
(g78
g59
NtRp1585
(dp1586
g62
(dp1587
sg71
g1572
sg64
(lp1588
g57
(g58
g59
NtRp1589
(dp1590
g62
(dp1591
g70
I4
ssg71
g1585
sg64
(lp1592
S'True'
p1593
asbasbasbag57
(g73
g59
NtRp1594
(dp1595
g62
(dp1596
sg71
g650
sg64
(lp1597
g57
(g78
g59
NtRp1598
(dp1599
g62
(dp1600
g82
g83
ssg71
g1594
sg64
(lp1601
S'wsgi_run_once'
p1602
asbag57
(g78
g59
NtRp1603
(dp1604
g62
(dp1605
g89
g90
ssg71
g1594
sg64
(lp1606
S':'
asbag57
(g78
g59
NtRp1607
(dp1608
g62
(dp1609
sg71
g1594
sg64
(lp1610
g57
(g58
g59
NtRp1611
(dp1612
g62
(dp1613
g70
I4
ssg71
g1607
sg64
(lp1614
g100
asbasbasbag57
(g73
g59
NtRp1615
(dp1616
g62
(dp1617
sg71
g650
sg64
(lp1618
g57
(g78
g59
NtRp1619
(dp1620
g62
(dp1621
g82
g83
ssg71
g1615
sg64
(lp1622
S'wsgi_url_scheme'
p1623
asbag57
(g78
g59
NtRp1624
(dp1625
g62
(dp1626
g89
g90
ssg71
g1615
sg64
(lp1627
S':'
asbag57
(g78
g59
NtRp1628
(dp1629
g62
(dp1630
sg71
g1615
sg64
(lp1631
g57
(g58
g59
NtRp1632
(dp1633
g62
(dp1634
g70
I4
ssg71
g1628
sg64
(lp1635
S'http'
p1636
asbasbasbag57
(g73
g59
NtRp1637
(dp1638
g62
(dp1639
sg71
g650
sg64
(lp1640
g57
(g78
g59
NtRp1641
(dp1642
g62
(dp1643
g82
g83
ssg71
g1637
sg64
(lp1644
S'wsgi_version'
p1645
asbag57
(g78
g59
NtRp1646
(dp1647
g62
(dp1648
g89
g90
ssg71
g1637
sg64
(lp1649
S':'
asbag57
(g78
g59
NtRp1650
(dp1651
g62
(dp1652
sg71
g1637
sg64
(lp1653
g57
(g58
g59
NtRp1654
(dp1655
g62
(dp1656
g70
I4
ssg71
g1650
sg64
(lp1657
g57
(g66
g59
NtRp1658
(dp1659
g62
(dp1660
g70
I3
ssg71
Nsg64
(lp1661
g57
(g73
g59
NtRp1662
(dp1663
g62
(dp1664
sg71
g1658
sg64
(lp1665
g57
(g78
g59
NtRp1666
(dp1667
g62
(dp1668
sg71
g1662
sg64
(lp1669
g57
(g58
g59
NtRp1670
(dp1671
g62
(dp1672
g70
I3
ssg71
g1666
sg64
(lp1673
S'1'
asbasbasbag57
(g73
g59
NtRp1674
(dp1675
g62
(dp1676
sg71
g1658
sg64
(lp1677
g57
(g78
g59
NtRp1678
(dp1679
g62
(dp1680
sg71
g1674
sg64
(lp1681
g57
(g58
g59
NtRp1682
(dp1683
g62
(dp1684
g70
I3
ssg71
g1678
sg64
(lp1685
S'0'
asbasbasbasbasbasbasbasbasbasbasbag57
(g73
g59
NtRp1686
(dp1687
g62
(dp1688
sg71
g67
sg64
(lp1689
g57
(g78
g59
NtRp1690
(dp1691
g62
(dp1692
g82
g83
ssg71
g1686
sg64
(lp1693
S'extension'
p1694
asbag57
(g78
g59
NtRp1695
(dp1696
g62
(dp1697
g89
g90
ssg71
g1686
sg64
(lp1698
S':'
asbag57
(g78
g59
NtRp1699
(dp1700
g62
(dp1701
sg71
g1686
sg64
(lp1702
g57
(g58
g59
NtRp1703
(dp1704
g62
(dp1705
g70
I5
ssg71
g1699
sg64
(lp1706
S'html'
p1707
asbasbasbag57
(g73
g59
NtRp1708
(dp1709
g62
(dp1710
sg71
g67
sg64
(lp1711
g57
(g78
g59
NtRp1712
(dp1713
g62
(dp1714
g82
g83
ssg71
g1708
sg64
(lp1715
S'folder'
p1716
asbag57
(g78
g59
NtRp1717
(dp1718
g62
(dp1719
g89
g90
ssg71
g1708
sg64
(lp1720
S':'
asbag57
(g78
g59
NtRp1721
(dp1722
g62
(dp1723
sg71
g1708
sg64
(lp1724
g57
(g58
g59
NtRp1725
(dp1726
g62
(dp1727
g70
I5
ssg71
g1721
sg64
(lp1728
S'/home/alfem/alfem/prog/telefam/server/web2py/applications/telefam/'
p1729
asbasbasbag57
(g73
g59
NtRp1730
(dp1731
g62
(dp1732
sg71
g67
sg64
(lp1733
g57
(g78
g59
NtRp1734
(dp1735
g62
(dp1736
g82
g83
ssg71
g1730
sg64
(lp1737
S'function'
p1738
asbag57
(g78
g59
NtRp1739
(dp1740
g62
(dp1741
g89
g90
ssg71
g1730
sg64
(lp1742
S':'
asbag57
(g78
g59
NtRp1743
(dp1744
g62
(dp1745
sg71
g1730
sg64
(lp1746
g57
(g58
g59
NtRp1747
(dp1748
g62
(dp1749
g70
I5
ssg71
g1743
sg64
(lp1750
S'user'
p1751
asbasbasbag57
(g73
g59
NtRp1752
(dp1753
g62
(dp1754
sg71
g67
sg64
(lp1755
g57
(g78
g59
NtRp1756
(dp1757
g62
(dp1758
g82
g83
ssg71
g1752
sg64
(lp1759
S'get_vars'
p1760
asbag57
(g78
g59
NtRp1761
(dp1762
g62
(dp1763
g89
g90
ssg71
g1752
sg64
(lp1764
S':'
asbag57
(g78
g59
NtRp1765
(dp1766
g62
(dp1767
sg71
g1752
sg64
(lp1768
g57
(g58
g59
NtRp1769
(dp1770
g62
(dp1771
g70
I5
ssg71
g1765
sg64
(lp1772
g57
(g66
g59
NtRp1773
(dp1774
g62
(dp1775
g70
I4
ssg71
Nsg64
(lp1776
sbasbasbasbag57
(g73
g59
NtRp1777
(dp1778
g62
(dp1779
sg71
g67
sg64
(lp1780
g57
(g78
g59
NtRp1781
(dp1782
g62
(dp1783
g82
g83
ssg71
g1777
sg64
(lp1784
S'global_settings'
p1785
asbag57
(g78
g59
NtRp1786
(dp1787
g62
(dp1788
g89
g90
ssg71
g1777
sg64
(lp1789
S':'
asbag57
(g78
g59
NtRp1790
(dp1791
g62
(dp1792
sg71
g1777
sg64
(lp1793
g57
(g58
g59
NtRp1794
(dp1795
g62
(dp1796
g70
I5
ssg71
g1790
sg64
(lp1797
g57
(g66
g59
NtRp1798
(dp1799
g62
(dp1800
g70
I4
ssg71
Nsg64
(lp1801
g57
(g73
g59
NtRp1802
(dp1803
g62
(dp1804
sg71
g1798
sg64
(lp1805
g57
(g78
g59
NtRp1806
(dp1807
g62
(dp1808
g82
g83
ssg71
g1802
sg64
(lp1809
g662
asbag57
(g78
g59
NtRp1810
(dp1811
g62
(dp1812
g89
g90
ssg71
g1802
sg64
(lp1813
S':'
asbag57
(g78
g59
NtRp1814
(dp1815
g62
(dp1816
sg71
g1802
sg64
(lp1817
g57
(g58
g59
NtRp1818
(dp1819
g62
(dp1820
g70
I4
ssg71
g1814
sg64
(lp1821
S"set(['/home/alfem/alfem/prog/telefam/server/web2py/applications/admin/', '/home/alfem/alfem/prog/telefam/server/web2py/applications/telefam/'])"
p1822
asbasbasbag57
(g73
g59
NtRp1823
(dp1824
g62
(dp1825
sg71
g1798
sg64
(lp1826
g57
(g78
g59
NtRp1827
(dp1828
g62
(dp1829
g82
g83
ssg71
g1823
sg64
(lp1830
g684
asbag57
(g78
g59
NtRp1831
(dp1832
g62
(dp1833
g89
g90
ssg71
g1823
sg64
(lp1834
S':'
asbag57
(g78
g59
NtRp1835
(dp1836
g62
(dp1837
sg71
g1823
sg64
(lp1838
g57
(g58
g59
NtRp1839
(dp1840
g62
(dp1841
g70
I4
ssg71
g1835
sg64
(lp1842
g697
asbasbasbag57
(g73
g59
NtRp1843
(dp1844
g62
(dp1845
sg71
g1798
sg64
(lp1846
g57
(g78
g59
NtRp1847
(dp1848
g62
(dp1849
g82
g83
ssg71
g1843
sg64
(lp1850
g706
asbag57
(g78
g59
NtRp1851
(dp1852
g62
(dp1853
g89
g90
ssg71
g1843
sg64
(lp1854
S':'
asbag57
(g78
g59
NtRp1855
(dp1856
g62
(dp1857
sg71
g1843
sg64
(lp1858
g57
(g58
g59
NtRp1859
(dp1860
g62
(dp1861
g70
I4
ssg71
g1855
sg64
(lp1862
g57
(g66
g59
NtRp1863
(dp1864
g62
(dp1865
g70
I3
ssg71
Nsg64
(lp1866
sbasbasbasbag57
(g73
g59
NtRp1867
(dp1868
g62
(dp1869
sg71
g1798
sg64
(lp1870
g57
(g78
g59
NtRp1871
(dp1872
g62
(dp1873
g82
g83
ssg71
g1867
sg64
(lp1874
g731
asbag57
(g78
g59
NtRp1875
(dp1876
g62
(dp1877
g89
g90
ssg71
g1867
sg64
(lp1878
S':'
asbag57
(g78
g59
NtRp1879
(dp1880
g62
(dp1881
sg71
g1867
sg64
(lp1882
g57
(g58
g59
NtRp1883
(dp1884
g62
(dp1885
g70
I4
ssg71
g1879
sg64
(lp1886
S"<Values at 0xa12a20c: {'verbose': False, 'ip': '127.0.0.1', 'shutdown_timeout': 5, 'taskbar': False, 'nocron': False, 'pid_filename': 'httpserver.pid', 'maxthreads': None, 'softcron': False, 'server_name': 'acala', 'bpython': False, 'nogui': False, 'port': 8000, 'extcron': False, 'debuglevel': 30, 'test': None, 'folder': '/home/alfem/alfem/prog/telefam/server/web2py', 'config': '', 'import_models': False, 'winservice': '', 'shell': None, 'run': '', 'log_filename': 'httpserver.log', 'args': [''], 'socket_timeout': 5, 'ssl_ca_certificate': None, 'scheduler': None, 'profiler_filename': None, 'ssl_private_key': '', 'password': '1234', 'request_queue_size': 5, 'ssl_certificate': '', 'cronjob': False, 'numthreads': None, 'quiet': False, 'interfaces': None, 'minthreads': None, 'timeout': 10, 'plain': False, 'nobanner': False}>"
p1887
asbasbasbag57
(g73
g59
NtRp1888
(dp1889
g62
(dp1890
sg71
g1798
sg64
(lp1891
g57
(g78
g59
NtRp1892
(dp1893
g62
(dp1894
g82
g83
ssg71
g1888
sg64
(lp1895
g797
asbag57
(g78
g59
NtRp1896
(dp1897
g62
(dp1898
g89
g90
ssg71
g1888
sg64
(lp1899
S':'
asbag57
(g78
g59
NtRp1900
(dp1901
g62
(dp1902
sg71
g1888
sg64
(lp1903
g57
(g58
g59
NtRp1904
(dp1905
g62
(dp1906
g70
I4
ssg71
g1900
sg64
(lp1907
S'set([])'
p1908
asbasbasbag57
(g73
g59
NtRp1909
(dp1910
g62
(dp1911
sg71
g1798
sg64
(lp1912
g57
(g78
g59
NtRp1913
(dp1914
g62
(dp1915
g82
g83
ssg71
g1909
sg64
(lp1916
g819
asbag57
(g78
g59
NtRp1917
(dp1918
g62
(dp1919
g89
g90
ssg71
g1909
sg64
(lp1920
S':'
asbag57
(g78
g59
NtRp1921
(dp1922
g62
(dp1923
sg71
g1909
sg64
(lp1924
g57
(g58
g59
NtRp1925
(dp1926
g62
(dp1927
g70
I4
ssg71
g1921
sg64
(lp1928
g100
asbasbasbag57
(g73
g59
NtRp1929
(dp1930
g62
(dp1931
sg71
g1798
sg64
(lp1932
g57
(g78
g59
NtRp1933
(dp1934
g62
(dp1935
g82
g83
ssg71
g1929
sg64
(lp1936
g840
asbag57
(g78
g59
NtRp1937
(dp1938
g62
(dp1939
g89
g90
ssg71
g1929
sg64
(lp1940
S':'
asbag57
(g78
g59
NtRp1941
(dp1942
g62
(dp1943
sg71
g1929
sg64
(lp1944
g57
(g58
g59
NtRp1945
(dp1946
g62
(dp1947
g70
I4
ssg71
g1941
sg64
(lp1948
g853
asbasbasbag57
(g73
g59
NtRp1949
(dp1950
g62
(dp1951
sg71
g1798
sg64
(lp1952
g57
(g78
g59
NtRp1953
(dp1954
g62
(dp1955
g82
g83
ssg71
g1949
sg64
(lp1956
g1102
asbag57
(g78
g59
NtRp1957
(dp1958
g62
(dp1959
g89
g90
ssg71
g1949
sg64
(lp1960
S':'
asbag57
(g78
g59
NtRp1961
(dp1962
g62
(dp1963
sg71
g1949
sg64
(lp1964
g57
(g58
g59
NtRp1965
(dp1966
g62
(dp1967
g70
I4
ssg71
g1961
sg64
(lp1968
g100
asbasbasbag57
(g73
g59
NtRp1969
(dp1970
g62
(dp1971
sg71
g1798
sg64
(lp1972
g57
(g78
g59
NtRp1973
(dp1974
g62
(dp1975
g82
g83
ssg71
g1969
sg64
(lp1976
g1123
asbag57
(g78
g59
NtRp1977
(dp1978
g62
(dp1979
g89
g90
ssg71
g1969
sg64
(lp1980
S':'
asbag57
(g78
g59
NtRp1981
(dp1982
g62
(dp1983
sg71
g1969
sg64
(lp1984
g57
(g58
g59
NtRp1985
(dp1986
g62
(dp1987
g70
I4
ssg71
g1981
sg64
(lp1988
g100
asbasbasbag57
(g73
g59
NtRp1989
(dp1990
g62
(dp1991
sg71
g1798
sg64
(lp1992
g57
(g78
g59
NtRp1993
(dp1994
g62
(dp1995
g82
g83
ssg71
g1989
sg64
(lp1996
g1362
asbag57
(g78
g59
NtRp1997
(dp1998
g62
(dp1999
g89
g90
ssg71
g1989
sg64
(lp2000
S':'
asbag57
(g78
g59
NtRp2001
(dp2002
g62
(dp2003
sg71
g1989
sg64
(lp2004
g57
(g58
g59
NtRp2005
(dp2006
g62
(dp2007
g70
I4
ssg71
g2001
sg64
(lp2008
g1375
asbasbasbag57
(g73
g59
NtRp2009
(dp2010
g62
(dp2011
sg71
g1798
sg64
(lp2012
g57
(g78
g59
NtRp2013
(dp2014
g62
(dp2015
g82
g83
ssg71
g2009
sg64
(lp2016
g1405
asbag57
(g78
g59
NtRp2017
(dp2018
g62
(dp2019
g89
g90
ssg71
g2009
sg64
(lp2020
S':'
asbag57
(g78
g59
NtRp2021
(dp2022
g62
(dp2023
sg71
g2009
sg64
(lp2024
g57
(g58
g59
NtRp2025
(dp2026
g62
(dp2027
g70
I4
ssg71
g2021
sg64
(lp2028
g57
(g66
g59
NtRp2029
(dp2030
g62
(dp2031
g70
I3
ssg71
Nsg64
(lp2032
g57
(g73
g59
NtRp2033
(dp2034
g62
(dp2035
sg71
g2029
sg64
(lp2036
g57
(g78
g59
NtRp2037
(dp2038
g62
(dp2039
sg71
g2033
sg64
(lp2040
g57
(g58
g59
NtRp2041
(dp2042
g62
(dp2043
g70
I3
ssg71
g2037
sg64
(lp2044
S'1'
asbasbasbag57
(g73
g59
NtRp2045
(dp2046
g62
(dp2047
sg71
g2029
sg64
(lp2048
g57
(g78
g59
NtRp2049
(dp2050
g62
(dp2051
sg71
g2045
sg64
(lp2052
g57
(g58
g59
NtRp2053
(dp2054
g62
(dp2055
g70
I3
ssg71
g2049
sg64
(lp2056
S'99'
p2057
asbasbasbag57
(g73
g59
NtRp2058
(dp2059
g62
(dp2060
sg71
g2029
sg64
(lp2061
g57
(g78
g59
NtRp2062
(dp2063
g62
(dp2064
sg71
g2058
sg64
(lp2065
g57
(g58
g59
NtRp2066
(dp2067
g62
(dp2068
g70
I3
ssg71
g2062
sg64
(lp2069
S'7'
asbasbasbag57
(g73
g59
NtRp2070
(dp2071
g62
(dp2072
sg71
g2029
sg64
(lp2073
g57
(g78
g59
NtRp2074
(dp2075
g62
(dp2076
sg71
g2070
sg64
(lp2077
g57
(g58
g59
NtRp2078
(dp2079
g62
(dp2080
g70
I3
ssg71
g2074
sg64
(lp2081
S'datetime.datetime(2012, 3, 4, 22, 12, 8)'
p2082
asbasbasbag57
(g73
g59
NtRp2083
(dp2084
g62
(dp2085
sg71
g2029
sg64
(lp2086
g57
(g78
g59
NtRp2087
(dp2088
g62
(dp2089
sg71
g2083
sg64
(lp2090
g57
(g58
g59
NtRp2091
(dp2092
g62
(dp2093
g70
I3
ssg71
g2087
sg64
(lp2094
g1484
asbasbasbasbasbasbasbasbasbasbasbag57
(g73
g59
NtRp2095
(dp2096
g62
(dp2097
sg71
g67
sg64
(lp2098
g57
(g78
g59
NtRp2099
(dp2100
g62
(dp2101
g82
g83
ssg71
g2095
sg64
(lp2102
S'is_https'
p2103
asbag57
(g78
g59
NtRp2104
(dp2105
g62
(dp2106
g89
g90
ssg71
g2095
sg64
(lp2107
S':'
asbag57
(g78
g59
NtRp2108
(dp2109
g62
(dp2110
sg71
g2095
sg64
(lp2111
g57
(g58
g59
NtRp2112
(dp2113
g62
(dp2114
g70
I5
ssg71
g2108
sg64
(lp2115
g100
asbasbasbag57
(g73
g59
NtRp2116
(dp2117
g62
(dp2118
sg71
g67
sg64
(lp2119
g57
(g78
g59
NtRp2120
(dp2121
g62
(dp2122
g82
g83
ssg71
g2116
sg64
(lp2123
S'is_local'
p2124
asbag57
(g78
g59
NtRp2125
(dp2126
g62
(dp2127
g89
g90
ssg71
g2116
sg64
(lp2128
S':'
asbag57
(g78
g59
NtRp2129
(dp2130
g62
(dp2131
sg71
g2116
sg64
(lp2132
g57
(g58
g59
NtRp2133
(dp2134
g62
(dp2135
g70
I5
ssg71
g2129
sg64
(lp2136
g1593
asbasbasbag57
(g73
g59
NtRp2137
(dp2138
g62
(dp2139
sg71
g67
sg64
(lp2140
g57
(g78
g59
NtRp2141
(dp2142
g62
(dp2143
g82
g83
ssg71
g2137
sg64
(lp2144
S'is_restful'
p2145
asbag57
(g78
g59
NtRp2146
(dp2147
g62
(dp2148
g89
g90
ssg71
g2137
sg64
(lp2149
S':'
asbag57
(g78
g59
NtRp2150
(dp2151
g62
(dp2152
sg71
g2137
sg64
(lp2153
g57
(g58
g59
NtRp2154
(dp2155
g62
(dp2156
g70
I5
ssg71
g2150
sg64
(lp2157
g100
asbasbasbag57
(g73
g59
NtRp2158
(dp2159
g62
(dp2160
sg71
g67
sg64
(lp2161
g57
(g78
g59
NtRp2162
(dp2163
g62
(dp2164
g82
g83
ssg71
g2158
sg64
(lp2165
S'now'
p2166
asbag57
(g78
g59
NtRp2167
(dp2168
g62
(dp2169
g89
g90
ssg71
g2158
sg64
(lp2170
S':'
asbag57
(g78
g59
NtRp2171
(dp2172
g62
(dp2173
sg71
g2158
sg64
(lp2174
g57
(g58
g59
NtRp2175
(dp2176
g62
(dp2177
g70
I5
ssg71
g2171
sg64
(lp2178
S'datetime.datetime(2012, 8, 30, 14, 22, 34, 548260)'
p2179
asbasbasbag57
(g73
g59
NtRp2180
(dp2181
g62
(dp2182
sg71
g67
sg64
(lp2183
g57
(g78
g59
NtRp2184
(dp2185
g62
(dp2186
g82
g83
ssg71
g2180
sg64
(lp2187
S'post_vars'
p2188
asbag57
(g78
g59
NtRp2189
(dp2190
g62
(dp2191
g89
g90
ssg71
g2180
sg64
(lp2192
S':'
asbag57
(g78
g59
NtRp2193
(dp2194
g62
(dp2195
sg71
g2180
sg64
(lp2196
g57
(g58
g59
NtRp2197
(dp2198
g62
(dp2199
g70
I5
ssg71
g2193
sg64
(lp2200
g57
(g66
g59
NtRp2201
(dp2202
g62
(dp2203
g70
I4
ssg71
Nsg64
(lp2204
g57
(g73
g59
NtRp2205
(dp2206
g62
(dp2207
sg71
g2201
sg64
(lp2208
g57
(g78
g59
NtRp2209
(dp2210
g62
(dp2211
g82
g83
ssg71
g2205
sg64
(lp2212
S'email'
p2213
asbag57
(g78
g59
NtRp2214
(dp2215
g62
(dp2216
g89
g90
ssg71
g2205
sg64
(lp2217
S':'
asbag57
(g78
g59
NtRp2218
(dp2219
g62
(dp2220
sg71
g2205
sg64
(lp2221
g57
(g58
g59
NtRp2222
(dp2223
g62
(dp2224
g70
I4
ssg71
g2218
sg64
(lp2225
S'alfonso@el-magnifico.org'
p2226
asbasbasbag57
(g73
g59
NtRp2227
(dp2228
g62
(dp2229
sg71
g2201
sg64
(lp2230
g57
(g78
g59
NtRp2231
(dp2232
g62
(dp2233
g82
g83
ssg71
g2227
sg64
(lp2234
S'first_name'
p2235
asbag57
(g78
g59
NtRp2236
(dp2237
g62
(dp2238
g89
g90
ssg71
g2227
sg64
(lp2239
S':'
asbag57
(g78
g59
NtRp2240
(dp2241
g62
(dp2242
sg71
g2227
sg64
(lp2243
g57
(g58
g59
NtRp2244
(dp2245
g62
(dp2246
g70
I4
ssg71
g2240
sg64
(lp2247
S'Alfonso'
p2248
asbasbasbag57
(g73
g59
NtRp2249
(dp2250
g62
(dp2251
sg71
g2201
sg64
(lp2252
g57
(g78
g59
NtRp2253
(dp2254
g62
(dp2255
g82
g83
ssg71
g2249
sg64
(lp2256
S'id'
p2257
asbag57
(g78
g59
NtRp2258
(dp2259
g62
(dp2260
g89
g90
ssg71
g2249
sg64
(lp2261
S':'
asbag57
(g78
g59
NtRp2262
(dp2263
g62
(dp2264
sg71
g2249
sg64
(lp2265
g57
(g58
g59
NtRp2266
(dp2267
g62
(dp2268
g70
I4
ssg71
g2262
sg64
(lp2269
S'1'
asbasbasbag57
(g73
g59
NtRp2270
(dp2271
g62
(dp2272
sg71
g2201
sg64
(lp2273
g57
(g78
g59
NtRp2274
(dp2275
g62
(dp2276
g82
g83
ssg71
g2270
sg64
(lp2277
S'last_name'
p2278
asbag57
(g78
g59
NtRp2279
(dp2280
g62
(dp2281
g89
g90
ssg71
g2270
sg64
(lp2282
S':'
asbag57
(g78
g59
NtRp2283
(dp2284
g62
(dp2285
sg71
g2270
sg64
(lp2286
g57
(g58
g59
NtRp2287
(dp2288
g62
(dp2289
g70
I4
ssg71
g2283
sg64
(lp2290
S'ando'
p2291
asbasbasbag57
(g73
g59
NtRp2292
(dp2293
g62
(dp2294
sg71
g2201
sg64
(lp2295
g57
(g78
g59
NtRp2296
(dp2297
g62
(dp2298
g82
g83
ssg71
g2292
sg64
(lp2299
S'photo'
p2300
asbag57
(g78
g59
NtRp2301
(dp2302
g62
(dp2303
g89
g90
ssg71
g2292
sg64
(lp2304
S':'
asbag57
(g78
g59
NtRp2305
(dp2306
g62
(dp2307
sg71
g2292
sg64
(lp2308
g57
(g58
g59
NtRp2309
(dp2310
g62
(dp2311
g70
I4
ssg71
g2305
sg64
(lp2312
S''
asbasbasbasbasbasbasbag57
(g73
g59
NtRp2313
(dp2314
g62
(dp2315
sg71
g67
sg64
(lp2316
g57
(g78
g59
NtRp2317
(dp2318
g62
(dp2319
g82
g83
ssg71
g2313
sg64
(lp2320
S'raw_args'
p2321
asbag57
(g78
g59
NtRp2322
(dp2323
g62
(dp2324
g89
g90
ssg71
g2313
sg64
(lp2325
S':'
asbag57
(g78
g59
NtRp2326
(dp2327
g62
(dp2328
sg71
g2313
sg64
(lp2329
g57
(g58
g59
NtRp2330
(dp2331
g62
(dp2332
g70
I5
ssg71
g2326
sg64
(lp2333
g159
asbasbasbag57
(g73
g59
NtRp2334
(dp2335
g62
(dp2336
sg71
g67
sg64
(lp2337
g57
(g78
g59
NtRp2338
(dp2339
g62
(dp2340
g82
g83
ssg71
g2334
sg64
(lp2341
S'url'
p2342
asbag57
(g78
g59
NtRp2343
(dp2344
g62
(dp2345
g89
g90
ssg71
g2334
sg64
(lp2346
S':'
asbag57
(g78
g59
NtRp2347
(dp2348
g62
(dp2349
sg71
g2334
sg64
(lp2350
g57
(g58
g59
NtRp2351
(dp2352
g62
(dp2353
g70
I5
ssg71
g2347
sg64
(lp2354
S'/telefam/default/user/profile'
p2355
asbasbasbag57
(g73
g59
NtRp2356
(dp2357
g62
(dp2358
sg71
g67
sg64
(lp2359
g57
(g78
g59
NtRp2360
(dp2361
g62
(dp2362
g82
g83
ssg71
g2356
sg64
(lp2363
S'utcnow'
p2364
asbag57
(g78
g59
NtRp2365
(dp2366
g62
(dp2367
g89
g90
ssg71
g2356
sg64
(lp2368
S':'
asbag57
(g78
g59
NtRp2369
(dp2370
g62
(dp2371
sg71
g2356
sg64
(lp2372
g57
(g58
g59
NtRp2373
(dp2374
g62
(dp2375
g70
I5
ssg71
g2369
sg64
(lp2376
S'datetime.datetime(2012, 8, 30, 12, 22, 34, 548277)'
p2377
asbasbasbag57
(g73
g59
NtRp2378
(dp2379
g62
(dp2380
sg71
g67
sg64
(lp2381
g57
(g78
g59
NtRp2382
(dp2383
g62
(dp2384
g82
g83
ssg71
g2378
sg64
(lp2385
S'uuid'
p2386
asbag57
(g78
g59
NtRp2387
(dp2388
g62
(dp2389
g89
g90
ssg71
g2378
sg64
(lp2390
S':'
asbag57
(g78
g59
NtRp2391
(dp2392
g62
(dp2393
sg71
g2378
sg64
(lp2394
g57
(g58
g59
NtRp2395
(dp2396
g62
(dp2397
g70
I5
ssg71
g2391
sg64
(lp2398
S'telefam/127.0.0.1.2012-08-30.14-22-34.76f79f5a-6a3a-4f15-b27a-2183298c2789'
p2399
asbasbasbag57
(g73
g59
NtRp2400
(dp2401
g62
(dp2402
sg71
g67
sg64
(lp2403
g57
(g78
g59
NtRp2404
(dp2405
g62
(dp2406
g82
g83
ssg71
g2400
sg64
(lp2407
S'vars'
p2408
asbag57
(g78
g59
NtRp2409
(dp2410
g62
(dp2411
g89
g90
ssg71
g2400
sg64
(lp2412
S':'
asbag57
(g78
g59
NtRp2413
(dp2414
g62
(dp2415
sg71
g2400
sg64
(lp2416
g57
(g58
g59
NtRp2417
(dp2418
g62
(dp2419
g70
I5
ssg71
g2413
sg64
(lp2420
g57
(g66
g59
NtRp2421
(dp2422
g62
(dp2423
g70
I4
ssg71
Nsg64
(lp2424
g57
(g73
g59
NtRp2425
(dp2426
g62
(dp2427
sg71
g2421
sg64
(lp2428
g57
(g78
g59
NtRp2429
(dp2430
g62
(dp2431
g82
g83
ssg71
g2425
sg64
(lp2432
g2213
asbag57
(g78
g59
NtRp2433
(dp2434
g62
(dp2435
g89
g90
ssg71
g2425
sg64
(lp2436
S':'
asbag57
(g78
g59
NtRp2437
(dp2438
g62
(dp2439
sg71
g2425
sg64
(lp2440
g57
(g58
g59
NtRp2441
(dp2442
g62
(dp2443
g70
I4
ssg71
g2437
sg64
(lp2444
g2226
asbasbasbag57
(g73
g59
NtRp2445
(dp2446
g62
(dp2447
sg71
g2421
sg64
(lp2448
g57
(g78
g59
NtRp2449
(dp2450
g62
(dp2451
g82
g83
ssg71
g2445
sg64
(lp2452
g2235
asbag57
(g78
g59
NtRp2453
(dp2454
g62
(dp2455
g89
g90
ssg71
g2445
sg64
(lp2456
S':'
asbag57
(g78
g59
NtRp2457
(dp2458
g62
(dp2459
sg71
g2445
sg64
(lp2460
g57
(g58
g59
NtRp2461
(dp2462
g62
(dp2463
g70
I4
ssg71
g2457
sg64
(lp2464
g2248
asbasbasbag57
(g73
g59
NtRp2465
(dp2466
g62
(dp2467
sg71
g2421
sg64
(lp2468
g57
(g78
g59
NtRp2469
(dp2470
g62
(dp2471
g82
g83
ssg71
g2465
sg64
(lp2472
g2257
asbag57
(g78
g59
NtRp2473
(dp2474
g62
(dp2475
g89
g90
ssg71
g2465
sg64
(lp2476
S':'
asbag57
(g78
g59
NtRp2477
(dp2478
g62
(dp2479
sg71
g2465
sg64
(lp2480
g57
(g58
g59
NtRp2481
(dp2482
g62
(dp2483
g70
I4
ssg71
g2477
sg64
(lp2484
S'1'
asbasbasbag57
(g73
g59
NtRp2485
(dp2486
g62
(dp2487
sg71
g2421
sg64
(lp2488
g57
(g78
g59
NtRp2489
(dp2490
g62
(dp2491
g82
g83
ssg71
g2485
sg64
(lp2492
g2278
asbag57
(g78
g59
NtRp2493
(dp2494
g62
(dp2495
g89
g90
ssg71
g2485
sg64
(lp2496
S':'
asbag57
(g78
g59
NtRp2497
(dp2498
g62
(dp2499
sg71
g2485
sg64
(lp2500
g57
(g58
g59
NtRp2501
(dp2502
g62
(dp2503
g70
I4
ssg71
g2497
sg64
(lp2504
g2291
asbasbasbag57
(g73
g59
NtRp2505
(dp2506
g62
(dp2507
sg71
g2421
sg64
(lp2508
g57
(g78
g59
NtRp2509
(dp2510
g62
(dp2511
g82
g83
ssg71
g2505
sg64
(lp2512
g2300
asbag57
(g78
g59
NtRp2513
(dp2514
g62
(dp2515
g89
g90
ssg71
g2505
sg64
(lp2516
S':'
asbag57
(g78
g59
NtRp2517
(dp2518
g62
(dp2519
sg71
g2505
sg64
(lp2520
g57
(g58
g59
NtRp2521
(dp2522
g62
(dp2523
g70
I4
ssg71
g2517
sg64
(lp2524
S''
asbasbasbasbasbasbasbag57
(g73
g59
NtRp2525
(dp2526
g62
(dp2527
sg71
g67
sg64
(lp2528
g57
(g78
g59
NtRp2529
(dp2530
g62
(dp2531
g82
g83
ssg71
g2525
sg64
(lp2532
S'wsgi'
p2533
asbag57
(g78
g59
NtRp2534
(dp2535
g62
(dp2536
g89
g90
ssg71
g2525
sg64
(lp2537
S':'
asbag57
(g78
g59
NtRp2538
(dp2539
g62
(dp2540
sg71
g2525
sg64
(lp2541
g57
(g58
g59
NtRp2542
(dp2543
g62
(dp2544
g70
I5
ssg71
g2538
sg64
(lp2545
g57
(g66
g59
NtRp2546
(dp2547
g62
(dp2548
g70
I4
ssg71
Nsg64
(lp2549
g57
(g73
g59
NtRp2550
(dp2551
g62
(dp2552
sg71
g2546
sg64
(lp2553
g57
(g78
g59
NtRp2554
(dp2555
g62
(dp2556
g82
g83
ssg71
g2550
sg64
(lp2557
S'environ'
p2558
asbag57
(g78
g59
NtRp2559
(dp2560
g62
(dp2561
g89
g90
ssg71
g2550
sg64
(lp2562
S':'
asbag57
(g78
g59
NtRp2563
(dp2564
g62
(dp2565
sg71
g2550
sg64
(lp2566
g57
(g58
g59
NtRp2567
(dp2568
g62
(dp2569
g70
I4
ssg71
g2563
sg64
(lp2570
g57
(g66
g59
NtRp2571
(dp2572
g62
(dp2573
g70
I3
ssg71
Nsg64
(lp2574
g57
(g73
g59
NtRp2575
(dp2576
g62
(dp2577
sg71
g2571
sg64
(lp2578
g57
(g78
g59
NtRp2579
(dp2580
g62
(dp2581
g82
g83
ssg71
g2575
sg64
(lp2582
S'CONTENT_LENGTH'
p2583
asbag57
(g78
g59
NtRp2584
(dp2585
g62
(dp2586
g89
g90
ssg71
g2575
sg64
(lp2587
S':'
asbag57
(g78
g59
NtRp2588
(dp2589
g62
(dp2590
sg71
g2575
sg64
(lp2591
g57
(g58
g59
NtRp2592
(dp2593
g62
(dp2594
g70
I3
ssg71
g2588
sg64
(lp2595
g766
asbasbasbag57
(g73
g59
NtRp2596
(dp2597
g62
(dp2598
sg71
g2571
sg64
(lp2599
g57
(g78
g59
NtRp2600
(dp2601
g62
(dp2602
g82
g83
ssg71
g2596
sg64
(lp2603
S'CONTENT_TYPE'
p2604
asbag57
(g78
g59
NtRp2605
(dp2606
g62
(dp2607
g89
g90
ssg71
g2596
sg64
(lp2608
S':'
asbag57
(g78
g59
NtRp2609
(dp2610
g62
(dp2611
sg71
g2596
sg64
(lp2612
g57
(g58
g59
NtRp2613
(dp2614
g62
(dp2615
g70
I3
ssg71
g2609
sg64
(lp2616
g788
asbasbasbag57
(g73
g59
NtRp2617
(dp2618
g62
(dp2619
sg71
g2571
sg64
(lp2620
g57
(g78
g59
NtRp2621
(dp2622
g62
(dp2623
g82
g83
ssg71
g2617
sg64
(lp2624
S'HTTP_ACCEPT'
p2625
asbag57
(g78
g59
NtRp2626
(dp2627
g62
(dp2628
g89
g90
ssg71
g2617
sg64
(lp2629
S':'
asbag57
(g78
g59
NtRp2630
(dp2631
g62
(dp2632
sg71
g2617
sg64
(lp2633
g57
(g58
g59
NtRp2634
(dp2635
g62
(dp2636
g70
I3
ssg71
g2630
sg64
(lp2637
g875
asbasbasbag57
(g73
g59
NtRp2638
(dp2639
g62
(dp2640
sg71
g2571
sg64
(lp2641
g57
(g78
g59
NtRp2642
(dp2643
g62
(dp2644
g82
g83
ssg71
g2638
sg64
(lp2645
S'HTTP_ACCEPT_CHARSET'
p2646
asbag57
(g78
g59
NtRp2647
(dp2648
g62
(dp2649
g89
g90
ssg71
g2638
sg64
(lp2650
S':'
asbag57
(g78
g59
NtRp2651
(dp2652
g62
(dp2653
sg71
g2638
sg64
(lp2654
g57
(g58
g59
NtRp2655
(dp2656
g62
(dp2657
g70
I3
ssg71
g2651
sg64
(lp2658
g897
asbasbasbag57
(g73
g59
NtRp2659
(dp2660
g62
(dp2661
sg71
g2571
sg64
(lp2662
g57
(g78
g59
NtRp2663
(dp2664
g62
(dp2665
g82
g83
ssg71
g2659
sg64
(lp2666
S'HTTP_ACCEPT_ENCODING'
p2667
asbag57
(g78
g59
NtRp2668
(dp2669
g62
(dp2670
g89
g90
ssg71
g2659
sg64
(lp2671
S':'
asbag57
(g78
g59
NtRp2672
(dp2673
g62
(dp2674
sg71
g2659
sg64
(lp2675
g57
(g58
g59
NtRp2676
(dp2677
g62
(dp2678
g70
I3
ssg71
g2672
sg64
(lp2679
g919
asbasbasbag57
(g73
g59
NtRp2680
(dp2681
g62
(dp2682
sg71
g2571
sg64
(lp2683
g57
(g78
g59
NtRp2684
(dp2685
g62
(dp2686
g82
g83
ssg71
g2680
sg64
(lp2687
S'HTTP_ACCEPT_LANGUAGE'
p2688
asbag57
(g78
g59
NtRp2689
(dp2690
g62
(dp2691
g89
g90
ssg71
g2680
sg64
(lp2692
S':'
asbag57
(g78
g59
NtRp2693
(dp2694
g62
(dp2695
sg71
g2680
sg64
(lp2696
g57
(g58
g59
NtRp2697
(dp2698
g62
(dp2699
g70
I3
ssg71
g2693
sg64
(lp2700
g941
asbasbasbag57
(g73
g59
NtRp2701
(dp2702
g62
(dp2703
sg71
g2571
sg64
(lp2704
g57
(g78
g59
NtRp2705
(dp2706
g62
(dp2707
g82
g83
ssg71
g2701
sg64
(lp2708
S'HTTP_CONNECTION'
p2709
asbag57
(g78
g59
NtRp2710
(dp2711
g62
(dp2712
g89
g90
ssg71
g2701
sg64
(lp2713
S':'
asbag57
(g78
g59
NtRp2714
(dp2715
g62
(dp2716
sg71
g2701
sg64
(lp2717
g57
(g58
g59
NtRp2718
(dp2719
g62
(dp2720
g70
I3
ssg71
g2714
sg64
(lp2721
g963
asbasbasbag57
(g73
g59
NtRp2722
(dp2723
g62
(dp2724
sg71
g2571
sg64
(lp2725
g57
(g78
g59
NtRp2726
(dp2727
g62
(dp2728
g82
g83
ssg71
g2722
sg64
(lp2729
S'HTTP_CONTENT_LENGTH'
p2730
asbag57
(g78
g59
NtRp2731
(dp2732
g62
(dp2733
g89
g90
ssg71
g2722
sg64
(lp2734
S':'
asbag57
(g78
g59
NtRp2735
(dp2736
g62
(dp2737
sg71
g2722
sg64
(lp2738
g57
(g58
g59
NtRp2739
(dp2740
g62
(dp2741
g70
I3
ssg71
g2735
sg64
(lp2742
g766
asbasbasbag57
(g73
g59
NtRp2743
(dp2744
g62
(dp2745
sg71
g2571
sg64
(lp2746
g57
(g78
g59
NtRp2747
(dp2748
g62
(dp2749
g82
g83
ssg71
g2743
sg64
(lp2750
S'HTTP_CONTENT_TYPE'
p2751
asbag57
(g78
g59
NtRp2752
(dp2753
g62
(dp2754
g89
g90
ssg71
g2743
sg64
(lp2755
S':'
asbag57
(g78
g59
NtRp2756
(dp2757
g62
(dp2758
sg71
g2743
sg64
(lp2759
g57
(g58
g59
NtRp2760
(dp2761
g62
(dp2762
g70
I3
ssg71
g2756
sg64
(lp2763
g788
asbasbasbag57
(g73
g59
NtRp2764
(dp2765
g62
(dp2766
sg71
g2571
sg64
(lp2767
g57
(g78
g59
NtRp2768
(dp2769
g62
(dp2770
g82
g83
ssg71
g2764
sg64
(lp2771
S'HTTP_COOKIE'
p2772
asbag57
(g78
g59
NtRp2773
(dp2774
g62
(dp2775
g89
g90
ssg71
g2764
sg64
(lp2776
S':'
asbag57
(g78
g59
NtRp2777
(dp2778
g62
(dp2779
sg71
g2764
sg64
(lp2780
g57
(g58
g59
NtRp2781
(dp2782
g62
(dp2783
g70
I3
ssg71
g2777
sg64
(lp2784
g1027
asbasbasbag57
(g73
g59
NtRp2785
(dp2786
g62
(dp2787
sg71
g2571
sg64
(lp2788
g57
(g78
g59
NtRp2789
(dp2790
g62
(dp2791
g82
g83
ssg71
g2785
sg64
(lp2792
S'HTTP_HOST'
p2793
asbag57
(g78
g59
NtRp2794
(dp2795
g62
(dp2796
g89
g90
ssg71
g2785
sg64
(lp2797
S':'
asbag57
(g78
g59
NtRp2798
(dp2799
g62
(dp2800
sg71
g2785
sg64
(lp2801
g57
(g58
g59
NtRp2802
(dp2803
g62
(dp2804
g70
I3
ssg71
g2798
sg64
(lp2805
g1049
asbasbasbag57
(g73
g59
NtRp2806
(dp2807
g62
(dp2808
sg71
g2571
sg64
(lp2809
g57
(g78
g59
NtRp2810
(dp2811
g62
(dp2812
g82
g83
ssg71
g2806
sg64
(lp2813
S'HTTP_REFERER'
p2814
asbag57
(g78
g59
NtRp2815
(dp2816
g62
(dp2817
g89
g90
ssg71
g2806
sg64
(lp2818
S':'
asbag57
(g78
g59
NtRp2819
(dp2820
g62
(dp2821
sg71
g2806
sg64
(lp2822
g57
(g58
g59
NtRp2823
(dp2824
g62
(dp2825
g70
I3
ssg71
g2819
sg64
(lp2826
g1071
asbasbasbag57
(g73
g59
NtRp2827
(dp2828
g62
(dp2829
sg71
g2571
sg64
(lp2830
g57
(g78
g59
NtRp2831
(dp2832
g62
(dp2833
g82
g83
ssg71
g2827
sg64
(lp2834
S'HTTP_USER_AGENT'
p2835
asbag57
(g78
g59
NtRp2836
(dp2837
g62
(dp2838
g89
g90
ssg71
g2827
sg64
(lp2839
S':'
asbag57
(g78
g59
NtRp2840
(dp2841
g62
(dp2842
sg71
g2827
sg64
(lp2843
g57
(g58
g59
NtRp2844
(dp2845
g62
(dp2846
g70
I3
ssg71
g2840
sg64
(lp2847
g1093
asbasbasbag57
(g73
g59
NtRp2848
(dp2849
g62
(dp2850
sg71
g2571
sg64
(lp2851
g57
(g78
g59
NtRp2852
(dp2853
g62
(dp2854
g82
g83
ssg71
g2848
sg64
(lp2855
S'PATH_INFO'
p2856
asbag57
(g78
g59
NtRp2857
(dp2858
g62
(dp2859
g89
g90
ssg71
g2848
sg64
(lp2860
S':'
asbag57
(g78
g59
NtRp2861
(dp2862
g62
(dp2863
sg71
g2848
sg64
(lp2864
g57
(g58
g59
NtRp2865
(dp2866
g62
(dp2867
g70
I3
ssg71
g2861
sg64
(lp2868
g1157
asbasbasbag57
(g73
g59
NtRp2869
(dp2870
g62
(dp2871
sg71
g2571
sg64
(lp2872
g57
(g78
g59
NtRp2873
(dp2874
g62
(dp2875
g82
g83
ssg71
g2869
sg64
(lp2876
S'QUERY_STRING'
p2877
asbag57
(g78
g59
NtRp2878
(dp2879
g62
(dp2880
g89
g90
ssg71
g2869
sg64
(lp2881
S':'
asbag57
(g78
g59
NtRp2882
(dp2883
g62
(dp2884
sg71
g2869
sg64
(lp2885
g57
(g58
g59
NtRp2886
(dp2887
g62
(dp2888
g70
I3
ssg71
g2882
sg64
(lp2889
g1179
asbasbasbag57
(g73
g59
NtRp2890
(dp2891
g62
(dp2892
sg71
g2571
sg64
(lp2893
g57
(g78
g59
NtRp2894
(dp2895
g62
(dp2896
g82
g83
ssg71
g2890
sg64
(lp2897
S'REMOTE_ADDR'
p2898
asbag57
(g78
g59
NtRp2899
(dp2900
g62
(dp2901
g89
g90
ssg71
g2890
sg64
(lp2902
S':'
asbag57
(g78
g59
NtRp2903
(dp2904
g62
(dp2905
sg71
g2890
sg64
(lp2906
g57
(g58
g59
NtRp2907
(dp2908
g62
(dp2909
g70
I3
ssg71
g2903
sg64
(lp2910
g203
asbasbasbag57
(g73
g59
NtRp2911
(dp2912
g62
(dp2913
sg71
g2571
sg64
(lp2914
g57
(g78
g59
NtRp2915
(dp2916
g62
(dp2917
g82
g83
ssg71
g2911
sg64
(lp2918
S'REMOTE_PORT'
p2919
asbag57
(g78
g59
NtRp2920
(dp2921
g62
(dp2922
g89
g90
ssg71
g2911
sg64
(lp2923
S':'
asbag57
(g78
g59
NtRp2924
(dp2925
g62
(dp2926
sg71
g2911
sg64
(lp2927
g57
(g58
g59
NtRp2928
(dp2929
g62
(dp2930
g70
I3
ssg71
g2924
sg64
(lp2931
g1222
asbasbasbag57
(g73
g59
NtRp2932
(dp2933
g62
(dp2934
sg71
g2571
sg64
(lp2935
g57
(g78
g59
NtRp2936
(dp2937
g62
(dp2938
g82
g83
ssg71
g2932
sg64
(lp2939
S'REQUEST_METHOD'
p2940
asbag57
(g78
g59
NtRp2941
(dp2942
g62
(dp2943
g89
g90
ssg71
g2932
sg64
(lp2944
S':'
asbag57
(g78
g59
NtRp2945
(dp2946
g62
(dp2947
sg71
g2932
sg64
(lp2948
g57
(g58
g59
NtRp2949
(dp2950
g62
(dp2951
g70
I3
ssg71
g2945
sg64
(lp2952
g1244
asbasbasbag57
(g73
g59
NtRp2953
(dp2954
g62
(dp2955
sg71
g2571
sg64
(lp2956
g57
(g78
g59
NtRp2957
(dp2958
g62
(dp2959
g82
g83
ssg71
g2953
sg64
(lp2960
S'SCRIPT_NAME'
p2961
asbag57
(g78
g59
NtRp2962
(dp2963
g62
(dp2964
g89
g90
ssg71
g2953
sg64
(lp2965
S':'
asbag57
(g78
g59
NtRp2966
(dp2967
g62
(dp2968
sg71
g2953
sg64
(lp2969
g57
(g58
g59
NtRp2970
(dp2971
g62
(dp2972
g70
I3
ssg71
g2966
sg64
(lp2973
S''
asbasbasbag57
(g73
g59
NtRp2974
(dp2975
g62
(dp2976
sg71
g2571
sg64
(lp2977
g57
(g78
g59
NtRp2978
(dp2979
g62
(dp2980
g82
g83
ssg71
g2974
sg64
(lp2981
S'SERVER_NAME'
p2982
asbag57
(g78
g59
NtRp2983
(dp2984
g62
(dp2985
g89
g90
ssg71
g2974
sg64
(lp2986
S':'
asbag57
(g78
g59
NtRp2987
(dp2988
g62
(dp2989
sg71
g2974
sg64
(lp2990
g57
(g58
g59
NtRp2991
(dp2992
g62
(dp2993
g70
I3
ssg71
g2987
sg64
(lp2994
g1287
asbasbasbag57
(g73
g59
NtRp2995
(dp2996
g62
(dp2997
sg71
g2571
sg64
(lp2998
g57
(g78
g59
NtRp2999
(dp3000
g62
(dp3001
g82
g83
ssg71
g2995
sg64
(lp3002
S'SERVER_PORT'
p3003
asbag57
(g78
g59
NtRp3004
(dp3005
g62
(dp3006
g89
g90
ssg71
g2995
sg64
(lp3007
S':'
asbag57
(g78
g59
NtRp3008
(dp3009
g62
(dp3010
sg71
g2995
sg64
(lp3011
g57
(g58
g59
NtRp3012
(dp3013
g62
(dp3014
g70
I3
ssg71
g3008
sg64
(lp3015
g1309
asbasbasbag57
(g73
g59
NtRp3016
(dp3017
g62
(dp3018
sg71
g2571
sg64
(lp3019
g57
(g78
g59
NtRp3020
(dp3021
g62
(dp3022
g82
g83
ssg71
g3016
sg64
(lp3023
S'SERVER_PROTOCOL'
p3024
asbag57
(g78
g59
NtRp3025
(dp3026
g62
(dp3027
g89
g90
ssg71
g3016
sg64
(lp3028
S':'
asbag57
(g78
g59
NtRp3029
(dp3030
g62
(dp3031
sg71
g3016
sg64
(lp3032
g57
(g58
g59
NtRp3033
(dp3034
g62
(dp3035
g70
I3
ssg71
g3029
sg64
(lp3036
g1331
asbasbasbag57
(g73
g59
NtRp3037
(dp3038
g62
(dp3039
sg71
g2571
sg64
(lp3040
g57
(g78
g59
NtRp3041
(dp3042
g62
(dp3043
g82
g83
ssg71
g3037
sg64
(lp3044
S'SERVER_SOFTWARE'
p3045
asbag57
(g78
g59
NtRp3046
(dp3047
g62
(dp3048
g89
g90
ssg71
g3037
sg64
(lp3049
S':'
asbag57
(g78
g59
NtRp3050
(dp3051
g62
(dp3052
sg71
g3037
sg64
(lp3053
g57
(g58
g59
NtRp3054
(dp3055
g62
(dp3056
g70
I3
ssg71
g3050
sg64
(lp3057
g1353
asbasbasbag57
(g73
g59
NtRp3058
(dp3059
g62
(dp3060
sg71
g2571
sg64
(lp3061
g57
(g78
g59
NtRp3062
(dp3063
g62
(dp3064
g82
g83
ssg71
g3058
sg64
(lp3065
S'wsgi.errors'
p3066
asbag57
(g78
g59
NtRp3067
(dp3068
g62
(dp3069
g89
g90
ssg71
g3058
sg64
(lp3070
S':'
asbag57
(g78
g59
NtRp3071
(dp3072
g62
(dp3073
sg71
g3058
sg64
(lp3074
g57
(g58
g59
NtRp3075
(dp3076
g62
(dp3077
g70
I3
ssg71
g3071
sg64
(lp3078
S"<open file '<stderr>', mode 'w' at 0xb77800d0>"
p3079
asbasbasbag57
(g73
g59
NtRp3080
(dp3081
g62
(dp3082
sg71
g2571
sg64
(lp3083
g57
(g78
g59
NtRp3084
(dp3085
g62
(dp3086
g82
g83
ssg71
g3080
sg64
(lp3087
S'wsgi.file_wrapper'
p3088
asbag57
(g78
g59
NtRp3089
(dp3090
g62
(dp3091
g89
g90
ssg71
g3080
sg64
(lp3092
S':'
asbag57
(g78
g59
NtRp3093
(dp3094
g62
(dp3095
sg71
g3080
sg64
(lp3096
g57
(g58
g59
NtRp3097
(dp3098
g62
(dp3099
g70
I3
ssg71
g3093
sg64
(lp3100
S'<class wsgiref.util.FileWrapper at 0xa0f9e6c>'
p3101
asbasbasbag57
(g73
g59
NtRp3102
(dp3103
g62
(dp3104
sg71
g2571
sg64
(lp3105
g57
(g78
g59
NtRp3106
(dp3107
g62
(dp3108
g82
g83
ssg71
g3102
sg64
(lp3109
S'wsgi.input'
p3110
asbag57
(g78
g59
NtRp3111
(dp3112
g62
(dp3113
g89
g90
ssg71
g3102
sg64
(lp3114
S':'
asbag57
(g78
g59
NtRp3115
(dp3116
g62
(dp3117
sg71
g3102
sg64
(lp3118
g57
(g58
g59
NtRp3119
(dp3120
g62
(dp3121
g70
I3
ssg71
g3115
sg64
(lp3122
S"<open file '<fdopen>', mode 'w+b' at 0xa67b808>"
p3123
asbasbasbag57
(g73
g59
NtRp3124
(dp3125
g62
(dp3126
sg71
g2571
sg64
(lp3127
g57
(g78
g59
NtRp3128
(dp3129
g62
(dp3130
g82
g83
ssg71
g3124
sg64
(lp3131
S'wsgi.multiprocess'
p3132
asbag57
(g78
g59
NtRp3133
(dp3134
g62
(dp3135
g89
g90
ssg71
g3124
sg64
(lp3136
S':'
asbag57
(g78
g59
NtRp3137
(dp3138
g62
(dp3139
sg71
g3124
sg64
(lp3140
g57
(g58
g59
NtRp3141
(dp3142
g62
(dp3143
g70
I3
ssg71
g3137
sg64
(lp3144
g100
asbasbasbag57
(g73
g59
NtRp3145
(dp3146
g62
(dp3147
sg71
g2571
sg64
(lp3148
g57
(g78
g59
NtRp3149
(dp3150
g62
(dp3151
g82
g83
ssg71
g3145
sg64
(lp3152
S'wsgi.multithread'
p3153
asbag57
(g78
g59
NtRp3154
(dp3155
g62
(dp3156
g89
g90
ssg71
g3145
sg64
(lp3157
S':'
asbag57
(g78
g59
NtRp3158
(dp3159
g62
(dp3160
sg71
g3145
sg64
(lp3161
g57
(g58
g59
NtRp3162
(dp3163
g62
(dp3164
g70
I3
ssg71
g3158
sg64
(lp3165
g1593
asbasbasbag57
(g73
g59
NtRp3166
(dp3167
g62
(dp3168
sg71
g2571
sg64
(lp3169
g57
(g78
g59
NtRp3170
(dp3171
g62
(dp3172
g82
g83
ssg71
g3166
sg64
(lp3173
S'wsgi.run_once'
p3174
asbag57
(g78
g59
NtRp3175
(dp3176
g62
(dp3177
g89
g90
ssg71
g3166
sg64
(lp3178
S':'
asbag57
(g78
g59
NtRp3179
(dp3180
g62
(dp3181
sg71
g3166
sg64
(lp3182
g57
(g58
g59
NtRp3183
(dp3184
g62
(dp3185
g70
I3
ssg71
g3179
sg64
(lp3186
g100
asbasbasbag57
(g73
g59
NtRp3187
(dp3188
g62
(dp3189
sg71
g2571
sg64
(lp3190
g57
(g78
g59
NtRp3191
(dp3192
g62
(dp3193
g82
g83
ssg71
g3187
sg64
(lp3194
S'wsgi.url_scheme'
p3195
asbag57
(g78
g59
NtRp3196
(dp3197
g62
(dp3198
g89
g90
ssg71
g3187
sg64
(lp3199
S':'
asbag57
(g78
g59
NtRp3200
(dp3201
g62
(dp3202
sg71
g3187
sg64
(lp3203
g57
(g58
g59
NtRp3204
(dp3205
g62
(dp3206
g70
I3
ssg71
g3200
sg64
(lp3207
g1636
asbasbasbag57
(g73
g59
NtRp3208
(dp3209
g62
(dp3210
sg71
g2571
sg64
(lp3211
g57
(g78
g59
NtRp3212
(dp3213
g62
(dp3214
g82
g83
ssg71
g3208
sg64
(lp3215
S'wsgi.version'
p3216
asbag57
(g78
g59
NtRp3217
(dp3218
g62
(dp3219
g89
g90
ssg71
g3208
sg64
(lp3220
S':'
asbag57
(g78
g59
NtRp3221
(dp3222
g62
(dp3223
sg71
g3208
sg64
(lp3224
g57
(g58
g59
NtRp3225
(dp3226
g62
(dp3227
g70
I3
ssg71
g3221
sg64
(lp3228
S'1'
asbasbasbasbasbasbasbasbasbasbasbasbasbsS'frames'
p3229
(lp3230
(dp3231
S'file'
p3232
S'/home/alfem/alfem/prog/telefam/server/web2py/gluon/restricted.py'
p3233
sS'dump'
p3234
(dp3235
S'environment'
p3236
S"{'A': <class 'gluon.html.A'>, 'Auth': <class 'gluon.tools.Auth'>, 'B': <class 'gluon.html.B'>, 'BEAUTIFY': <class 'gluon.html.BEAUTIFY'>, 'BODY': <class 'gluon.html.BODY'>, 'BR': <class 'gluon.html.BR'>, 'BUTTON': <class 'gluon.html.BUTTON'>, 'CAT': <class 'gluon.html.CAT'>, 'CENTER': <class 'gluon.html.CENTER'>, 'CLEANUP': <class 'gluon.validators.CLEANUP'>, ...}"
p3237
sS'ccode'
p3238
S'<code object <module> at 0xa7bd7b8, file "/home/...cations/telefam/controllers/default.py", line 11>'
p3239
ssS'lnum'
p3240
I205
sS'lines'
p3241
(dp3242
I200
S'    try:'
p3243
sI201
S'        if type(code) == types.CodeType:'
p3244
sI202
S'            ccode = code'
p3245
sI203
S'        else:'
p3246
sI204
S'            ccode = compile2(code,layer)'
p3247
sI205
S'        exec ccode in environment'
p3248
sI206
S'    except HTTP:'
p3249
sI207
S'        raise'
p3250
sI208
S'    except RestrictedError:'
p3251
sI209
S'        # do not encapsulate (obfuscate) the original RestrictedError'
p3252
ssS'call'
p3253
S"(code='# -*- coding: utf-8 -*-\\n# this file is released ...m=crud())\\n\\nresponse._vars=response._caller(user)\\n', environment={'A': <class 'gluon.html.A'>, 'Auth': <class 'gluon.tools.Auth'>, 'B': <class 'gluon.html.B'>, 'BEAUTIFY': <class 'gluon.html.BEAUTIFY'>, 'BODY': <class 'gluon.html.BODY'>, 'BR': <class 'gluon.html.BR'>, 'BUTTON': <class 'gluon.html.BUTTON'>, 'CAT': <class 'gluon.html.CAT'>, 'CENTER': <class 'gluon.html.CENTER'>, 'CLEANUP': <class 'gluon.validators.CLEANUP'>, ...}, layer='/home/alfem/alfem/prog/telefam/server/web2py/applications/telefam/controllers/default.py')"
p3254
sS'func'
p3255
S'restricted'
p3256
sa(dp3257
g3232
S'/home/alfem/alfem/prog/telefam/server/web2py/applications/telefam/controllers/default.py'
p3258
sg3234
(dp3259
sg3240
I94
sg3241
(dp3260
I83
S'    http://..../[app]/default/data/update/[table]/[id]'
p3261
sI84
S'    http://..../[app]/default/data/delete/[table]/[id]'
p3262
sI85
S'    http://..../[app]/default/data/select/[table]'
p3263
sI86
S'    http://..../[app]/default/data/search/[table]'
p3264
sI87
S'    but URLs must be signed, i.e. linked with'
p3265
sI88
S"      A('table',_href=URL('data/tables',user_signature=True))"
p3266
sI89
S'    or with the signed load operator'
p3267
sI90
S"      LOAD('default','data.load',args='tables',ajax=True,user_signature=True)"
p3268
sI91
S'    """'
p3269
sI92
S'    return dict(form=crud())'
p3270
ssg3253
S'()'
p3271
sg3255
S'<module>'
p3272
sa(dp3273
g3232
S'/home/alfem/alfem/prog/telefam/server/web2py/gluon/globals.py'
p3274
sg3234
(dp3275
S'self'
p3276
S'undefined'
p3277
sS'f'
S'<function user>'
p3278
ssg3240
I173
sg3241
(dp3279
I168
S'        self.menu = []             # used by the default view layout'
p3280
sI169
S'        self.files = []            # used by web2py_ajax.html'
p3281
sI170
S'        self.generic_patterns = [] # patterns to allow generic views'
p3282
sI171
S"        self.delimiters = ('{{','}}')"
p3283
sI172
S'        self._vars = None'
p3284
sI173
S'        self._caller = lambda f: f()'
p3285
sI174
S'        self._view_environment = None'
p3286
sI175
S'        self._custom_commit = None'
p3287
sI176
S'        self._custom_rollback = None'
p3288
sI177
S''
ssg3253
S'(f=<function user>)'
p3289
sg3255
S'<lambda>'
p3290
sa(dp3291
g3232
S'/home/alfem/alfem/prog/telefam/server/web2py/applications/telefam/controllers/default.py'
p3292
sg3234
(dp3293
S'global auth'
p3294
S'<gluon.tools.Auth object>'
p3295
sS'form'
p3296
g3277
sS'builtindict'
p3297
S"<type 'dict'>"
p3298
ssg3240
I56
sg3241
(dp3299
I51
S'    use @auth.requires_login()'
p3300
sI52
S"        @auth.requires_membership('group name')"
p3301
sI53
S"        @auth.requires_permission('read','table name',record_id)"
p3302
sI54
S'    to decorate functions that need access control'
p3303
sI55
S'    """'
p3304
sI56
S'    return dict(form=auth())'
p3305
sI57
S''
sI58
S''
sI59
S'def download():'
p3306
sI60
S'    """'
p3307
ssg3253
S'()'
p3308
sg3255
S'user'
p3309
sa(dp3310
g3232
S'/home/alfem/alfem/prog/telefam/server/web2py/gluon/tools.py'
p3311
sg3234
(dp3312
S'self'
p3313
S'<gluon.tools.Auth object>'
p3314
sS'args'
p3315
S"['profile']"
p3316
sS'builtingetattr'
p3317
S'<built-in function getattr>'
p3318
ssg3240
I1161
sg3241
(dp3319
I1156
S"        if args[0] in ('login','logout','register','verify_email',"
p3320
sI1157
S"                       'retrieve_username','retrieve_password',"
p3321
sI1158
S"                       'reset_password','request_reset_password',"
p3322
sI1159
S"                       'change_password','profile','groups',"
p3323
sI1160
S"                       'impersonate','not_authorized'):"
p3324
sI1161
S'            return getattr(self,args[0])()'
p3325
sI1162
S"        elif args[0]=='cas' and not self.settings.cas_provider:"
p3326
sI1163
S"            if args(1) == self.settings.cas_actions['login']:"
p3327
sI1164
S'                return self.cas_login(version=2)'
p3328
sI1165
S"            elif args(1) == self.settings.cas_actions['validate']:"
p3329
ssg3253
S'(self=<gluon.tools.Auth object>)'
p3330
sg3255
S'__call__'
p3331
sa(dp3332
g3232
S'/home/alfem/alfem/prog/telefam/server/web2py/gluon/tools.py'
p3333
sg3234
(dp3334
S'global callback'
p3335
S'<function callback>'
p3336
sS'form'
p3337
S'<gluon.sqlhtml.SQLFORM object>'
p3338
sS'onaccept'
p3339
S'[<function <lambda>>]'
p3340
ssg3240
I2445
sg3241
(dp3341
I2440
S"                        formname='profile',"
p3342
sI2441
S'                        onvalidation=onvalidation, hideerror=self.settings.hideerror):'
p3343
sI2442
S'            self.user.update(table_user._filter_fields(form.vars))'
p3344
sI2443
S'            session.flash = self.messages.profile_updated'
p3345
sI2444
S'            self.log_event(log,self.user)'
p3346
sI2445
S'            callback(onaccept,form)'
p3347
sI2446
S'            if not next:'
p3348
sI2447
S'                next = self.url(args=request.args)'
p3349
sI2448
S'            else:'
p3350
sI2449
S'                next = replace_id(next, form)'
p3351
ssg3253
S"(self=<gluon.tools.Auth object>, next='/telefam/default/index', onvalidation=[], onaccept=[<function <lambda>>], log='User %(id)s Profile updated')"
p3352
sg3255
S'profile'
p3353
sa(dp3354
g3232
S'/home/alfem/alfem/prog/telefam/server/web2py/gluon/tools.py'
p3355
sg3234
(dp3356
S'action'
p3357
S'<function <lambda>>'
p3358
sS'actions'
p3359
S'[<function <lambda>>]'
p3360
sS'form'
p3361
S'<gluon.sqlhtml.SQLFORM object>'
p3362
ssg3240
I57
sg3241
(dp3363
I52
S'    if actions:'
p3364
sI53
S'        if tablename and isinstance(actions,dict):'
p3365
sI54
S'            actions = actions.get(tablename, [])'
p3366
sI55
S'        if not isinstance(actions,(list, tuple)):'
p3367
sI56
S'            actions = [actions]'
p3368
sI57
S'        [action(form) for action in actions]'
p3369
sI58
S''
sI59
S'def validators(*a):'
p3370
sI60
S'    b = []'
p3371
sI61
S'    for item in a:'
p3372
ssg3253
S'(actions=[<function <lambda>>], form=<gluon.sqlhtml.SQLFORM object>, tablename=None)'
p3373
sg3255
S'callback'
p3374
sa(dp3375
g3232
S'/home/alfem/alfem/prog/telefam/server/web2py/applications/telefam/models/db.py'
p3376
sg3234
(dp3377
S'auth.settings.profile_onaccept.append'
p3378
S'<built-in method append of list object>'
p3379
sS'form'
p3380
S'<gluon.sqlhtml.SQLFORM object>'
p3381
sS'update'
p3382
g3277
sS'global auth'
p3383
S'<gluon.tools.Auth object>'
p3384
sS'auth.settings.profile_onaccept'
p3385
S'[<function <lambda>>]'
p3386
sS'auth.settings'
p3387
S"<Storage {'showid': False, 'verify_email_onaccep...trieve_username_next': '/telefam/default/index'}>"
p3388
ssg3240
I55
sg3241
(dp3389
I50
S"    Field('photo','upload',autodelete=True),"
p3390
sI51
S"    Field('updated_on','datetime', default=request.now, readable=False, writable=False)]"
p3391
sI52
S''
sI53
S''
sI54
S''
sI55
S'auth.settings.profile_onaccept.append(lambda form: update(form))'
p3392
sI56
S''
sI57
S'crud, service, plugins = Crud(db), Service(), PluginManager()'
p3393
sI58
S''
sI59
S'## create all tables needed by auth if not custom tables'
p3394
ssg3253
S'(form=<gluon.sqlhtml.SQLFORM object>)'
p3395
sg3255
g3290
sasS'pyver'
p3396
S'Python 2.7.2+: /usr/bin/python'
p3397
sS'session'
p3398
g57
(g58
g59
NtRp3399
(dp3400
g62
(dp3401
sg64
(lp3402
g57
(g66
g59
NtRp3403
(dp3404
g62
(dp3405
g70
I5
ssg71
Nsg64
(lp3406
g57
(g73
g59
NtRp3407
(dp3408
g62
(dp3409
sg71
g3403
sg64
(lp3410
g57
(g78
g59
NtRp3411
(dp3412
g62
(dp3413
g82
g83
ssg71
g3407
sg64
(lp3414
S'auth'
p3415
asbag57
(g78
g59
NtRp3416
(dp3417
g62
(dp3418
g89
g90
ssg71
g3407
sg64
(lp3419
S':'
asbag57
(g78
g59
NtRp3420
(dp3421
g62
(dp3422
sg71
g3407
sg64
(lp3423
g57
(g58
g59
NtRp3424
(dp3425
g62
(dp3426
g70
I5
ssg71
g3420
sg64
(lp3427
g57
(g66
g59
NtRp3428
(dp3429
g62
(dp3430
g70
I4
ssg71
Nsg64
(lp3431
g57
(g73
g59
NtRp3432
(dp3433
g62
(dp3434
sg71
g3428
sg64
(lp3435
g57
(g78
g59
NtRp3436
(dp3437
g62
(dp3438
g82
g83
ssg71
g3432
sg64
(lp3439
S'expiration'
p3440
asbag57
(g78
g59
NtRp3441
(dp3442
g62
(dp3443
g89
g90
ssg71
g3432
sg64
(lp3444
S':'
asbag57
(g78
g59
NtRp3445
(dp3446
g62
(dp3447
sg71
g3432
sg64
(lp3448
g57
(g58
g59
NtRp3449
(dp3450
g62
(dp3451
g70
I4
ssg71
g3445
sg64
(lp3452
S'3600'
p3453
asbasbasbag57
(g73
g59
NtRp3454
(dp3455
g62
(dp3456
sg71
g3428
sg64
(lp3457
g57
(g78
g59
NtRp3458
(dp3459
g62
(dp3460
g82
g83
ssg71
g3454
sg64
(lp3461
S'hmac_key'
p3462
asbag57
(g78
g59
NtRp3463
(dp3464
g62
(dp3465
g89
g90
ssg71
g3454
sg64
(lp3466
S':'
asbag57
(g78
g59
NtRp3467
(dp3468
g62
(dp3469
sg71
g3454
sg64
(lp3470
g57
(g58
g59
NtRp3471
(dp3472
g62
(dp3473
g70
I4
ssg71
g3467
sg64
(lp3474
S'10b16de2-5242-4454-b430-eea577a6d2b9'
p3475
asbasbasbag57
(g73
g59
NtRp3476
(dp3477
g62
(dp3478
sg71
g3428
sg64
(lp3479
g57
(g78
g59
NtRp3480
(dp3481
g62
(dp3482
g82
g83
ssg71
g3476
sg64
(lp3483
S'last_visit'
p3484
asbag57
(g78
g59
NtRp3485
(dp3486
g62
(dp3487
g89
g90
ssg71
g3476
sg64
(lp3488
S':'
asbag57
(g78
g59
NtRp3489
(dp3490
g62
(dp3491
sg71
g3476
sg64
(lp3492
g57
(g58
g59
NtRp3493
(dp3494
g62
(dp3495
g70
I4
ssg71
g3489
sg64
(lp3496
S'datetime.datetime(2012, 8, 30, 14, 22, 3, 381483)'
p3497
asbasbasbag57
(g73
g59
NtRp3498
(dp3499
g62
(dp3500
sg71
g3428
sg64
(lp3501
g57
(g78
g59
NtRp3502
(dp3503
g62
(dp3504
g82
g83
ssg71
g3498
sg64
(lp3505
S'remember'
p3506
asbag57
(g78
g59
NtRp3507
(dp3508
g62
(dp3509
g89
g90
ssg71
g3498
sg64
(lp3510
S':'
asbag57
(g78
g59
NtRp3511
(dp3512
g62
(dp3513
sg71
g3498
sg64
(lp3514
g57
(g58
g59
NtRp3515
(dp3516
g62
(dp3517
g70
I4
ssg71
g3511
sg64
(lp3518
g100
asbasbasbag57
(g73
g59
NtRp3519
(dp3520
g62
(dp3521
sg71
g3428
sg64
(lp3522
g57
(g78
g59
NtRp3523
(dp3524
g62
(dp3525
g82
g83
ssg71
g3519
sg64
(lp3526
S'user'
p3527
asbag57
(g78
g59
NtRp3528
(dp3529
g62
(dp3530
g89
g90
ssg71
g3519
sg64
(lp3531
S':'
asbag57
(g78
g59
NtRp3532
(dp3533
g62
(dp3534
sg71
g3519
sg64
(lp3535
g57
(g58
g59
NtRp3536
(dp3537
g62
(dp3538
g70
I4
ssg71
g3532
sg64
(lp3539
g57
(g66
g59
NtRp3540
(dp3541
g62
(dp3542
g70
I3
ssg71
Nsg64
(lp3543
g57
(g73
g59
NtRp3544
(dp3545
g62
(dp3546
sg71
g3540
sg64
(lp3547
g57
(g78
g59
NtRp3548
(dp3549
g62
(dp3550
g82
g83
ssg71
g3544
sg64
(lp3551
S'email'
p3552
asbag57
(g78
g59
NtRp3553
(dp3554
g62
(dp3555
g89
g90
ssg71
g3544
sg64
(lp3556
S':'
asbag57
(g78
g59
NtRp3557
(dp3558
g62
(dp3559
sg71
g3544
sg64
(lp3560
g57
(g58
g59
NtRp3561
(dp3562
g62
(dp3563
g70
I3
ssg71
g3557
sg64
(lp3564
g2226
asbasbasbag57
(g73
g59
NtRp3565
(dp3566
g62
(dp3567
sg71
g3540
sg64
(lp3568
g57
(g78
g59
NtRp3569
(dp3570
g62
(dp3571
g82
g83
ssg71
g3565
sg64
(lp3572
S'first_name'
p3573
asbag57
(g78
g59
NtRp3574
(dp3575
g62
(dp3576
g89
g90
ssg71
g3565
sg64
(lp3577
S':'
asbag57
(g78
g59
NtRp3578
(dp3579
g62
(dp3580
sg71
g3565
sg64
(lp3581
g57
(g58
g59
NtRp3582
(dp3583
g62
(dp3584
g70
I3
ssg71
g3578
sg64
(lp3585
g2248
asbasbasbag57
(g73
g59
NtRp3586
(dp3587
g62
(dp3588
sg71
g3540
sg64
(lp3589
g57
(g78
g59
NtRp3590
(dp3591
g62
(dp3592
g82
g83
ssg71
g3586
sg64
(lp3593
S'id'
p3594
asbag57
(g78
g59
NtRp3595
(dp3596
g62
(dp3597
g89
g90
ssg71
g3586
sg64
(lp3598
S':'
asbag57
(g78
g59
NtRp3599
(dp3600
g62
(dp3601
sg71
g3586
sg64
(lp3602
g57
(g58
g59
NtRp3603
(dp3604
g62
(dp3605
g70
I3
ssg71
g3599
sg64
(lp3606
S'1'
asbasbasbag57
(g73
g59
NtRp3607
(dp3608
g62
(dp3609
sg71
g3540
sg64
(lp3610
g57
(g78
g59
NtRp3611
(dp3612
g62
(dp3613
g82
g83
ssg71
g3607
sg64
(lp3614
S'last_name'
p3615
asbag57
(g78
g59
NtRp3616
(dp3617
g62
(dp3618
g89
g90
ssg71
g3607
sg64
(lp3619
S':'
asbag57
(g78
g59
NtRp3620
(dp3621
g62
(dp3622
sg71
g3607
sg64
(lp3623
g57
(g58
g59
NtRp3624
(dp3625
g62
(dp3626
g70
I3
ssg71
g3620
sg64
(lp3627
g2291
asbasbasbag57
(g73
g59
NtRp3628
(dp3629
g62
(dp3630
sg71
g3540
sg64
(lp3631
g57
(g78
g59
NtRp3632
(dp3633
g62
(dp3634
g82
g83
ssg71
g3628
sg64
(lp3635
S'password'
p3636
asbag57
(g78
g59
NtRp3637
(dp3638
g62
(dp3639
g89
g90
ssg71
g3628
sg64
(lp3640
S':'
asbag57
(g78
g59
NtRp3641
(dp3642
g62
(dp3643
sg71
g3628
sg64
(lp3644
g57
(g58
g59
NtRp3645
(dp3646
g62
(dp3647
g70
I3
ssg71
g3641
sg64
(lp3648
S'12923092f4d9e86e56018b9cdd790947'
p3649
asbasbasbag57
(g73
g59
NtRp3650
(dp3651
g62
(dp3652
sg71
g3540
sg64
(lp3653
g57
(g78
g59
NtRp3654
(dp3655
g62
(dp3656
g82
g83
ssg71
g3650
sg64
(lp3657
S'photo'
p3658
asbag57
(g78
g59
NtRp3659
(dp3660
g62
(dp3661
g89
g90
ssg71
g3650
sg64
(lp3662
S':'
asbag57
(g78
g59
NtRp3663
(dp3664
g62
(dp3665
sg71
g3650
sg64
(lp3666
g57
(g58
g59
NtRp3667
(dp3668
g62
(dp3669
g70
I3
ssg71
g3663
sg64
(lp3670
S'auth_user.photo.8eb953fd3c62034e.616c666f6e736f2e6a7067.jpg'
p3671
asbasbasbag57
(g73
g59
NtRp3672
(dp3673
g62
(dp3674
sg71
g3540
sg64
(lp3675
g57
(g78
g59
NtRp3676
(dp3677
g62
(dp3678
g82
g83
ssg71
g3672
sg64
(lp3679
S'registration_id'
p3680
asbag57
(g78
g59
NtRp3681
(dp3682
g62
(dp3683
g89
g90
ssg71
g3672
sg64
(lp3684
S':'
asbag57
(g78
g59
NtRp3685
(dp3686
g62
(dp3687
sg71
g3672
sg64
(lp3688
g57
(g58
g59
NtRp3689
(dp3690
g62
(dp3691
g70
I3
ssg71
g3685
sg64
(lp3692
S'test'
p3693
asbasbasbag57
(g73
g59
NtRp3694
(dp3695
g62
(dp3696
sg71
g3540
sg64
(lp3697
g57
(g78
g59
NtRp3698
(dp3699
g62
(dp3700
g82
g83
ssg71
g3694
sg64
(lp3701
S'registration_key'
p3702
asbag57
(g78
g59
NtRp3703
(dp3704
g62
(dp3705
g89
g90
ssg71
g3694
sg64
(lp3706
S':'
asbag57
(g78
g59
NtRp3707
(dp3708
g62
(dp3709
sg71
g3694
sg64
(lp3710
g57
(g58
g59
NtRp3711
(dp3712
g62
(dp3713
g70
I3
ssg71
g3707
sg64
(lp3714
S''
asbasbasbag57
(g73
g59
NtRp3715
(dp3716
g62
(dp3717
sg71
g3540
sg64
(lp3718
g57
(g78
g59
NtRp3719
(dp3720
g62
(dp3721
g82
g83
ssg71
g3715
sg64
(lp3722
S'reset_password_key'
p3723
asbag57
(g78
g59
NtRp3724
(dp3725
g62
(dp3726
g89
g90
ssg71
g3715
sg64
(lp3727
S':'
asbag57
(g78
g59
NtRp3728
(dp3729
g62
(dp3730
sg71
g3715
sg64
(lp3731
g57
(g58
g59
NtRp3732
(dp3733
g62
(dp3734
g70
I3
ssg71
g3728
sg64
(lp3735
S''
asbasbasbag57
(g73
g59
NtRp3736
(dp3737
g62
(dp3738
sg71
g3540
sg64
(lp3739
g57
(g78
g59
NtRp3740
(dp3741
g62
(dp3742
g82
g83
ssg71
g3736
sg64
(lp3743
S'updated_on'
p3744
asbag57
(g78
g59
NtRp3745
(dp3746
g62
(dp3747
g89
g90
ssg71
g3736
sg64
(lp3748
S':'
asbag57
(g78
g59
NtRp3749
(dp3750
g62
(dp3751
sg71
g3736
sg64
(lp3752
g57
(g58
g59
NtRp3753
(dp3754
g62
(dp3755
g70
I3
ssg71
g3749
sg64
(lp3756
S'datetime.datetime(2012, 8, 28, 12, 53, 14)'
p3757
asbasbasbasbasbasbasbag57
(g73
g59
NtRp3758
(dp3759
g62
(dp3760
sg71
g3428
sg64
(lp3761
g57
(g78
g59
NtRp3762
(dp3763
g62
(dp3764
g82
g83
ssg71
g3758
sg64
(lp3765
S'user_groups'
p3766
asbag57
(g78
g59
NtRp3767
(dp3768
g62
(dp3769
g89
g90
ssg71
g3758
sg64
(lp3770
S':'
asbag57
(g78
g59
NtRp3771
(dp3772
g62
(dp3773
sg71
g3758
sg64
(lp3774
g57
(g58
g59
NtRp3775
(dp3776
g62
(dp3777
g70
I4
ssg71
g3771
sg64
(lp3778
g57
(g66
g59
NtRp3779
(dp3780
g62
(dp3781
g70
I3
ssg71
Nsg64
(lp3782
sbasbasbasbasbasbasbasbag57
(g73
g59
NtRp3783
(dp3784
g62
(dp3785
sg71
g3403
sg64
(lp3786
g57
(g78
g59
NtRp3787
(dp3788
g62
(dp3789
g82
g83
ssg71
g3783
sg64
(lp3790
S'flash'
p3791
asbag57
(g78
g59
NtRp3792
(dp3793
g62
(dp3794
g89
g90
ssg71
g3783
sg64
(lp3795
S':'
asbag57
(g78
g59
NtRp3796
(dp3797
g62
(dp3798
sg71
g3783
sg64
(lp3799
g57
(g58
g59
NtRp3800
(dp3801
g62
(dp3802
g70
I5
ssg71
g3796
sg64
(lp3803
S'Profile updated'
p3804
asbasbasbag57
(g73
g59
NtRp3805
(dp3806
g62
(dp3807
sg71
g3403
sg64
(lp3808
g57
(g78
g59
NtRp3809
(dp3810
g62
(dp3811
g82
g83
ssg71
g3805
sg64
(lp3812
S'telefam_description'
p3813
asbag57
(g78
g59
NtRp3814
(dp3815
g62
(dp3816
g89
g90
ssg71
g3805
sg64
(lp3817
S':'
asbag57
(g78
g59
NtRp3818
(dp3819
g62
(dp3820
sg71
g3805
sg64
(lp3821
g57
(g58
g59
NtRp3822
(dp3823
g62
(dp3824
g70
I5
ssg71
g3818
sg64
(lp3825
S'Telefam de Pepi'
p3826
asbasbasbag57
(g73
g59
NtRp3827
(dp3828
g62
(dp3829
sg71
g3403
sg64
(lp3830
g57
(g78
g59
NtRp3831
(dp3832
g62
(dp3833
g82
g83
ssg71
g3827
sg64
(lp3834
S'telefam_id'
p3835
asbag57
(g78
g59
NtRp3836
(dp3837
g62
(dp3838
g89
g90
ssg71
g3827
sg64
(lp3839
S':'
asbag57
(g78
g59
NtRp3840
(dp3841
g62
(dp3842
sg71
g3827
sg64
(lp3843
g57
(g58
g59
NtRp3844
(dp3845
g62
(dp3846
g70
I5
ssg71
g3840
sg64
(lp3847
S'1'
asbasbasbasbasbsS'etype'
p3848
S"<type 'exceptions.NameError'>"
p3849
sS'date'
p3850
S'Thu Aug 30 14:22:34 2012'
p3851
sS'response'
p3852
g57
(g58
g59
NtRp3853
(dp3854
g62
(dp3855
sg64
(lp3856
g57
(g66
g59
NtRp3857
(dp3858
g62
(dp3859
g70
I5
ssg71
Nsg64
(lp3860
g57
(g73
g59
NtRp3861
(dp3862
g62
(dp3863
sg71
g3857
sg64
(lp3864
g57
(g78
g59
NtRp3865
(dp3866
g62
(dp3867
g82
g83
ssg71
g3861
sg64
(lp3868
g168
asbag57
(g78
g59
NtRp3869
(dp3870
g62
(dp3871
g89
g90
ssg71
g3861
sg64
(lp3872
S':'
asbag57
(g78
g59
NtRp3873
(dp3874
g62
(dp3875
sg71
g3861
sg64
(lp3876
g57
(g58
g59
NtRp3877
(dp3878
g62
(dp3879
g70
I5
ssg71
g3873
sg64
(lp3880
S'<cStringIO.StringO object at 0xa3e2ae0>'
p3881
asbasbasbag57
(g73
g59
NtRp3882
(dp3883
g62
(dp3884
sg71
g3857
sg64
(lp3885
g57
(g78
g59
NtRp3886
(dp3887
g62
(dp3888
g82
g83
ssg71
g3882
sg64
(lp3889
g234
asbag57
(g78
g59
NtRp3890
(dp3891
g62
(dp3892
g89
g90
ssg71
g3882
sg64
(lp3893
S':'
asbag57
(g78
g59
NtRp3894
(dp3895
g62
(dp3896
sg71
g3882
sg64
(lp3897
g57
(g58
g59
NtRp3898
(dp3899
g62
(dp3900
g70
I5
ssg71
g3894
sg64
(lp3901
g57
(g66
g59
NtRp3902
(dp3903
g62
(dp3904
g70
I4
ssg71
Nsg64
(lp3905
g57
(g73
g59
NtRp3906
(dp3907
g62
(dp3908
sg71
g3902
sg64
(lp3909
g57
(g78
g59
NtRp3910
(dp3911
g62
(dp3912
g82
g83
ssg71
g3906
sg64
(lp3913
S'session_id_telefam'
p3914
asbag57
(g78
g59
NtRp3915
(dp3916
g62
(dp3917
g89
g90
ssg71
g3906
sg64
(lp3918
S':'
asbag57
(g78
g59
NtRp3919
(dp3920
g62
(dp3921
sg71
g3906
sg64
(lp3922
g57
(g58
g59
NtRp3923
(dp3924
g62
(dp3925
g70
I4
ssg71
g3919
sg64
(lp3926
g57
(g66
g59
NtRp3927
(dp3928
g62
(dp3929
g70
I3
ssg71
Nsg64
(lp3930
g57
(g73
g59
NtRp3931
(dp3932
g62
(dp3933
sg71
g3927
sg64
(lp3934
g57
(g78
g59
NtRp3935
(dp3936
g62
(dp3937
g82
g83
ssg71
g3931
sg64
(lp3938
g284
asbag57
(g78
g59
NtRp3939
(dp3940
g62
(dp3941
g89
g90
ssg71
g3931
sg64
(lp3942
S':'
asbag57
(g78
g59
NtRp3943
(dp3944
g62
(dp3945
sg71
g3931
sg64
(lp3946
g57
(g58
g59
NtRp3947
(dp3948
g62
(dp3949
g70
I3
ssg71
g3943
sg64
(lp3950
S''
asbasbasbag57
(g73
g59
NtRp3951
(dp3952
g62
(dp3953
sg71
g3927
sg64
(lp3954
g57
(g78
g59
NtRp3955
(dp3956
g62
(dp3957
g82
g83
ssg71
g3951
sg64
(lp3958
g305
asbag57
(g78
g59
NtRp3959
(dp3960
g62
(dp3961
g89
g90
ssg71
g3951
sg64
(lp3962
S':'
asbag57
(g78
g59
NtRp3963
(dp3964
g62
(dp3965
sg71
g3951
sg64
(lp3966
g57
(g58
g59
NtRp3967
(dp3968
g62
(dp3969
g70
I3
ssg71
g3963
sg64
(lp3970
S''
asbasbasbag57
(g73
g59
NtRp3971
(dp3972
g62
(dp3973
sg71
g3927
sg64
(lp3974
g57
(g78
g59
NtRp3975
(dp3976
g62
(dp3977
g82
g83
ssg71
g3971
sg64
(lp3978
g326
asbag57
(g78
g59
NtRp3979
(dp3980
g62
(dp3981
g89
g90
ssg71
g3971
sg64
(lp3982
S':'
asbag57
(g78
g59
NtRp3983
(dp3984
g62
(dp3985
sg71
g3971
sg64
(lp3986
g57
(g58
g59
NtRp3987
(dp3988
g62
(dp3989
g70
I3
ssg71
g3983
sg64
(lp3990
S''
asbasbasbag57
(g73
g59
NtRp3991
(dp3992
g62
(dp3993
sg71
g3927
sg64
(lp3994
g57
(g78
g59
NtRp3995
(dp3996
g62
(dp3997
g82
g83
ssg71
g3991
sg64
(lp3998
g347
asbag57
(g78
g59
NtRp3999
(dp4000
g62
(dp4001
g89
g90
ssg71
g3991
sg64
(lp4002
S':'
asbag57
(g78
g59
NtRp4003
(dp4004
g62
(dp4005
sg71
g3991
sg64
(lp4006
g57
(g58
g59
NtRp4007
(dp4008
g62
(dp4009
g70
I3
ssg71
g4003
sg64
(lp4010
S''
asbasbasbag57
(g73
g59
NtRp4011
(dp4012
g62
(dp4013
sg71
g3927
sg64
(lp4014
g57
(g78
g59
NtRp4015
(dp4016
g62
(dp4017
g82
g83
ssg71
g4011
sg64
(lp4018
g368
asbag57
(g78
g59
NtRp4019
(dp4020
g62
(dp4021
g89
g90
ssg71
g4011
sg64
(lp4022
S':'
asbag57
(g78
g59
NtRp4023
(dp4024
g62
(dp4025
sg71
g4011
sg64
(lp4026
g57
(g58
g59
NtRp4027
(dp4028
g62
(dp4029
g70
I3
ssg71
g4023
sg64
(lp4030
S''
asbasbasbag57
(g73
g59
NtRp4031
(dp4032
g62
(dp4033
sg71
g3927
sg64
(lp4034
g57
(g78
g59
NtRp4035
(dp4036
g62
(dp4037
g82
g83
ssg71
g4031
sg64
(lp4038
g389
asbag57
(g78
g59
NtRp4039
(dp4040
g62
(dp4041
g89
g90
ssg71
g4031
sg64
(lp4042
S':'
asbag57
(g78
g59
NtRp4043
(dp4044
g62
(dp4045
sg71
g4031
sg64
(lp4046
g57
(g58
g59
NtRp4047
(dp4048
g62
(dp4049
g70
I3
ssg71
g4043
sg64
(lp4050
S'/'
asbasbasbag57
(g73
g59
NtRp4051
(dp4052
g62
(dp4053
sg71
g3927
sg64
(lp4054
g57
(g78
g59
NtRp4055
(dp4056
g62
(dp4057
g82
g83
ssg71
g4051
sg64
(lp4058
g410
asbag57
(g78
g59
NtRp4059
(dp4060
g62
(dp4061
g89
g90
ssg71
g4051
sg64
(lp4062
S':'
asbag57
(g78
g59
NtRp4063
(dp4064
g62
(dp4065
sg71
g4051
sg64
(lp4066
g57
(g58
g59
NtRp4067
(dp4068
g62
(dp4069
g70
I3
ssg71
g4063
sg64
(lp4070
S''
asbasbasbag57
(g73
g59
NtRp4071
(dp4072
g62
(dp4073
sg71
g3927
sg64
(lp4074
g57
(g78
g59
NtRp4075
(dp4076
g62
(dp4077
g82
g83
ssg71
g4071
sg64
(lp4078
g431
asbag57
(g78
g59
NtRp4079
(dp4080
g62
(dp4081
g89
g90
ssg71
g4071
sg64
(lp4082
S':'
asbag57
(g78
g59
NtRp4083
(dp4084
g62
(dp4085
sg71
g4071
sg64
(lp4086
g57
(g58
g59
NtRp4087
(dp4088
g62
(dp4089
g70
I3
ssg71
g4083
sg64
(lp4090
S''
asbasbasbasbasbasbasbasbasbasbasbag57
(g73
g59
NtRp4091
(dp4092
g62
(dp4093
sg71
g3857
sg64
(lp4094
g57
(g78
g59
NtRp4095
(dp4096
g62
(dp4097
g82
g83
ssg71
g4091
sg64
(lp4098
S'delimiters'
p4099
asbag57
(g78
g59
NtRp4100
(dp4101
g62
(dp4102
g89
g90
ssg71
g4091
sg64
(lp4103
S':'
asbag57
(g78
g59
NtRp4104
(dp4105
g62
(dp4106
sg71
g4091
sg64
(lp4107
g57
(g58
g59
NtRp4108
(dp4109
g62
(dp4110
g70
I5
ssg71
g4104
sg64
(lp4111
g57
(g66
g59
NtRp4112
(dp4113
g62
(dp4114
g70
I4
ssg71
Nsg64
(lp4115
g57
(g73
g59
NtRp4116
(dp4117
g62
(dp4118
sg71
g4112
sg64
(lp4119
g57
(g78
g59
NtRp4120
(dp4121
g62
(dp4122
sg71
g4116
sg64
(lp4123
g57
(g58
g59
NtRp4124
(dp4125
g62
(dp4126
g70
I4
ssg71
g4120
sg64
(lp4127
S'{{'
p4128
asbasbasbag57
(g73
g59
NtRp4129
(dp4130
g62
(dp4131
sg71
g4112
sg64
(lp4132
g57
(g78
g59
NtRp4133
(dp4134
g62
(dp4135
sg71
g4129
sg64
(lp4136
g57
(g58
g59
NtRp4137
(dp4138
g62
(dp4139
g70
I4
ssg71
g4133
sg64
(lp4140
S'}}'
p4141
asbasbasbasbasbasbasbag57
(g73
g59
NtRp4142
(dp4143
g62
(dp4144
sg71
g3857
sg64
(lp4145
g57
(g78
g59
NtRp4146
(dp4147
g62
(dp4148
g82
g83
ssg71
g4142
sg64
(lp4149
S'files'
p4150
asbag57
(g78
g59
NtRp4151
(dp4152
g62
(dp4153
g89
g90
ssg71
g4142
sg64
(lp4154
S':'
asbag57
(g78
g59
NtRp4155
(dp4156
g62
(dp4157
sg71
g4142
sg64
(lp4158
g57
(g58
g59
NtRp4159
(dp4160
g62
(dp4161
g70
I5
ssg71
g4155
sg64
(lp4162
g57
(g66
g59
NtRp4163
(dp4164
g62
(dp4165
g70
I4
ssg71
Nsg64
(lp4166
sbasbasbasbag57
(g73
g59
NtRp4167
(dp4168
g62
(dp4169
sg71
g3857
sg64
(lp4170
g57
(g78
g59
NtRp4171
(dp4172
g62
(dp4173
g82
g83
ssg71
g4167
sg64
(lp4174
g3791
asbag57
(g78
g59
NtRp4175
(dp4176
g62
(dp4177
g89
g90
ssg71
g4167
sg64
(lp4178
S':'
asbag57
(g78
g59
NtRp4179
(dp4180
g62
(dp4181
sg71
g4167
sg64
(lp4182
g57
(g58
g59
NtRp4183
(dp4184
g62
(dp4185
g70
I5
ssg71
g4179
sg64
(lp4186
S''
asbasbasbag57
(g73
g59
NtRp4187
(dp4188
g62
(dp4189
sg71
g3857
sg64
(lp4190
g57
(g78
g59
NtRp4191
(dp4192
g62
(dp4193
g82
g83
ssg71
g4187
sg64
(lp4194
S'generic_patterns'
p4195
asbag57
(g78
g59
NtRp4196
(dp4197
g62
(dp4198
g89
g90
ssg71
g4187
sg64
(lp4199
S':'
asbag57
(g78
g59
NtRp4200
(dp4201
g62
(dp4202
sg71
g4187
sg64
(lp4203
g57
(g58
g59
NtRp4204
(dp4205
g62
(dp4206
g70
I5
ssg71
g4200
sg64
(lp4207
g57
(g66
g59
NtRp4208
(dp4209
g62
(dp4210
g70
I4
ssg71
Nsg64
(lp4211
g57
(g73
g59
NtRp4212
(dp4213
g62
(dp4214
sg71
g4208
sg64
(lp4215
g57
(g78
g59
NtRp4216
(dp4217
g62
(dp4218
sg71
g4212
sg64
(lp4219
g57
(g58
g59
NtRp4220
(dp4221
g62
(dp4222
g70
I4
ssg71
g4216
sg64
(lp4223
S'*.json'
p4224
asbasbasbasbasbasbasbag57
(g73
g59
NtRp4225
(dp4226
g62
(dp4227
sg71
g3857
sg64
(lp4228
g57
(g78
g59
NtRp4229
(dp4230
g62
(dp4231
g82
g83
ssg71
g4225
sg64
(lp4232
S'headers'
p4233
asbag57
(g78
g59
NtRp4234
(dp4235
g62
(dp4236
g89
g90
ssg71
g4225
sg64
(lp4237
S':'
asbag57
(g78
g59
NtRp4238
(dp4239
g62
(dp4240
sg71
g4225
sg64
(lp4241
g57
(g58
g59
NtRp4242
(dp4243
g62
(dp4244
g70
I5
ssg71
g4238
sg64
(lp4245
g57
(g66
g59
NtRp4246
(dp4247
g62
(dp4248
g70
I4
ssg71
Nsg64
(lp4249
g57
(g73
g59
NtRp4250
(dp4251
g62
(dp4252
sg71
g4246
sg64
(lp4253
g57
(g78
g59
NtRp4254
(dp4255
g62
(dp4256
g82
g83
ssg71
g4250
sg64
(lp4257
S'Cache-Control'
p4258
asbag57
(g78
g59
NtRp4259
(dp4260
g62
(dp4261
g89
g90
ssg71
g4250
sg64
(lp4262
S':'
asbag57
(g78
g59
NtRp4263
(dp4264
g62
(dp4265
sg71
g4250
sg64
(lp4266
g57
(g58
g59
NtRp4267
(dp4268
g62
(dp4269
g70
I4
ssg71
g4263
sg64
(lp4270
S'no-store, no-cache, must-revalidate, post-check=0, pre-check=0'
p4271
asbasbasbag57
(g73
g59
NtRp4272
(dp4273
g62
(dp4274
sg71
g4246
sg64
(lp4275
g57
(g78
g59
NtRp4276
(dp4277
g62
(dp4278
g82
g83
ssg71
g4272
sg64
(lp4279
S'Content-Type'
p4280
asbag57
(g78
g59
NtRp4281
(dp4282
g62
(dp4283
g89
g90
ssg71
g4272
sg64
(lp4284
S':'
asbag57
(g78
g59
NtRp4285
(dp4286
g62
(dp4287
sg71
g4272
sg64
(lp4288
g57
(g58
g59
NtRp4289
(dp4290
g62
(dp4291
g70
I4
ssg71
g4285
sg64
(lp4292
S'text/html; charset=utf-8'
p4293
asbasbasbag57
(g73
g59
NtRp4294
(dp4295
g62
(dp4296
sg71
g4246
sg64
(lp4297
g57
(g78
g59
NtRp4298
(dp4299
g62
(dp4300
g82
g83
ssg71
g4294
sg64
(lp4301
S'Expires'
p4302
asbag57
(g78
g59
NtRp4303
(dp4304
g62
(dp4305
g89
g90
ssg71
g4294
sg64
(lp4306
S':'
asbag57
(g78
g59
NtRp4307
(dp4308
g62
(dp4309
sg71
g4294
sg64
(lp4310
g57
(g58
g59
NtRp4311
(dp4312
g62
(dp4313
g70
I4
ssg71
g4307
sg64
(lp4314
S'Thu, 30 Aug 2012 12:22:34 GMT'
p4315
asbasbasbag57
(g73
g59
NtRp4316
(dp4317
g62
(dp4318
sg71
g4246
sg64
(lp4319
g57
(g78
g59
NtRp4320
(dp4321
g62
(dp4322
g82
g83
ssg71
g4316
sg64
(lp4323
S'Pragma'
p4324
asbag57
(g78
g59
NtRp4325
(dp4326
g62
(dp4327
g89
g90
ssg71
g4316
sg64
(lp4328
S':'
asbag57
(g78
g59
NtRp4329
(dp4330
g62
(dp4331
sg71
g4316
sg64
(lp4332
g57
(g58
g59
NtRp4333
(dp4334
g62
(dp4335
g70
I4
ssg71
g4329
sg64
(lp4336
S'no-cache'
p4337
asbasbasbag57
(g73
g59
NtRp4338
(dp4339
g62
(dp4340
sg71
g4246
sg64
(lp4341
g57
(g78
g59
NtRp4342
(dp4343
g62
(dp4344
g82
g83
ssg71
g4338
sg64
(lp4345
S'X-Powered-By'
p4346
asbag57
(g78
g59
NtRp4347
(dp4348
g62
(dp4349
g89
g90
ssg71
g4338
sg64
(lp4350
S':'
asbag57
(g78
g59
NtRp4351
(dp4352
g62
(dp4353
sg71
g4338
sg64
(lp4354
g57
(g58
g59
NtRp4355
(dp4356
g62
(dp4357
g70
I4
ssg71
g4351
sg64
(lp4358
S'web2py'
p4359
asbasbasbasbasbasbasbag57
(g73
g59
NtRp4360
(dp4361
g62
(dp4362
sg71
g3857
sg64
(lp4363
g57
(g78
g59
NtRp4364
(dp4365
g62
(dp4366
g82
g83
ssg71
g4360
sg64
(lp4367
S'menu'
p4368
asbag57
(g78
g59
NtRp4369
(dp4370
g62
(dp4371
g89
g90
ssg71
g4360
sg64
(lp4372
S':'
asbag57
(g78
g59
NtRp4373
(dp4374
g62
(dp4375
sg71
g4360
sg64
(lp4376
g57
(g58
g59
NtRp4377
(dp4378
g62
(dp4379
g70
I5
ssg71
g4373
sg64
(lp4380
g57
(g66
g59
NtRp4381
(dp4382
g62
(dp4383
g70
I4
ssg71
Nsg64
(lp4384
g57
(g73
g59
NtRp4385
(dp4386
g62
(dp4387
sg71
g4381
sg64
(lp4388
g57
(g78
g59
NtRp4389
(dp4390
g62
(dp4391
sg71
g4385
sg64
(lp4392
g57
(g58
g59
NtRp4393
(dp4394
g62
(dp4395
g70
I4
ssg71
g4389
sg64
(lp4396
g57
(g66
g59
NtRp4397
(dp4398
g62
(dp4399
g70
I3
ssg71
Nsg64
(lp4400
g57
(g73
g59
NtRp4401
(dp4402
g62
(dp4403
sg71
g4397
sg64
(lp4404
g57
(g78
g59
NtRp4405
(dp4406
g62
(dp4407
sg71
g4401
sg64
(lp4408
g57
(g58
g59
NtRp4409
(dp4410
g62
(dp4411
g70
I3
ssg71
g4405
sg64
(lp4412
cgluon.languages
lazyT_unpickle
p4413
(S't\x04\x00\x00\x00Home'
tRp4414
asbasbasbag57
(g73
g59
NtRp4415
(dp4416
g62
(dp4417
sg71
g4397
sg64
(lp4418
g57
(g78
g59
NtRp4419
(dp4420
g62
(dp4421
sg71
g4415
sg64
(lp4422
g57
(g58
g59
NtRp4423
(dp4424
g62
(dp4425
g70
I3
ssg71
g4419
sg64
(lp4426
g100
asbasbasbag57
(g73
g59
NtRp4427
(dp4428
g62
(dp4429
sg71
g4397
sg64
(lp4430
g57
(g78
g59
NtRp4431
(dp4432
g62
(dp4433
sg71
g4427
sg64
(lp4434
g57
(g58
g59
NtRp4435
(dp4436
g62
(dp4437
g70
I3
ssg71
g4431
sg64
(lp4438
S'/telefam/default/index'
p4439
asbasbasbag57
(g73
g59
NtRp4440
(dp4441
g62
(dp4442
sg71
g4397
sg64
(lp4443
g57
(g78
g59
NtRp4444
(dp4445
g62
(dp4446
sg71
g4440
sg64
(lp4447
g57
(g58
g59
NtRp4448
(dp4449
g62
(dp4450
g70
I3
ssg71
g4444
sg64
(lp4451
g57
(g66
g59
NtRp4452
(dp4453
g62
(dp4454
g70
I2
ssg71
Nsg64
(lp4455
sbasbasbasbasbasbasbasbag57
(g73
g59
NtRp4456
(dp4457
g62
(dp4458
sg71
g4381
sg64
(lp4459
g57
(g78
g59
NtRp4460
(dp4461
g62
(dp4462
sg71
g4456
sg64
(lp4463
g57
(g58
g59
NtRp4464
(dp4465
g62
(dp4466
g70
I4
ssg71
g4460
sg64
(lp4467
g57
(g66
g59
NtRp4468
(dp4469
g62
(dp4470
g70
I3
ssg71
Nsg64
(lp4471
g57
(g73
g59
NtRp4472
(dp4473
g62
(dp4474
sg71
g4468
sg64
(lp4475
g57
(g78
g59
NtRp4476
(dp4477
g62
(dp4478
sg71
g4472
sg64
(lp4479
g57
(g58
g59
NtRp4480
(dp4481
g62
(dp4482
g70
I3
ssg71
g4476
sg64
(lp4483
g57
(cgluon.html
SPAN
p4484
g59
NtRp4485
(dp4486
g62
(dp4487
g82
S'color:yellow'
p4488
ssg71
Nsg64
(lp4489
S'Actions'
p4490
asbasbasbasbag57
(g73
g59
NtRp4491
(dp4492
g62
(dp4493
sg71
g4468
sg64
(lp4494
g57
(g78
g59
NtRp4495
(dp4496
g62
(dp4497
sg71
g4491
sg64
(lp4498
g57
(g58
g59
NtRp4499
(dp4500
g62
(dp4501
g70
I3
ssg71
g4495
sg64
(lp4502
g100
asbasbasbag57
(g73
g59
NtRp4503
(dp4504
g62
(dp4505
sg71
g4468
sg64
(lp4506
g57
(g78
g59
NtRp4507
(dp4508
g62
(dp4509
sg71
g4503
sg64
(lp4510
g57
(g58
g59
NtRp4511
(dp4512
g62
(dp4513
g70
I3
ssg71
g4507
sg64
(lp4514
S'None'
p4515
asbasbasbag57
(g73
g59
NtRp4516
(dp4517
g62
(dp4518
sg71
g4468
sg64
(lp4519
g57
(g78
g59
NtRp4520
(dp4521
g62
(dp4522
sg71
g4516
sg64
(lp4523
g57
(g58
g59
NtRp4524
(dp4525
g62
(dp4526
g70
I3
ssg71
g4520
sg64
(lp4527
g57
(g66
g59
NtRp4528
(dp4529
g62
(dp4530
g70
I2
ssg71
Nsg64
(lp4531
g57
(g73
g59
NtRp4532
(dp4533
g62
(dp4534
sg71
g4528
sg64
(lp4535
g57
(g78
g59
NtRp4536
(dp4537
g62
(dp4538
sg71
g4532
sg64
(lp4539
g57
(g58
g59
NtRp4540
(dp4541
g62
(dp4542
g70
I2
ssg71
g4536
sg64
(lp4543
g57
(g66
g59
NtRp4544
(dp4545
g62
(dp4546
g70
I1
ssg71
Nsg64
(lp4547
g57
(g73
g59
NtRp4548
(dp4549
g62
(dp4550
sg71
g4544
sg64
(lp4551
g57
(g78
g59
NtRp4552
(dp4553
g62
(dp4554
sg71
g4548
sg64
(lp4555
g57
(g58
g59
NtRp4556
(dp4557
g62
(dp4558
g70
I1
ssg71
g4552
sg64
(lp4559
g4413
(S't\t\x00\x00\x00Messsages'
tRp4560
asbasbasbag57
(g73
g59
NtRp4561
(dp4562
g62
(dp4563
sg71
g4544
sg64
(lp4564
g57
(g78
g59
NtRp4565
(dp4566
g62
(dp4567
sg71
g4561
sg64
(lp4568
g57
(g58
g59
NtRp4569
(dp4570
g62
(dp4571
g70
I1
ssg71
g4565
sg64
(lp4572
I00
asbasbasbag57
(g73
g59
NtRp4573
(dp4574
g62
(dp4575
sg71
g4544
sg64
(lp4576
g57
(g78
g59
NtRp4577
(dp4578
g62
(dp4579
sg71
g4573
sg64
(lp4580
g57
(g58
g59
NtRp4581
(dp4582
g62
(dp4583
g70
I1
ssg71
g4577
sg64
(lp4584
S'/telefam/messages/index'
p4585
asbasbasbasbasbasbasbag57
(g73
g59
NtRp4586
(dp4587
g62
(dp4588
sg71
g4528
sg64
(lp4589
g57
(g78
g59
NtRp4590
(dp4591
g62
(dp4592
sg71
g4586
sg64
(lp4593
g57
(g58
g59
NtRp4594
(dp4595
g62
(dp4596
g70
I2
ssg71
g4590
sg64
(lp4597
g57
(g66
g59
NtRp4598
(dp4599
g62
(dp4600
g70
I1
ssg71
Nsg64
(lp4601
g57
(g73
g59
NtRp4602
(dp4603
g62
(dp4604
sg71
g4598
sg64
(lp4605
g57
(g78
g59
NtRp4606
(dp4607
g62
(dp4608
sg71
g4602
sg64
(lp4609
g57
(g58
g59
NtRp4610
(dp4611
g62
(dp4612
g70
I1
ssg71
g4606
sg64
(lp4613
g4413
(S's\x0f\x00\x00\x00Photo Galleries'
tRp4614
asbasbasbag57
(g73
g59
NtRp4615
(dp4616
g62
(dp4617
sg71
g4598
sg64
(lp4618
g57
(g78
g59
NtRp4619
(dp4620
g62
(dp4621
sg71
g4615
sg64
(lp4622
g57
(g58
g59
NtRp4623
(dp4624
g62
(dp4625
g70
I1
ssg71
g4619
sg64
(lp4626
I00
asbasbasbag57
(g73
g59
NtRp4627
(dp4628
g62
(dp4629
sg71
g4598
sg64
(lp4630
g57
(g78
g59
NtRp4631
(dp4632
g62
(dp4633
sg71
g4627
sg64
(lp4634
g57
(g58
g59
NtRp4635
(dp4636
g62
(dp4637
g70
I1
ssg71
g4631
sg64
(lp4638
S'/telefam/galleries/index'
p4639
asbasbasbasbasbasbasbag57
(g73
g59
NtRp4640
(dp4641
g62
(dp4642
sg71
g4528
sg64
(lp4643
g57
(g78
g59
NtRp4644
(dp4645
g62
(dp4646
sg71
g4640
sg64
(lp4647
g57
(g58
g59
NtRp4648
(dp4649
g62
(dp4650
g70
I2
ssg71
g4644
sg64
(lp4651
g57
(g66
g59
NtRp4652
(dp4653
g62
(dp4654
g70
I1
ssg71
Nsg64
(lp4655
g57
(g73
g59
NtRp4656
(dp4657
g62
(dp4658
sg71
g4652
sg64
(lp4659
g57
(g78
g59
NtRp4660
(dp4661
g62
(dp4662
sg71
g4656
sg64
(lp4663
g57
(g58
g59
NtRp4664
(dp4665
g62
(dp4666
g70
I1
ssg71
g4660
sg64
(lp4667
g4413
(S't\x05\x00\x00\x00Debug'
tRp4668
asbasbasbag57
(g73
g59
NtRp4669
(dp4670
g62
(dp4671
sg71
g4652
sg64
(lp4672
g57
(g78
g59
NtRp4673
(dp4674
g62
(dp4675
sg71
g4669
sg64
(lp4676
g57
(g58
g59
NtRp4677
(dp4678
g62
(dp4679
g70
I1
ssg71
g4673
sg64
(lp4680
I00
asbasbasbag57
(g73
g59
NtRp4681
(dp4682
g62
(dp4683
sg71
g4652
sg64
(lp4684
g57
(g78
g59
NtRp4685
(dp4686
g62
(dp4687
sg71
g4681
sg64
(lp4688
g57
(g58
g59
NtRp4689
(dp4690
g62
(dp4691
g70
I1
ssg71
g4685
sg64
(lp4692
Nasbasbasbag57
(g73
g59
NtRp4693
(dp4694
g62
(dp4695
sg71
g4652
sg64
(lp4696
g57
(g78
g59
NtRp4697
(dp4698
g62
(dp4699
sg71
g4693
sg64
(lp4700
g57
(g58
g59
NtRp4701
(dp4702
g62
(dp4703
g70
I1
ssg71
g4697
sg64
(lp4704
(lp4705
(g4413
(S's\x08\x00\x00\x00This App'
tRp4706
I00
S'/admin/default/design/telefam'
(lp4707
(g4413
(S't\x0b\x00\x00\x00Controlador'
tRp4708
I00
S'/admin/default/edit/telefam/controllers/default.py'
tp4709
a(g4413
(S't\x05\x00\x00\x00Vista'
tRp4710
I00
S'/admin/default/edit/telefam/views/default/user.html'
tp4711
a(g4413
(S's\x12\x00\x00\x00Dise\xc3\xb1o de p\xc3\xa1gina'
tRp4712
I00
S'/admin/default/edit/telefam/views/layout.html'
tp4713
a(g4413
(S's\x0e\x00\x00\x00Hoja de estilo'
tRp4714
I00
S'/admin/default/edit/telefam/static/css/web2py.css'
tp4715
a(g4413
(S's\x0b\x00\x00\x00Modelo "db"'
tRp4716
I00
S'/admin/default/edit/telefam/models/db.py'
tp4717
a(g4413
(S's\r\x00\x00\x00Modelo "menu"'
tRp4718
I00
S'/admin/default/edit/telefam/models/menu.py'
tp4719
a(g4413
(S's\r\x00\x00\x00Base de datos'
tRp4720
I00
S'/telefam/appadmin/index'
tp4721
a(g4413
(S't\x06\x00\x00\x00Errors'
tRp4722
I00
S'/admin/default/errors/telefam'
tp4723
a(g4413
(S's\t\x00\x00\x00Acerca de'
tRp4724
I00
S'/admin/default/about/telefam'
tp4725
atp4726
a(S'web2py.com'
p4727
I00
S'http://www.web2py.com'
p4728
(lp4729
(g4413
(S't\x08\x00\x00\x00Download'
tRp4730
I00
S'http://www.web2py.com/examples/default/download'
p4731
tp4732
a(g4413
(S't\x07\x00\x00\x00Support'
tRp4733
I00
S'http://www.web2py.com/examples/default/support'
p4734
tp4735
a(g4413
(S't\x04\x00\x00\x00Demo'
tRp4736
I00
S'http://web2py.com/demo_admin'
p4737
tp4738
a(g4413
(S's\x0e\x00\x00\x00Quick Examples'
tRp4739
I00
S'http://web2py.com/examples/default/examples'
p4740
tp4741
a(g4413
(S't\x03\x00\x00\x00FAQ'
tRp4742
I00
S'http://web2py.com/AlterEgo'
p4743
tp4744
a(g4413
(S't\x06\x00\x00\x00Videos'
tRp4745
I00
S'http://www.web2py.com/examples/default/videos/'
p4746
tp4747
a(g4413
(S's\x11\x00\x00\x00Free Applications'
tRp4748
I00
S'http://web2py.com/appliances'
p4749
tp4750
a(g4413
(S't\x07\x00\x00\x00Plugins'
tRp4751
I00
S'http://web2py.com/plugins'
p4752
tp4753
a(g4413
(S't\x07\x00\x00\x00Layouts'
tRp4754
I00
S'http://web2py.com/layouts'
p4755
tp4756
a(g4413
(S't\x07\x00\x00\x00Recipes'
tRp4757
I00
S'http://web2pyslices.com/'
p4758
tp4759
a(g4413
(S't\x08\x00\x00\x00Semantic'
tRp4760
I00
S'http://web2py.com/semantic'
p4761
tp4762
atp4763
a(g4413
(S's\x0e\x00\x00\x00Documentaci\xc3\xb3n'
tRp4764
I00
S'http://www.web2py.com/book'
p4765
(lp4766
(g4413
(S't\x07\x00\x00\x00Preface'
tRp4767
I00
S'http://www.web2py.com/book/default/chapter/00'
p4768
tp4769
a(g4413
(S't\x0c\x00\x00\x00Introduction'
tRp4770
I00
S'http://www.web2py.com/book/default/chapter/01'
p4771
tp4772
a(g4413
(S't\x06\x00\x00\x00Python'
tRp4773
I00
S'http://www.web2py.com/book/default/chapter/02'
p4774
tp4775
a(g4413
(S't\x08\x00\x00\x00Overview'
tRp4776
I00
S'http://www.web2py.com/book/default/chapter/03'
p4777
tp4778
a(g4413
(S's\x08\x00\x00\x00The Core'
tRp4779
I00
S'http://www.web2py.com/book/default/chapter/04'
p4780
tp4781
a(g4413
(S's\t\x00\x00\x00The Views'
tRp4782
I00
S'http://www.web2py.com/book/default/chapter/05'
p4783
tp4784
a(g4413
(S's\r\x00\x00\x00Base de datos'
tRp4785
I00
S'http://www.web2py.com/book/default/chapter/06'
p4786
tp4787
a(g4413
(S's\x14\x00\x00\x00Forms and Validators'
tRp4788
I00
S'http://www.web2py.com/book/default/chapter/07'
p4789
tp4790
a(g4413
(S's\r\x00\x00\x00Email and SMS'
tRp4791
I00
S'http://www.web2py.com/book/default/chapter/08'
p4792
tp4793
a(g4413
(S's\x0e\x00\x00\x00Access Control'
tRp4794
I00
S'http://www.web2py.com/book/default/chapter/09'
p4795
tp4796
a(g4413
(S't\x08\x00\x00\x00Services'
tRp4797
I00
S'http://www.web2py.com/book/default/chapter/10'
p4798
tp4799
a(g4413
(S's\x0c\x00\x00\x00Ajax Recipes'
tRp4800
I00
S'http://www.web2py.com/book/default/chapter/11'
p4801
tp4802
a(g4413
(S's\x16\x00\x00\x00Components and Plugins'
tRp4803
I00
S'http://www.web2py.com/book/default/chapter/12'
p4804
tp4805
a(g4413
(S's\x12\x00\x00\x00Deployment Recipes'
tRp4806
I00
S'http://www.web2py.com/book/default/chapter/13'
p4807
tp4808
a(g4413
(S's\r\x00\x00\x00Other Recipes'
tRp4809
I00
S'http://www.web2py.com/book/default/chapter/14'
p4810
tp4811
a(g4413
(S's\r\x00\x00\x00Buy this book'
tRp4812
I00
S'http://stores.lulu.com/web2py'
p4813
tp4814
atp4815
a(g4413
(S't\t\x00\x00\x00Community'
tRp4816
I00
N(lp4817
(g4413
(S't\x06\x00\x00\x00Groups'
tRp4818
I00
S'http://www.web2py.com/examples/default/usergroups'
p4819
tp4820
a(g4413
(S't\x07\x00\x00\x00Twitter'
tRp4821
I00
S'http://twitter.com/web2py'
p4822
tp4823
a(g4413
(S's\t\x00\x00\x00Live Chat'
tRp4824
I00
S'http://webchat.freenode.net/?channels=web2py'
p4825
tp4826
atp4827
a(g4413
(S't\x07\x00\x00\x00Plugins'
tRp4828
I00
N(lp4829
(S'plugin_wiki'
p4830
I00
S'http://web2py.com/examples/default/download'
p4831
tp4832
a(g4413
(S's\r\x00\x00\x00Other Plugins'
tRp4833
I00
g4752
tp4834
a(g4413
(S's\x0e\x00\x00\x00Layout Plugins'
tRp4835
I00
g4755
tp4836
atp4837
aasbasbasbasbasbasbasbasbasbasbasbasbasbasbasbasbasbasbasbag57
(g73
g59
NtRp4838
(dp4839
g62
(dp4840
sg71
g3857
sg64
(lp4841
g57
(g78
g59
NtRp4842
(dp4843
g62
(dp4844
g82
g83
ssg71
g4838
sg64
(lp4845
S'meta'
p4846
asbag57
(g78
g59
NtRp4847
(dp4848
g62
(dp4849
g89
g90
ssg71
g4838
sg64
(lp4850
S':'
asbag57
(g78
g59
NtRp4851
(dp4852
g62
(dp4853
sg71
g4838
sg64
(lp4854
g57
(g58
g59
NtRp4855
(dp4856
g62
(dp4857
g70
I5
ssg71
g4851
sg64
(lp4858
g57
(g66
g59
NtRp4859
(dp4860
g62
(dp4861
g70
I4
ssg71
Nsg64
(lp4862
g57
(g73
g59
NtRp4863
(dp4864
g62
(dp4865
sg71
g4859
sg64
(lp4866
g57
(g78
g59
NtRp4867
(dp4868
g62
(dp4869
g82
g83
ssg71
g4863
sg64
(lp4870
S'author'
p4871
asbag57
(g78
g59
NtRp4872
(dp4873
g62
(dp4874
g89
g90
ssg71
g4863
sg64
(lp4875
S':'
asbag57
(g78
g59
NtRp4876
(dp4877
g62
(dp4878
sg71
g4863
sg64
(lp4879
g57
(g58
g59
NtRp4880
(dp4881
g62
(dp4882
g70
I4
ssg71
g4876
sg64
(lp4883
S'Alfonso de Cala <alfonso@el-magnifico.org>'
p4884
asbasbasbag57
(g73
g59
NtRp4885
(dp4886
g62
(dp4887
sg71
g4859
sg64
(lp4888
g57
(g78
g59
NtRp4889
(dp4890
g62
(dp4891
g82
g83
ssg71
g4885
sg64
(lp4892
S'copyright'
p4893
asbag57
(g78
g59
NtRp4894
(dp4895
g62
(dp4896
g89
g90
ssg71
g4885
sg64
(lp4897
S':'
asbag57
(g78
g59
NtRp4898
(dp4899
g62
(dp4900
sg71
g4885
sg64
(lp4901
g57
(g58
g59
NtRp4902
(dp4903
g62
(dp4904
g70
I4
ssg71
g4898
sg64
(lp4905
S'Copyright 2012'
p4906
asbasbasbag57
(g73
g59
NtRp4907
(dp4908
g62
(dp4909
sg71
g4859
sg64
(lp4910
g57
(g78
g59
NtRp4911
(dp4912
g62
(dp4913
g82
g83
ssg71
g4907
sg64
(lp4914
S'description'
p4915
asbag57
(g78
g59
NtRp4916
(dp4917
g62
(dp4918
g89
g90
ssg71
g4907
sg64
(lp4919
S':'
asbag57
(g78
g59
NtRp4920
(dp4921
g62
(dp4922
sg71
g4907
sg64
(lp4923
g57
(g58
g59
NtRp4924
(dp4925
g62
(dp4926
g70
I4
ssg71
g4920
sg64
(lp4927
S'Telefam: Sharing content with your family, made easy'
p4928
asbasbasbag57
(g73
g59
NtRp4929
(dp4930
g62
(dp4931
sg71
g4859
sg64
(lp4932
g57
(g78
g59
NtRp4933
(dp4934
g62
(dp4935
g82
g83
ssg71
g4929
sg64
(lp4936
S'generator'
p4937
asbag57
(g78
g59
NtRp4938
(dp4939
g62
(dp4940
g89
g90
ssg71
g4929
sg64
(lp4941
S':'
asbag57
(g78
g59
NtRp4942
(dp4943
g62
(dp4944
sg71
g4929
sg64
(lp4945
g57
(g58
g59
NtRp4946
(dp4947
g62
(dp4948
g70
I4
ssg71
g4942
sg64
(lp4949
S'Web2py Web Framework'
p4950
asbasbasbag57
(g73
g59
NtRp4951
(dp4952
g62
(dp4953
sg71
g4859
sg64
(lp4954
g57
(g78
g59
NtRp4955
(dp4956
g62
(dp4957
g82
g83
ssg71
g4951
sg64
(lp4958
S'keywords'
p4959
asbag57
(g78
g59
NtRp4960
(dp4961
g62
(dp4962
g89
g90
ssg71
g4951
sg64
(lp4963
S':'
asbag57
(g78
g59
NtRp4964
(dp4965
g62
(dp4966
sg71
g4951
sg64
(lp4967
g57
(g58
g59
NtRp4968
(dp4969
g62
(dp4970
g70
I4
ssg71
g4964
sg64
(lp4971
S'telefam, social, network, tv, raspberrypi'
p4972
asbasbasbasbasbasbasbag57
(g73
g59
NtRp4973
(dp4974
g62
(dp4975
sg71
g3857
sg64
(lp4976
g57
(g78
g59
NtRp4977
(dp4978
g62
(dp4979
g82
g83
ssg71
g4973
sg64
(lp4980
S'postprocessing'
p4981
asbag57
(g78
g59
NtRp4982
(dp4983
g62
(dp4984
g89
g90
ssg71
g4973
sg64
(lp4985
S':'
asbag57
(g78
g59
NtRp4986
(dp4987
g62
(dp4988
sg71
g4973
sg64
(lp4989
g57
(g58
g59
NtRp4990
(dp4991
g62
(dp4992
g70
I5
ssg71
g4986
sg64
(lp4993
g57
(g66
g59
NtRp4994
(dp4995
g62
(dp4996
g70
I4
ssg71
Nsg64
(lp4997
sbasbasbasbag57
(g73
g59
NtRp4998
(dp4999
g62
(dp5000
sg71
g3857
sg64
(lp5001
g57
(g78
g59
NtRp5002
(dp5003
g62
(dp5004
g82
g83
ssg71
g4998
sg64
(lp5005
S'session_file'
p5006
asbag57
(g78
g59
NtRp5007
(dp5008
g62
(dp5009
g89
g90
ssg71
g4998
sg64
(lp5010
S':'
asbag57
(g78
g59
NtRp5011
(dp5012
g62
(dp5013
sg71
g4998
sg64
(lp5014
g57
(g58
g59
NtRp5015
(dp5016
g62
(dp5017
g70
I5
ssg71
g5011
sg64
(lp5018
S"<open file '/home/alfem/alfem/prog/telefam/server/web2py/applications/telefam/sessions/127.0.0.1-f7f620a6-fd63-4f72-b11a-b8325669ccbf', mode 'rb+' at 0xa67b650>"
p5019
asbasbasbag57
(g73
g59
NtRp5020
(dp5021
g62
(dp5022
sg71
g3857
sg64
(lp5023
g57
(g78
g59
NtRp5024
(dp5025
g62
(dp5026
g82
g83
ssg71
g5020
sg64
(lp5027
S'session_filename'
p5028
asbag57
(g78
g59
NtRp5029
(dp5030
g62
(dp5031
g89
g90
ssg71
g5020
sg64
(lp5032
S':'
asbag57
(g78
g59
NtRp5033
(dp5034
g62
(dp5035
sg71
g5020
sg64
(lp5036
g57
(g58
g59
NtRp5037
(dp5038
g62
(dp5039
g70
I5
ssg71
g5033
sg64
(lp5040
S'/home/alfem/alfem/prog/telefam/server/web2py/applications/telefam/sessions/127.0.0.1-f7f620a6-fd63-4f72-b11a-b8325669ccbf'
p5041
asbasbasbag57
(g73
g59
NtRp5042
(dp5043
g62
(dp5044
sg71
g3857
sg64
(lp5045
g57
(g78
g59
NtRp5046
(dp5047
g62
(dp5048
g82
g83
ssg71
g5042
sg64
(lp5049
S'session_id'
p5050
asbag57
(g78
g59
NtRp5051
(dp5052
g62
(dp5053
g89
g90
ssg71
g5042
sg64
(lp5054
S':'
asbag57
(g78
g59
NtRp5055
(dp5056
g62
(dp5057
sg71
g5042
sg64
(lp5058
g57
(g58
g59
NtRp5059
(dp5060
g62
(dp5061
g70
I5
ssg71
g5055
sg64
(lp5062
S'127.0.0.1-f7f620a6-fd63-4f72-b11a-b8325669ccbf'
p5063
asbasbasbag57
(g73
g59
NtRp5064
(dp5065
g62
(dp5066
sg71
g3857
sg64
(lp5067
g57
(g78
g59
NtRp5068
(dp5069
g62
(dp5070
g82
g83
ssg71
g5064
sg64
(lp5071
S'session_id_name'
p5072
asbag57
(g78
g59
NtRp5073
(dp5074
g62
(dp5075
g89
g90
ssg71
g5064
sg64
(lp5076
S':'
asbag57
(g78
g59
NtRp5077
(dp5078
g62
(dp5079
sg71
g5064
sg64
(lp5080
g57
(g58
g59
NtRp5081
(dp5082
g62
(dp5083
g70
I5
ssg71
g5077
sg64
(lp5084
g3914
asbasbasbag57
(g73
g59
NtRp5085
(dp5086
g62
(dp5087
sg71
g3857
sg64
(lp5088
g57
(g78
g59
NtRp5089
(dp5090
g62
(dp5091
g82
g83
ssg71
g5085
sg64
(lp5092
S'session_locked'
p5093
asbag57
(g78
g59
NtRp5094
(dp5095
g62
(dp5096
g89
g90
ssg71
g5085
sg64
(lp5097
S':'
asbag57
(g78
g59
NtRp5098
(dp5099
g62
(dp5100
sg71
g5085
sg64
(lp5101
g57
(g58
g59
NtRp5102
(dp5103
g62
(dp5104
g70
I5
ssg71
g5098
sg64
(lp5105
g1593
asbasbasbag57
(g73
g59
NtRp5106
(dp5107
g62
(dp5108
sg71
g3857
sg64
(lp5109
g57
(g78
g59
NtRp5110
(dp5111
g62
(dp5112
g82
g83
ssg71
g5106
sg64
(lp5113
S'session_new'
p5114
asbag57
(g78
g59
NtRp5115
(dp5116
g62
(dp5117
g89
g90
ssg71
g5106
sg64
(lp5118
S':'
asbag57
(g78
g59
NtRp5119
(dp5120
g62
(dp5121
sg71
g5106
sg64
(lp5122
g57
(g58
g59
NtRp5123
(dp5124
g62
(dp5125
g70
I5
ssg71
g5119
sg64
(lp5126
g100
asbasbasbag57
(g73
g59
NtRp5127
(dp5128
g62
(dp5129
sg71
g3857
sg64
(lp5130
g57
(g78
g59
NtRp5131
(dp5132
g62
(dp5133
g82
g83
ssg71
g5127
sg64
(lp5134
S'status'
p5135
asbag57
(g78
g59
NtRp5136
(dp5137
g62
(dp5138
g89
g90
ssg71
g5127
sg64
(lp5139
S':'
asbag57
(g78
g59
NtRp5140
(dp5141
g62
(dp5142
sg71
g5127
sg64
(lp5143
g57
(g58
g59
NtRp5144
(dp5145
g62
(dp5146
g70
I5
ssg71
g5140
sg64
(lp5147
S'200'
p5148
asbasbasbag57
(g73
g59
NtRp5149
(dp5150
g62
(dp5151
sg71
g3857
sg64
(lp5152
g57
(g78
g59
NtRp5153
(dp5154
g62
(dp5155
g82
g83
ssg71
g5149
sg64
(lp5156
S'subtitle'
p5157
asbag57
(g78
g59
NtRp5158
(dp5159
g62
(dp5160
g89
g90
ssg71
g5149
sg64
(lp5161
S':'
asbag57
(g78
g59
NtRp5162
(dp5163
g62
(dp5164
sg71
g5149
sg64
(lp5165
g57
(g58
g59
NtRp5166
(dp5167
g62
(dp5168
g70
I5
ssg71
g5162
sg64
(lp5169
g4413
(S's+\x00\x00\x00Sharing content with your family, made easy'
tRp5170
asbasbasbag57
(g73
g59
NtRp5171
(dp5172
g62
(dp5173
sg71
g3857
sg64
(lp5174
g57
(g78
g59
NtRp5175
(dp5176
g62
(dp5177
g82
g83
ssg71
g5171
sg64
(lp5178
S'title'
p5179
asbag57
(g78
g59
NtRp5180
(dp5181
g62
(dp5182
g89
g90
ssg71
g5171
sg64
(lp5183
S':'
asbag57
(g78
g59
NtRp5184
(dp5185
g62
(dp5186
sg71
g5171
sg64
(lp5187
g57
(g58
g59
NtRp5188
(dp5189
g62
(dp5190
g70
I5
ssg71
g5184
sg64
(lp5191
S'Telefam'
p5192
asbasbasbag57
(g73
g59
NtRp5193
(dp5194
g62
(dp5195
sg71
g3857
sg64
(lp5196
g57
(g78
g59
NtRp5197
(dp5198
g62
(dp5199
g82
g83
ssg71
g5193
sg64
(lp5200
g2386
asbag57
(g78
g59
NtRp5201
(dp5202
g62
(dp5203
g89
g90
ssg71
g5193
sg64
(lp5204
S':'
asbag57
(g78
g59
NtRp5205
(dp5206
g62
(dp5207
sg71
g5193
sg64
(lp5208
g57
(g58
g59
NtRp5209
(dp5210
g62
(dp5211
g70
I5
ssg71
g5205
sg64
(lp5212
g2399
asbasbasbag57
(g73
g59
NtRp5213
(dp5214
g62
(dp5215
sg71
g3857
sg64
(lp5216
g57
(g78
g59
NtRp5217
(dp5218
g62
(dp5219
g82
g83
ssg71
g5213
sg64
(lp5220
S'view'
p5221
asbag57
(g78
g59
NtRp5222
(dp5223
g62
(dp5224
g89
g90
ssg71
g5213
sg64
(lp5225
S':'
asbag57
(g78
g59
NtRp5226
(dp5227
g62
(dp5228
sg71
g5213
sg64
(lp5229
g57
(g58
g59
NtRp5230
(dp5231
g62
(dp5232
g70
I5
ssg71
g5226
sg64
(lp5233
S'default/user.html'
p5234
asbasbasbasbasbsS'locals'
p5235
(dp5236
S'form'
p5237
S'<gluon.sqlhtml.SQLFORM object>'
p5238
sssS'traceback'
p5239
S'Traceback (most recent call last):\n  File "/home/alfem/alfem/prog/telefam/server/web2py/gluon/restricted.py", line 205, in restricted\n    exec ccode in environment\n  File "/home/alfem/alfem/prog/telefam/server/web2py/applications/telefam/controllers/default.py", line 94, in <module>\n  File "/home/alfem/alfem/prog/telefam/server/web2py/gluon/globals.py", line 173, in <lambda>\n    self._caller = lambda f: f()\n  File "/home/alfem/alfem/prog/telefam/server/web2py/applications/telefam/controllers/default.py", line 56, in user\n    return dict(form=auth())\n  File "/home/alfem/alfem/prog/telefam/server/web2py/gluon/tools.py", line 1161, in __call__\n    return getattr(self,args[0])()\n  File "/home/alfem/alfem/prog/telefam/server/web2py/gluon/tools.py", line 2445, in profile\n    callback(onaccept,form)\n  File "/home/alfem/alfem/prog/telefam/server/web2py/gluon/tools.py", line 57, in callback\n    [action(form) for action in actions]\n  File "/home/alfem/alfem/prog/telefam/server/web2py/applications/telefam/models/db.py", line 55, in <lambda>\n    auth.settings.profile_onaccept.append(lambda form: update(form))\nNameError: global name \'update\' is not defined\n'
p5240
s.